LIBRARY glibmm-2.4
EXPORTS
    ?__empty_global_delete@@YAXPEAX@Z
    ?__empty_global_delete@@YAXPEAX_K@Z
    ?release_c_type@?$TypeTraits@_N@Container_Helpers@Glib@@SAXH@Z
    ??1?$ArrayHandle@_NU?$TypeTraits@_N@Container_Helpers@Glib@@@Glib@@QEAA@XZ
    ?__empty_global_delete@@YAXPEAX@Z
    ?__empty_global_delete@@YAXPEAX_K@Z
    ?__empty_global_delete@@YAXPEAX@Z
    ?__empty_global_delete@@YAXPEAX_K@Z
    ??2@YAPEAX_KPEAX@Z
    ?copy@?$_Char_traits@DH@std@@SAPEADQEADQEBD_K@Z
    ?assign@?$_Narrow_char_traits@DH@std@@SAXAEADAEBD@Z
    ??0exception@std@@QEAA@QEBDH@Z
    ??0exception@std@@QEAA@AEBV01@@Z
    ??1exception@std@@UEAA@XZ
    ?what@exception@std@@UEBAPEBDXZ
    ??0bad_alloc@std@@AEAA@QEBD@Z
    ??1bad_alloc@std@@UEAA@XZ
    ??0bad_alloc@std@@QEAA@AEBV01@@Z
    ??0bad_array_new_length@std@@QEAA@XZ
    ??1bad_array_new_length@std@@UEAA@XZ
    ??0bad_array_new_length@std@@QEAA@AEBV01@@Z
    ?_Throw_bad_array_new_length@std@@YAXXZ
    ?_Allocate@_Default_allocate_traits@std@@SAPEAX_K@Z
    ?_Adjust_manually_vector_aligned@std@@YAXAEAPEAXAEA_K@Z
    ??0_Container_proxy@std@@QEAA@PEAU_Container_base12@1@@Z
    ??0_Container_base12@std@@QEAA@XZ
    ?_Release@_Basic_container_proxy_ptr12@std@@QEAAXXZ
    ??0_Basic_container_proxy_ptr12@std@@IEAA@XZ
    ?_Xlen_string@std@@YAXXZ
    ??0?$allocator@D@std@@QEAA@XZ
    ?allocate@?$allocator@D@std@@QEAAPEAD_K@Z
    ?max_size@?$_Default_allocator_traits@V?$allocator@D@std@@@std@@SA_KAEBV?$allocator@D@2@@Z
    ??0?$_String_val@U?$_Simple_types@D@std@@@std@@QEAA@XZ
    ?_Myptr@?$_String_val@U?$_Simple_types@D@std@@@std@@QEBAPEBDXZ
    ?_Large_mode_engaged@?$_String_val@U?$_Simple_types@D@std@@@std@@QEBA_NXZ
    ?_Activate_SSO_buffer@?$_String_val@U?$_Simple_types@D@std@@@std@@QEAAXXZ
    ??0_Bxty@?$_String_val@U?$_Simple_types@D@std@@@std@@QEAA@XZ
    ??1_Bxty@?$_String_val@U?$_Simple_types@D@std@@@std@@QEAA@XZ
    ??1?$_String_val@U?$_Simple_types@D@std@@@std@@QEAA@XZ
    ?_Construct_empty@?$basic_string@DU?$char_traits@D@std@@V?$allocator@D@2@@std@@AEAAXXZ
    ?c_str@?$basic_string@DU?$char_traits@D@std@@V?$allocator@D@2@@std@@QEBAPEBDXZ
    ?data@?$basic_string@DU?$char_traits@D@std@@V?$allocator@D@2@@std@@QEBAPEBDXZ
    ?length@?$basic_string@DU?$char_traits@D@std@@V?$allocator@D@2@@std@@QEBA_KXZ
    ?max_size@?$basic_string@DU?$char_traits@D@std@@V?$allocator@D@2@@std@@QEBA_KXZ
    ?_Calculate_growth@?$basic_string@DU?$char_traits@D@std@@V?$allocator@D@2@@std@@CA_K_K00@Z
    ?_Getal@?$basic_string@DU?$char_traits@D@std@@V?$allocator@D@2@@std@@AEAAAEAV?$allocator@D@2@XZ
    ?_Getal@?$basic_string@DU?$char_traits@D@std@@V?$allocator@D@2@@std@@AEBAAEBV?$allocator@D@2@XZ
    ?_Get_first@?$_Compressed_pair@V?$allocator@D@std@@V?$_String_val@U?$_Simple_types@D@std@@@2@$00@std@@QEAAAEAV?$allocator@D@2@XZ
    ?_Get_first@?$_Compressed_pair@V?$allocator@D@std@@V?$_String_val@U?$_Simple_types@D@std@@@2@$00@std@@QEBAAEBV?$allocator@D@2@XZ
    ??1?$_Compressed_pair@V?$allocator@D@std@@V?$_String_val@U?$_Simple_types@D@std@@@2@$00@std@@QEAA@XZ
    ?encode@Base64@Glib@@YA?AV?$basic_string@DU?$char_traits@D@std@@V?$allocator@D@2@@std@@AEBV34@_N@Z
    ?decode@Base64@Glib@@YA?AV?$basic_string@DU?$char_traits@D@std@@V?$allocator@D@2@@std@@AEBV34@@Z
    ??$_Adl_verify_range@PEADPEAD@std@@YAXAEBQEAD0@Z
    ??$make_unique_ptr_gfree@D@Glib@@YA?AV?$unique_ptr@$$BY0A@DP6AXPEAX@Z@std@@PEAD@Z
    ??1?$unique_ptr@$$BY0A@DP6AXPEAX@Z@std@@QEAA@XZ
    ?get_deleter@?$unique_ptr@$$BY0A@DP6AXPEAX@Z@std@@QEAAAEAP6AXPEAX@ZXZ
    ?get@?$unique_ptr@$$BY0A@DP6AXPEAX@Z@std@@QEBAPEADXZ
    ?release@?$unique_ptr@$$BY0A@DP6AXPEAX@Z@std@@QEAAPEADXZ
    ?_Get_first@?$_Compressed_pair@P6AXPEAX@ZPEAD$0A@@std@@QEAAAEAP6AXPEAX@ZXZ
    ??$?0P6AXPEAX@Z$0A@@?$unique_ptr@$$BY0A@DP6AXPEAX@Z@std@@QEAA@$$QEAV01@@Z
    ??$?0PEAD$0A@@?$basic_string@DU?$char_traits@D@std@@V?$allocator@D@2@@std@@QEAA@PEAD0AEBV?$allocator@D@1@@Z
    ??$min@_K@std@@YAAEB_KAEB_K0@Z
    ??$?0PEADP6AXPEAX@Z$0A@$0A@@?$unique_ptr@$$BY0A@DP6AXPEAX@Z@std@@QEAA@PEAD$$QEAP6AXPEAX@Z@Z
    ??$forward@P6AXPEAX@Z@std@@YA$$QEAP6AXPEAX@ZAEAP6AX0@Z@Z
    ??$?0P6AXPEAX@ZPEAD@?$_Compressed_pair@P6AXPEAX@ZPEAD$0A@@std@@QEAA@U_One_then_variadic_args_t@1@$$QEAP6AXPEAX@Z$$QEAPEAD@Z
    ??$?0AEBV?$allocator@D@std@@$$V@?$_Compressed_pair@V?$allocator@D@std@@V?$_String_val@U?$_Simple_types@D@std@@@2@$00@std@@QEAA@U_One_then_variadic_args_t@1@AEBV?$allocator@D@1@@Z
    ??$_Get_unwrapped@AEAPEAD@std@@YA?A_TAEAPEAD@Z
    ??$_Convert_size@_K_K@std@@YA_K_K@Z
    ??$_Construct@$00PEAD@?$basic_string@DU?$char_traits@D@std@@V?$allocator@D@2@@std@@AEAAXQEAD_K@Z
    ?allocate@?$allocator@U_Container_proxy@std@@@std@@QEAAPEAU_Container_proxy@2@_K@Z
    ??$_Delete_plain_internal@V?$allocator@U_Container_proxy@std@@@std@@@std@@YAXAEAV?$allocator@U_Container_proxy@std@@@0@QEAU_Container_proxy@0@@Z
    ??$_Alloc_proxy@V?$allocator@U_Container_proxy@std@@@std@@@_Container_base12@std@@QEAAX$$QEAV?$allocator@U_Container_proxy@std@@@1@@Z
    ??$?0D@?$allocator@U_Container_proxy@std@@@std@@QEAA@AEBV?$allocator@D@1@@Z
    ??$move@AEAP6AXPEAX@Z@std@@YA$$QEAP6AXPEAX@ZAEAP6AX0@Z@Z
    ??$?0P6AXPEAX@ZAEAPEAD@?$_Compressed_pair@P6AXPEAX@ZPEAD$0A@@std@@QEAA@U_One_then_variadic_args_t@1@$$QEAP6AXPEAX@ZAEAPEAD@Z
    ??$forward@PEAD@std@@YA$$QEAPEADAEAPEAD@Z
    ??$forward@AEBV?$allocator@D@std@@@std@@YAAEBV?$allocator@D@0@AEBV10@@Z
    ??0?$_Container_proxy_ptr12@V?$allocator@U_Container_proxy@std@@@std@@@std@@QEAA@AEAV?$allocator@U_Container_proxy@std@@@1@AEAU_Container_base12@1@@Z
    ??1?$_Container_proxy_ptr12@V?$allocator@U_Container_proxy@std@@@std@@@std@@QEAA@XZ
    ??$_Allocate_for_capacity@$0A@@?$basic_string@DU?$char_traits@D@std@@V?$allocator@D@2@@std@@CAPEADAEAV?$allocator@D@1@AEA_K@Z
    ??$_Construct_in_place@PEADAEBQEAD@std@@YAXAEAPEADAEBQEAD@Z
    ??$_Unfancy@D@std@@YAPEADPEAD@Z
    ??$_Deallocate_plain@V?$allocator@U_Container_proxy@std@@@std@@@std@@YAXAEAV?$allocator@U_Container_proxy@std@@@0@QEAU_Container_proxy@0@@Z
    ??$_Unfancy@U_Container_proxy@std@@@std@@YAPEAU_Container_proxy@0@PEAU10@@Z
    ??$_Construct_in_place@U_Container_proxy@std@@PEAU_Container_base12@2@@std@@YAXAEAU_Container_proxy@0@$$QEAPEAU_Container_base12@0@@Z
    ??$exchange@PEAD$$T@std@@YAPEADAEAPEAD$$QEA$$T@Z
    ??$max@_K@std@@YAAEB_KAEB_K0@Z
    ??$_Deallocate@$0BA@@std@@YAXPEAX_K@Z
    ??$forward@AEAPEAD@std@@YAAEAPEADAEAPEAD@Z
    ??$_Allocate_at_least_helper@V?$allocator@D@std@@@std@@YAPEADAEAV?$allocator@D@0@AEA_K@Z
    ??$addressof@PEAD@std@@YAPEAPEADAEAPEAD@Z
    ??$forward@AEBQEAD@std@@YAAEBQEADAEBQEAD@Z
    ?deallocate@?$_Default_allocator_traits@V?$allocator@U_Container_proxy@std@@@std@@@std@@SAXAEAV?$allocator@U_Container_proxy@std@@@2@QEAU_Container_proxy@2@_K@Z
    ??$addressof@U_Container_proxy@std@@@std@@YAPEAU_Container_proxy@0@AEAU10@@Z
    ??$forward@PEAU_Container_base12@std@@@std@@YA$$QEAPEAU_Container_base12@0@AEAPEAU10@@Z
    ??$addressof@U_Container_base12@std@@@std@@YAPEAU_Container_base12@0@AEAU10@@Z
    ??$_Get_size_of_n@$0BA@@std@@YA_K_K@Z
    ??$_Allocate@$0BA@U_Default_allocate_traits@std@@@std@@YAPEAX_K@Z
    ??$_Max_limit@_J@std@@YA_JXZ
    ??$_Allocate_manually_vector_aligned@U_Default_allocate_traits@std@@@std@@YAPEAX_K@Z
    ??$_Get_size_of_n@$00@std@@YA_K_K@Z
    ??_7exception@std@@6B@
    ??_C@_0BC@EOODALEL@Unknown?5exception@
    ??_7bad_alloc@std@@6B@
    ??_7bad_array_new_length@std@@6B@
    ??_C@_0BF@KINCDENJ@bad?5array?5new?5length@
    ??_R0?AVexception@std@@@8
    _CT??_R0?AVexception@std@@@8??0exception@std@@QEAA@AEBV01@@Z24
    _TI3?AVbad_array_new_length@std@@
    _CTA3?AVbad_array_new_length@std@@
    ??_R0?AVbad_array_new_length@std@@@8
    _CT??_R0?AVbad_array_new_length@std@@@8??0bad_array_new_length@std@@QEAA@AEBV01@@Z24
    ??_R0?AVbad_alloc@std@@@8
    _CT??_R0?AVbad_alloc@std@@@8??0bad_alloc@std@@QEAA@AEBV01@@Z24
    ??_C@_0BB@FCMFBGOM@invalid?5argument@
    ??_C@_02DKCKIIND@?$CFs@
    ??_C@_0GC@KLECFGLI@C?3?2Program?5Files?2Microsoft?5Visu@
    ??_C@_0BA@JFNIOLAK@string?5too?5long@
    ??_C@_0BJ@HAJGEHKO@transposed?5pointer?5range@
    ??_C@_0GD@GOKHNLI@C?3?2Program?5Files?2Microsoft?5Visu@
    ??_R4exception@std@@6B@
    ??_R3exception@std@@8
    ??_R2exception@std@@8
    ??_R1A@?0A@EA@exception@std@@8
    ??_R4bad_array_new_length@std@@6B@
    ??_R3bad_array_new_length@std@@8
    ??_R2bad_array_new_length@std@@8
    ??_R1A@?0A@EA@bad_array_new_length@std@@8
    ??_R1A@?0A@EA@bad_alloc@std@@8
    ??_R3bad_alloc@std@@8
    ??_R2bad_alloc@std@@8
    ??_R4bad_alloc@std@@6B@
    ?binding_class_@Binding@Glib@@0VBinding_Class@2@A
    ?__empty_global_delete@@YAXPEAX@Z
    ?__empty_global_delete@@YAXPEAX_K@Z
    ?get_type@Class@Glib@@QEBA_KXZ
    ?get_object@PropertyProxy_Base@Glib@@QEBAPEAVObjectBase@2@XZ
    ?get_name@PropertyProxy_Base@Glib@@QEBAPEBDXZ
    ?gobj@ObjectBase@Glib@@QEAAPEAU_GObject@@XZ
    ?convert_const_gchar_ptr_to_ustring@Glib@@YA?AVustring@1@PEBD@Z
    ?value_type@?$Value@W4BindingFlags@Glib@@@Glib@@SA_KXZ
    ??0Binding@Glib@@IEAA@AEBVConstructParams@1@@Z
    ??0Binding@Glib@@IEAA@PEAU_GBinding@@@Z
    ??0Binding@Glib@@QEAA@$$QEAV01@@Z
    ??4Binding@Glib@@QEAAAEAV01@$$QEAV01@@Z
    ??1Binding@Glib@@UEAA@XZ
    ?get_type@Binding@Glib@@SA_KXZ
    ?get_base_type@Binding@Glib@@SA_KXZ
    ?gobj@Binding@Glib@@QEAAPEAU_GBinding@@XZ
    ?gobj@Binding@Glib@@QEBAPEBU_GBinding@@XZ
    ?gobj_copy@Binding@Glib@@QEAAPEAU_GBinding@@XZ
    ?bind_property_value@Binding@Glib@@SA?AV?$RefPtr@VBinding@Glib@@@2@AEBVPropertyProxy_Base@2@0W4BindingFlags@2@AEBV?$slot@_NPEBU_GValue@@PEAU1@Unil@sigc@@U23@U23@U23@U23@@sigc@@2@Z
    ?get_source@Binding@Glib@@QEAA?AV?$RefPtr@VObjectBase@Glib@@@2@XZ
    ?get_source@Binding@Glib@@QEBA?AV?$RefPtr@$$CBVObjectBase@Glib@@@2@XZ
    ?get_source_property@Binding@Glib@@QEBA?AVustring@2@XZ
    ?get_target@Binding@Glib@@QEAA?AV?$RefPtr@VObjectBase@Glib@@@2@XZ
    ?get_target@Binding@Glib@@QEBA?AV?$RefPtr@$$CBVObjectBase@Glib@@@2@XZ
    ?get_target_property@Binding@Glib@@QEBA?AVustring@2@XZ
    ?get_flags@Binding@Glib@@QEBA?AW4BindingFlags@2@XZ
    ?unbind@Binding@Glib@@QEAAXXZ
    ?property_flags@Binding@Glib@@QEBA?AV?$PropertyProxy_ReadOnly@W4BindingFlags@Glib@@@2@XZ
    ?property_source@Binding@Glib@@QEBA?AV?$PropertyProxy_ReadOnly@V?$RefPtr@VObjectBase@Glib@@@Glib@@@2@XZ
    ?property_source_property@Binding@Glib@@QEBA?AV?$PropertyProxy_ReadOnly@Vustring@Glib@@@2@XZ
    ?property_target@Binding@Glib@@QEBA?AV?$PropertyProxy_ReadOnly@V?$RefPtr@VObjectBase@Glib@@@Glib@@@2@XZ
    ?property_target_property@Binding@Glib@@QEBA?AV?$PropertyProxy_ReadOnly@Vustring@Glib@@@2@XZ
    ?unreference@Binding@Glib@@UEBAXXZ
    ??_DBinding@Glib@@QEAAXXZ
    ??R?$slot2@_NPEBU_GValue@@PEAU1@@sigc@@QEBA_NAEBQEBU_GValue@@AEBQEAU2@@Z
    ??0?$slot2@_NPEBU_GValue@@PEAU1@@sigc@@QEAA@AEBV01@@Z
    ??1?$slot2@_NPEBU_GValue@@PEAU1@@sigc@@QEAA@XZ
    ??0?$slot@_NPEBU_GValue@@PEAU1@Unil@sigc@@U23@U23@U23@U23@@sigc@@QEAA@AEBV01@@Z
    ??1?$slot@_NPEBU_GValue@@PEAU1@Unil@sigc@@U23@U23@U23@U23@@sigc@@QEAA@XZ
    ??0?$RefPtr@VBinding@Glib@@@Glib@@QEAA@XZ
    ??0?$RefPtr@VBinding@Glib@@@Glib@@QEAA@PEAVBinding@1@@Z
    ?wrap@Glib@@YA?AV?$RefPtr@VBinding@Glib@@@1@PEAU_GBinding@@_N@Z
    ?init@Binding_Class@Glib@@QEAAAEBVClass@2@XZ
    ?class_init_function@Binding_Class@Glib@@SAXPEAX0@Z
    ?wrap_new@Binding_Class@Glib@@SAPEAVObjectBase@2@PEAU_GObject@@@Z
    ??$move@AEAVBinding@Glib@@@std@@YA$$QEAVBinding@Glib@@AEAV12@@Z
    ??1?$RefPtr@VObjectBase@Glib@@@Glib@@QEAA@XZ
    ??0?$RefPtr@VObjectBase@Glib@@@Glib@@QEAA@$$QEAV01@@Z
    ??C?$RefPtr@VObjectBase@Glib@@@Glib@@QEBAPEAVObjectBase@1@XZ
    ??B?$RefPtr@VObjectBase@Glib@@@Glib@@QEBA_NXZ
    ?release@?$RefPtr@VObjectBase@Glib@@@Glib@@QEAAPEAVObjectBase@2@XZ
    ??1?$RefPtr@VObject@Glib@@@Glib@@QEAA@XZ
    ?release@?$RefPtr@VObject@Glib@@@Glib@@QEAAPEAVObject@2@XZ
    ??$?0VObject@Glib@@@?$RefPtr@VObjectBase@Glib@@@Glib@@QEAA@$$QEAV?$RefPtr@VObject@Glib@@@1@@Z
    ??$?0VObjectBase@Glib@@@?$RefPtr@$$CBVObjectBase@Glib@@@Glib@@QEAA@$$QEAV?$RefPtr@VObjectBase@Glib@@@1@@Z
    ??0?$PropertyProxy_ReadOnly@W4BindingFlags@Glib@@@Glib@@QEAA@PEBVObjectBase@1@PEBD@Z
    ??0?$PropertyProxy_ReadOnly@V?$RefPtr@VObjectBase@Glib@@@Glib@@@Glib@@QEAA@PEBVObjectBase@1@PEBD@Z
    ??0?$PropertyProxy_ReadOnly@Vustring@Glib@@@Glib@@QEAA@PEBVObjectBase@1@PEBD@Z
    ??$function_pointer_cast@P6A_NPEAUslot_rep@internal@sigc@@AEBQEBU_GValue@@AEBQEAU4@@ZP6APEAXPEAX@Z@internal@sigc@@YAP6A_NPEAUslot_rep@01@AEBQEBU_GValue@@AEBQEAU3@@ZP6APEAXPEAX@Z@Z
    ?unreference@Binding@Glib@@$4PPPPPPPM@A@EBAXXZ
    ??_7Binding@Glib@@6B@
    ??_8Binding@Glib@@7BObject@1@@
    ??_8Binding@Glib@@7BObjectBase@1@@
    ??_R0?AVObjectBase@Glib@@@8
    ??_R0?AVBinding@Glib@@@8
    ??_R4Binding@Glib@@6B@
    ??_R3Binding@Glib@@8
    ??_R2Binding@Glib@@8
    ??_R1A@?0A@EA@Binding@Glib@@8
    ??_R1A@?0A@EA@Object@Glib@@8
    ??_R0?AVObject@Glib@@@8
    ??_R3Object@Glib@@8
    ??_R2Object@Glib@@8
    ??_R1A@A@7FA@ObjectBase@Glib@@8
    ??_R3ObjectBase@Glib@@8
    ??_R2ObjectBase@Glib@@8
    ??_R1A@?0A@EA@ObjectBase@Glib@@8
    ??_R1A@73FA@trackable@sigc@@8
    ??_R0?AUtrackable@sigc@@@8
    ??_R3trackable@sigc@@8
    ??_R2trackable@sigc@@8
    ??_R1A@?0A@EA@trackable@sigc@@8
    ??_R1A@A@3FA@trackable@sigc@@8
    ?__empty_global_delete@@YAXPEAX@Z
    ?__empty_global_delete@@YAXPEAX_K@Z
    ?reference@ByteArray@Glib@@QEBAXXZ
    ?unreference@ByteArray@Glib@@QEBAXXZ
    ?gobj@ByteArray@Glib@@QEAAPEAU_GByteArray@@XZ
    ?gobj@ByteArray@Glib@@QEBAPEBU_GByteArray@@XZ
    ?gobj_copy@ByteArray@Glib@@QEBAPEAU_GByteArray@@XZ
    ?create@ByteArray@Glib@@SA?AV?$RefPtr@VByteArray@Glib@@@2@XZ
    ?append@ByteArray@Glib@@QEAA?AV?$RefPtr@VByteArray@Glib@@@2@PEBEI@Z
    ?prepend@ByteArray@Glib@@QEAA?AV?$RefPtr@VByteArray@Glib@@@2@PEBEI@Z
    ?size@ByteArray@Glib@@QEBAIXZ
    ?get_data@ByteArray@Glib@@QEAAPEAEXZ
    ?get_data@ByteArray@Glib@@QEBAPEBEXZ
    ?remove_index@ByteArray@Glib@@QEAA?AV?$RefPtr@VByteArray@Glib@@@2@I@Z
    ?remove_index_fast@ByteArray@Glib@@QEAA?AV?$RefPtr@VByteArray@Glib@@@2@I@Z
    ?remove_range@ByteArray@Glib@@QEAA?AV?$RefPtr@VByteArray@Glib@@@2@II@Z
    ?sort@ByteArray@Glib@@QEAAXAEBV?$slot@HPEBEPEBEUnil@sigc@@U12@U12@U12@U12@@sigc@@@Z
    ?set_size@ByteArray@Glib@@QEAA?AV?$RefPtr@VByteArray@Glib@@@2@I@Z
    ?get_type@ByteArray@Glib@@SA_KXZ
    ??1?$RefPtr@VByteArray@Glib@@@Glib@@QEAA@XZ
    ??0?$RefPtr@VByteArray@Glib@@@Glib@@QEAA@PEAVByteArray@1@@Z
    ??0?$RefPtr@VByteArray@Glib@@@Glib@@QEAA@$$QEAV01@@Z
    ??C?$RefPtr@VByteArray@Glib@@@Glib@@QEBAPEAVByteArray@1@XZ
    ??B?$RefPtr@VByteArray@Glib@@@Glib@@QEBA_NXZ
    ?wrap@Glib@@YA?AV?$RefPtr@VByteArray@Glib@@@1@PEAU_GByteArray@@_N@Z
    ??R?$slot2@HPEBEPEBE@sigc@@QEBAHAEBQEBE0@Z
    ??$function_pointer_cast@P6AHPEAUslot_rep@internal@sigc@@AEBQEBE1@ZP6APEAXPEAX@Z@internal@sigc@@YAP6AHPEAUslot_rep@01@AEBQEBE1@ZP6APEAXPEAX@Z@Z
    ?__empty_global_delete@@YAXPEAX@Z
    ?__empty_global_delete@@YAXPEAX_K@Z
    ?reference@Bytes@Glib@@QEBAXXZ
    ?unreference@Bytes@Glib@@QEBAXXZ
    ?gobj@Bytes@Glib@@QEAAPEAU_GBytes@@XZ
    ?gobj@Bytes@Glib@@QEBAPEBU_GBytes@@XZ
    ?gobj_copy@Bytes@Glib@@QEBAPEAU_GBytes@@XZ
    ?create@Bytes@Glib@@SA?AV?$RefPtr@VBytes@Glib@@@2@PEBX_K@Z
    ?get_data@Bytes@Glib@@QEBAPEBXAEA_K@Z
    ?get_size@Bytes@Glib@@QEBA_KXZ
    ?hash@Bytes@Glib@@SAIPEBX@Z
    ?equal@Bytes@Glib@@SA_NPEBX0@Z
    ?compare@Bytes@Glib@@SAHPEBX0@Z
    ?wrap@Glib@@YA?AV?$RefPtr@VBytes@Glib@@@1@PEAU_GBytes@@_N@Z
    ??0?$RefPtr@VBytes@Glib@@@Glib@@QEAA@PEAVBytes@1@@Z
    ?__empty_global_delete@@YAXPEAX@Z
    ?__empty_global_delete@@YAXPEAX_K@Z
    ??2@YAPEAX_KPEAX@Z
    ??0exception@std@@QEAA@QEBDH@Z
    ??0exception@std@@QEAA@AEBV01@@Z
    ??1exception@std@@UEAA@XZ
    ?what@exception@std@@UEBAPEBDXZ
    ??0bad_alloc@std@@AEAA@QEBD@Z
    ??1bad_alloc@std@@UEAA@XZ
    ??0bad_alloc@std@@QEAA@AEBV01@@Z
    ??0bad_array_new_length@std@@QEAA@XZ
    ??1bad_array_new_length@std@@UEAA@XZ
    ??0bad_array_new_length@std@@QEAA@AEBV01@@Z
    ?copy@?$_Char_traits@DH@std@@SAPEADQEADQEBD_K@Z
    ?length@?$_Narrow_char_traits@DH@std@@SA_KQEBD@Z
    ?assign@?$_Narrow_char_traits@DH@std@@SAXAEADAEBD@Z
    ?_Throw_bad_array_new_length@std@@YAXXZ
    ?_Allocate@_Default_allocate_traits@std@@SAPEAX_K@Z
    ?_Adjust_manually_vector_aligned@std@@YAXAEAPEAXAEA_K@Z
    ??0_Container_proxy@std@@QEAA@PEAU_Container_base12@1@@Z
    ??0_Container_base12@std@@QEAA@XZ
    ?_Orphan_all@_Container_base12@std@@QEAAXXZ
    ?_Swap_proxy_and_iterators@_Container_base12@std@@QEAAXAEAU12@@Z
    ?_Orphan_all_unlocked_v3@_Container_base12@std@@AEAAXXZ
    ?_Swap_proxy_and_iterators_unlocked@_Container_base12@std@@AEAAXAEAU12@@Z
    ?_Orphan_all_locked_v3@_Container_base12@std@@AEAAXXZ
    ?_Swap_proxy_and_iterators_locked@_Container_base12@std@@AEAAXAEAU12@@Z
    ??$exchange@PEAU_Iterator_base12@std@@$$T@std@@YAPEAU_Iterator_base12@0@AEAPEAU10@$$QEA$$T@Z
    ?_Release@_Basic_container_proxy_ptr12@std@@QEAAXXZ
    ??0_Basic_container_proxy_ptr12@std@@IEAA@XZ
    ?_Xlen_string@std@@YAXXZ
    ??0?$allocator@D@std@@QEAA@XZ
    ?deallocate@?$allocator@D@std@@QEAAXQEAD_K@Z
    ?allocate@?$allocator@D@std@@QEAAPEAD_K@Z
    ?max_size@?$_Default_allocator_traits@V?$allocator@D@std@@@std@@SA_KAEBV?$allocator@D@2@@Z
    ?select_on_container_copy_construction@?$_Default_allocator_traits@V?$allocator@D@std@@@std@@SA?AV?$allocator@D@2@AEBV32@@Z
    ??0?$_String_val@U?$_Simple_types@D@std@@@std@@QEAA@XZ
    ?_Myptr@?$_String_val@U?$_Simple_types@D@std@@@std@@QEBAPEBDXZ
    ?_Large_mode_engaged@?$_String_val@U?$_Simple_types@D@std@@@std@@QEBA_NXZ
    ?_Activate_SSO_buffer@?$_String_val@U?$_Simple_types@D@std@@@std@@QEAAXXZ
    ??0_Bxty@?$_String_val@U?$_Simple_types@D@std@@@std@@QEAA@XZ
    ??1_Bxty@?$_String_val@U?$_Simple_types@D@std@@@std@@QEAA@XZ
    ?_Switch_to_buf@_Bxty@?$_String_val@U?$_Simple_types@D@std@@@std@@QEAAXXZ
    ??1?$_String_val@U?$_Simple_types@D@std@@@std@@QEAA@XZ
    ??0?$basic_string@DU?$char_traits@D@std@@V?$allocator@D@2@@std@@QEAA@XZ
    ??0?$basic_string@DU?$char_traits@D@std@@V?$allocator@D@2@@std@@QEAA@AEBV01@@Z
    ??0?$basic_string@DU?$char_traits@D@std@@V?$allocator@D@2@@std@@QEAA@QEBD@Z
    ?_Deallocate_for_capacity@?$basic_string@DU?$char_traits@D@std@@V?$allocator@D@2@@std@@CAXAEAV?$allocator@D@2@QEAD_K@Z
    ?_Construct_empty@?$basic_string@DU?$char_traits@D@std@@V?$allocator@D@2@@std@@AEAAXXZ
    ??0?$basic_string@DU?$char_traits@D@std@@V?$allocator@D@2@@std@@QEAA@$$QEAV01@@Z
    ?_Take_contents@?$basic_string@DU?$char_traits@D@std@@V?$allocator@D@2@@std@@AEAAXAEAV12@@Z
    ??1?$basic_string@DU?$char_traits@D@std@@V?$allocator@D@2@@std@@QEAA@XZ
    ?c_str@?$basic_string@DU?$char_traits@D@std@@V?$allocator@D@2@@std@@QEBAPEBDXZ
    ?size@?$basic_string@DU?$char_traits@D@std@@V?$allocator@D@2@@std@@QEBA_KXZ
    ?max_size@?$basic_string@DU?$char_traits@D@std@@V?$allocator@D@2@@std@@QEBA_KXZ
    ?_Calculate_growth@?$basic_string@DU?$char_traits@D@std@@V?$allocator@D@2@@std@@CA_K_K00@Z
    ?_Tidy_deallocate@?$basic_string@DU?$char_traits@D@std@@V?$allocator@D@2@@std@@AEAAXXZ
    ?_Swap_proxy_and_iterators@?$basic_string@DU?$char_traits@D@std@@V?$allocator@D@2@@std@@AEAAXAEAV12@@Z
    ?_Getal@?$basic_string@DU?$char_traits@D@std@@V?$allocator@D@2@@std@@AEAAAEAV?$allocator@D@2@XZ
    ?_Getal@?$basic_string@DU?$char_traits@D@std@@V?$allocator@D@2@@std@@AEBAAEBV?$allocator@D@2@XZ
    ?_Get_first@?$_Compressed_pair@V?$allocator@D@std@@V?$_String_val@U?$_Simple_types@D@std@@@2@$00@std@@QEAAAEAV?$allocator@D@2@XZ
    ?_Get_first@?$_Compressed_pair@V?$allocator@D@std@@V?$_String_val@U?$_Simple_types@D@std@@@2@$00@std@@QEBAAEBV?$allocator@D@2@XZ
    ??1?$_Compressed_pair@V?$allocator@D@std@@V?$_String_val@U?$_Simple_types@D@std@@@2@$00@std@@QEAA@XZ
    ??Bustring@Glib@@QEBA?AV?$basic_string@DU?$char_traits@D@std@@V?$allocator@D@2@@std@@XZ
    ?convert_const_gchar_ptr_to_stdstring@Glib@@YA?AV?$basic_string@DU?$char_traits@D@std@@V?$allocator@D@2@@std@@PEBD@Z
    ?convert_return_gchar_ptr_to_ustring@Glib@@YA?AVustring@1@PEAD@Z
    ??$make_unique_ptr_gfree@D@Glib@@YA?AV?$unique_ptr@$$BY0A@DP6AXPEAX@Z@std@@PEAD@Z
    ??1?$unique_ptr@$$BY0A@DP6AXPEAX@Z@std@@QEAA@XZ
    ?get_deleter@?$unique_ptr@$$BY0A@DP6AXPEAX@Z@std@@QEAAAEAP6AXPEAX@ZXZ
    ?get@?$unique_ptr@$$BY0A@DP6AXPEAX@Z@std@@QEBAPEADXZ
    ?release@?$unique_ptr@$$BY0A@DP6AXPEAX@Z@std@@QEAAPEADXZ
    ?_Get_first@?$_Compressed_pair@P6AXPEAX@ZPEAD$0A@@std@@QEAAAEAP6AXPEAX@ZXZ
    ?convert_return_gchar_ptr_to_stdstring@Glib@@YA?AV?$basic_string@DU?$char_traits@D@std@@V?$allocator@D@2@@std@@PEAD@Z
    ??0Checksum@Glib@@QEAA@XZ
    ??0Checksum@Glib@@QEAA@PEAU_GChecksum@@_N@Z
    ??0Checksum@Glib@@QEAA@AEBV01@@Z
    ??4Checksum@Glib@@QEAAAEAV01@AEBV01@@Z
    ??0Checksum@Glib@@QEAA@$$QEAV01@@Z
    ??4Checksum@Glib@@QEAAAEAV01@$$QEAV01@@Z
    ??1Checksum@Glib@@QEAA@XZ
    ?swap@Checksum@Glib@@QEAAXAEAV12@@Z
    ?gobj@Checksum@Glib@@QEAAPEAU_GChecksum@@XZ
    ?gobj@Checksum@Glib@@QEBAPEBU_GChecksum@@XZ
    ?gobj_copy@Checksum@Glib@@QEBAPEAU_GChecksum@@XZ
    ??0Checksum@Glib@@QEAA@W4ChecksumType@01@@Z
    ??BChecksum@Glib@@QEBA_NXZ
    ?reset@Checksum@Glib@@QEAAXXZ
    ?update@Checksum@Glib@@QEAAXPEBE_K@Z
    ?update@Checksum@Glib@@QEAAXAEBV?$basic_string@DU?$char_traits@D@std@@V?$allocator@D@2@@std@@@Z
    ?get_digest@Checksum@Glib@@QEBAXPEAEPEA_K@Z
    ?get_string@Checksum@Glib@@QEBA?AV?$basic_string@DU?$char_traits@D@std@@V?$allocator@D@2@@std@@XZ
    ?compute_checksum@Checksum@Glib@@SA?AV?$basic_string@DU?$char_traits@D@std@@V?$allocator@D@2@@std@@W4ChecksumType@12@PEBE_K@Z
    ?compute_checksum@Checksum@Glib@@SA?AV?$basic_string@DU?$char_traits@D@std@@V?$allocator@D@2@@std@@W4ChecksumType@12@AEBV34@@Z
    ?get_length@Checksum@Glib@@SA_JW4ChecksumType@12@@Z
    ?value_type@?$Value@VChecksum@Glib@@@Glib@@SA_KXZ
    ?set@?$Value@VChecksum@Glib@@@Glib@@QEAAXAEBVChecksum@2@@Z
    ?get@?$Value@VChecksum@Glib@@@Glib@@QEBA?AVChecksum@2@XZ
    ?wrap@Glib@@YA?AVChecksum@1@PEAU_GChecksum@@_N@Z
    ??$swap@PEAU_GChecksum@@$0A@@std@@YAXAEAPEAU_GChecksum@@0@Z
    ??$min@_K@std@@YAAEB_KAEB_K0@Z
    ??$?0PEADP6AXPEAX@Z$0A@$0A@@?$unique_ptr@$$BY0A@DP6AXPEAX@Z@std@@QEAA@PEAD$$QEAP6AXPEAX@Z@Z
    ??$?0P6AXPEAX@Z$0A@@?$unique_ptr@$$BY0A@DP6AXPEAX@Z@std@@QEAA@$$QEAV01@@Z
    ??$move@AEAPEAU_GChecksum@@@std@@YA$$QEAPEAU_GChecksum@@AEAPEAU1@@Z
    ?allocate@?$allocator@U_Container_proxy@std@@@std@@QEAAPEAU_Container_proxy@2@_K@Z
    ??$_Delete_plain_internal@V?$allocator@U_Container_proxy@std@@@std@@@std@@YAXAEAV?$allocator@U_Container_proxy@std@@@0@QEAU_Container_proxy@0@@Z
    ??$_Alloc_proxy@V?$allocator@U_Container_proxy@std@@@std@@@_Container_base12@std@@QEAAX$$QEAV?$allocator@U_Container_proxy@std@@@1@@Z
    ??$_Convert_size@_K_K@std@@YA_K_K@Z
    ??$?0D@?$allocator@U_Container_proxy@std@@@std@@QEAA@AEBV?$allocator@D@1@@Z
    ??$move@AEAV?$allocator@D@std@@@std@@YA$$QEAV?$allocator@D@0@AEAV10@@Z
    ??$?0V?$allocator@D@std@@$$V@?$_Compressed_pair@V?$allocator@D@std@@V?$_String_val@U?$_Simple_types@D@std@@@2@$00@std@@QEAA@U_One_then_variadic_args_t@1@$$QEAV?$allocator@D@1@@Z
    ??$?0$$V@?$_Compressed_pair@V?$allocator@D@std@@V?$_String_val@U?$_Simple_types@D@std@@@2@$00@std@@QEAA@U_Zero_then_variadic_args_t@1@@Z
    ??$_Construct@$00PEBD@?$basic_string@DU?$char_traits@D@std@@V?$allocator@D@2@@std@@AEAAXQEBD_K@Z
    ??$_Construct@$01PEBD@?$basic_string@DU?$char_traits@D@std@@V?$allocator@D@2@@std@@AEAAXQEBD_K@Z
    ??$move@AEAP6AXPEAX@Z@std@@YA$$QEAP6AXPEAX@ZAEAP6AX0@Z@Z
    ??$?0P6AXPEAX@ZAEAPEAD@?$_Compressed_pair@P6AXPEAX@ZPEAD$0A@@std@@QEAA@U_One_then_variadic_args_t@1@$$QEAP6AXPEAX@ZAEAPEAD@Z
    ??$forward@P6AXPEAX@Z@std@@YA$$QEAP6AXPEAX@ZAEAP6AX0@Z@Z
    ??$?0P6AXPEAX@ZPEAD@?$_Compressed_pair@P6AXPEAX@ZPEAD$0A@@std@@QEAA@U_One_then_variadic_args_t@1@$$QEAP6AXPEAX@Z$$QEAPEAD@Z
    ??$_Deallocate_plain@V?$allocator@U_Container_proxy@std@@@std@@@std@@YAXAEAV?$allocator@U_Container_proxy@std@@@0@QEAU_Container_proxy@0@@Z
    ??0?$_Container_proxy_ptr12@V?$allocator@U_Container_proxy@std@@@std@@@std@@QEAA@AEAV?$allocator@U_Container_proxy@std@@@1@AEAU_Container_base12@1@@Z
    ??1?$_Container_proxy_ptr12@V?$allocator@U_Container_proxy@std@@@std@@@std@@QEAA@XZ
    ??$_Unfancy@U_Container_proxy@std@@@std@@YAPEAU_Container_proxy@0@PEAU10@@Z
    ??$_Construct_in_place@U_Container_proxy@std@@PEAU_Container_base12@2@@std@@YAXAEAU_Container_proxy@0@$$QEAPEAU_Container_base12@0@@Z
    ??$forward@V?$allocator@D@std@@@std@@YA$$QEAV?$allocator@D@0@AEAV10@@Z
    ??$_Allocate_for_capacity@$0A@@?$basic_string@DU?$char_traits@D@std@@V?$allocator@D@2@@std@@CAPEADAEAV?$allocator@D@1@AEA_K@Z
    ??$_Construct_in_place@PEADAEBQEAD@std@@YAXAEAPEADAEBQEAD@Z
    ??$_Unfancy@D@std@@YAPEADPEAD@Z
    ??$addressof@V?$_String_val@U?$_Simple_types@D@std@@@std@@@std@@YAPEAV?$_String_val@U?$_Simple_types@D@std@@@0@AEAV10@@Z
    ??$_Construct_in_place@PEADAEAPEAD@std@@YAXAEAPEAD0@Z
    ??$max@_K@std@@YAAEB_KAEB_K0@Z
    ??$_Deallocate@$0BA@@std@@YAXPEAX_K@Z
    ??$forward@AEAPEAD@std@@YAAEAPEADAEAPEAD@Z
    ??$forward@PEAD@std@@YA$$QEAPEADAEAPEAD@Z
    ?deallocate@?$_Default_allocator_traits@V?$allocator@U_Container_proxy@std@@@std@@@std@@SAXAEAV?$allocator@U_Container_proxy@std@@@2@QEAU_Container_proxy@2@_K@Z
    ??$addressof@U_Container_proxy@std@@@std@@YAPEAU_Container_proxy@0@AEAU10@@Z
    ??$forward@PEAU_Container_base12@std@@@std@@YA$$QEAPEAU_Container_base12@0@AEAPEAU10@@Z
    ??$_Allocate_at_least_helper@V?$allocator@D@std@@@std@@YAPEADAEAV?$allocator@D@0@AEA_K@Z
    ??$addressof@PEAD@std@@YAPEAPEADAEAPEAD@Z
    ??$forward@AEBQEAD@std@@YAAEBQEADAEBQEAD@Z
    ??$addressof@U_Container_base12@std@@@std@@YAPEAU_Container_base12@0@AEAU10@@Z
    ??$_Get_size_of_n@$0BA@@std@@YA_K_K@Z
    ??$_Allocate@$0BA@U_Default_allocate_traits@std@@@std@@YAPEAX_K@Z
    ??$exchange@PEAD$$T@std@@YAPEADAEAPEAD$$QEA$$T@Z
    ??$_Destroy_in_place@PEAD@std@@YAXAEAPEAD@Z
    ??$_Max_limit@_J@std@@YA_JXZ
    ??$_Allocate_manually_vector_aligned@U_Default_allocate_traits@std@@@std@@YAPEAX_K@Z
    ??$_Get_size_of_n@$00@std@@YA_K_K@Z
    ??_7exception@std@@6B@
    ??_C@_0BC@EOODALEL@Unknown?5exception@
    ??_7bad_alloc@std@@6B@
    ??_7bad_array_new_length@std@@6B@
    ??_C@_0BF@KINCDENJ@bad?5array?5new?5length@
    ??_R0?AVexception@std@@@8
    _CT??_R0?AVexception@std@@@8??0exception@std@@QEAA@AEBV01@@Z24
    _TI3?AVbad_array_new_length@std@@
    _CTA3?AVbad_array_new_length@std@@
    ??_R0?AVbad_array_new_length@std@@@8
    _CT??_R0?AVbad_array_new_length@std@@@8??0bad_array_new_length@std@@QEAA@AEBV01@@Z24
    ??_R0?AVbad_alloc@std@@@8
    _CT??_R0?AVbad_alloc@std@@@8??0bad_alloc@std@@QEAA@AEBV01@@Z24
    ??_C@_0BB@FCMFBGOM@invalid?5argument@
    ??_C@_02DKCKIIND@?$CFs@
    ??_C@_0GC@KLECFGLI@C?3?2Program?5Files?2Microsoft?5Visu@
    ??_C@_0BA@JFNIOLAK@string?5too?5long@
    ??_C@_0DG@KGHKKGBC@null?5pointer?5cannot?5point?5to?5a?5@
    ??_R4exception@std@@6B@
    ??_R3exception@std@@8
    ??_R2exception@std@@8
    ??_R1A@?0A@EA@exception@std@@8
    ??_R4bad_array_new_length@std@@6B@
    ??_R3bad_array_new_length@std@@8
    ??_R2bad_array_new_length@std@@8
    ??_R1A@?0A@EA@bad_array_new_length@std@@8
    ??_R1A@?0A@EA@bad_alloc@std@@8
    ??_R3bad_alloc@std@@8
    ??_R2bad_alloc@std@@8
    ??_R4bad_alloc@std@@6B@
    ?__empty_global_delete@@YAXPEAX@Z
    ?__empty_global_delete@@YAXPEAX_K@Z
    ??2@YAPEAX_KPEAX@Z
    ??0exception@std@@QEAA@QEBDH@Z
    ??0exception@std@@QEAA@AEBV01@@Z
    ??1exception@std@@UEAA@XZ
    ?what@exception@std@@UEBAPEBDXZ
    ??0bad_alloc@std@@AEAA@QEBD@Z
    ??1bad_alloc@std@@UEAA@XZ
    ??0bad_alloc@std@@QEAA@AEBV01@@Z
    ??0bad_array_new_length@std@@QEAA@XZ
    ??1bad_array_new_length@std@@UEAA@XZ
    ??0bad_array_new_length@std@@QEAA@AEBV01@@Z
    ?_Throw_bad_array_new_length@std@@YAXXZ
    ?_Allocate@_Default_allocate_traits@std@@SAPEAX_K@Z
    ?_Adjust_manually_vector_aligned@std@@YAXAEAPEAXAEA_K@Z
    ??0_Container_proxy@std@@QEAA@PEAU_Container_base12@1@@Z
    ??0_Container_base12@std@@QEAA@XZ
    ?_Orphan_all@_Container_base12@std@@QEAAXXZ
    ?_Orphan_all_unlocked_v3@_Container_base12@std@@AEAAXXZ
    ?_Orphan_all_locked_v3@_Container_base12@std@@AEAAXXZ
    ??0_Iterator_base12@std@@QEAA@XZ
    ??0_Iterator_base12@std@@QEAA@AEBU01@@Z
    ??4_Iterator_base12@std@@QEAAAEAU01@AEBU01@@Z
    ??1_Iterator_base12@std@@QEAA@XZ
    ?_Adopt@_Iterator_base12@std@@QEAAXPEBU_Container_base12@2@@Z
    ?_Getcont@_Iterator_base12@std@@QEBAPEBU_Container_base12@2@XZ
    ?_Assign_unlocked@_Iterator_base12@std@@AEAAXAEBU12@@Z
    ?_Assign_locked@_Iterator_base12@std@@AEAAXAEBU12@@Z
    ?_Adopt_unlocked@_Iterator_base12@std@@AEAAXPEBU_Container_base12@2@@Z
    ?_Adopt_locked@_Iterator_base12@std@@AEAAXPEBU_Container_base12@2@@Z
    ?_Orphan_me_unlocked_v3@_Iterator_base12@std@@AEAAXXZ
    ?_Orphan_me_locked_v3@_Iterator_base12@std@@AEAAXXZ
    ??$exchange@PEAU_Iterator_base12@std@@$$T@std@@YAPEAU_Iterator_base12@0@AEAPEAU10@$$QEA$$T@Z
    ?_Release@_Basic_container_proxy_ptr12@std@@QEAAXXZ
    ??0_Basic_container_proxy_ptr12@std@@IEAA@XZ
    ??0?$tuple@$$V@std@@QEAA@AEBV01@@Z
    ?clone_custom_type@Class@Glib@@QEBA_KPEBD@Z
    ?clone_custom_type@Class@Glib@@QEBA_KPEBDAEBV?$vector@PEBVInterface_Class@Glib@@V?$allocator@PEBVInterface_Class@Glib@@@std@@@std@@@Z
    ?clone_custom_type@Class@Glib@@QEBA_KPEBDPEBV?$vector@PEBVInterface_Class@Glib@@V?$allocator@PEBVInterface_Class@Glib@@@std@@@std@@PEBV?$vector@V?$tuple@P6AXPEAX0@ZPEAX@std@@V?$allocator@V?$tuple@P6AXPEAX0@ZPEAX@std@@@2@@4@P6AXPEAU_GTypeInstance@@PEAX@Z@Z
    ?register_derived_type@Class@Glib@@IEAAX_K@Z
    ?register_derived_type@Class@Glib@@IEAAX_KPEAU_GTypeModule@@@Z
    ?custom_class_base_finalize_function@Class@Glib@@CAXPEAX@Z
    ?custom_class_init_function@Class@Glib@@CAXPEAX0@Z
    ?copy@?$_Char_traits@DH@std@@SAPEADQEADQEBD_K@Z
    ?length@?$_Narrow_char_traits@DH@std@@SA_KQEBD@Z
    ?assign@?$_Narrow_char_traits@DH@std@@SAXAEADAEBD@Z
    ?_Xlen_string@std@@YAXXZ
    ??0?$allocator@D@std@@QEAA@XZ
    ?deallocate@?$allocator@D@std@@QEAAXQEAD_K@Z
    ?allocate@?$allocator@D@std@@QEAAPEAD_K@Z
    ?max_size@?$_Default_allocator_traits@V?$allocator@D@std@@@std@@SA_KAEBV?$allocator@D@2@@Z
    ??0?$_String_val@U?$_Simple_types@D@std@@@std@@QEAA@XZ
    ?_Myptr@?$_String_val@U?$_Simple_types@D@std@@@std@@QEBAPEBDXZ
    ?_Large_mode_engaged@?$_String_val@U?$_Simple_types@D@std@@@std@@QEBA_NXZ
    ??0_Bxty@?$_String_val@U?$_Simple_types@D@std@@@std@@QEAA@XZ
    ??1_Bxty@?$_String_val@U?$_Simple_types@D@std@@@std@@QEAA@XZ
    ?_Switch_to_buf@_Bxty@?$_String_val@U?$_Simple_types@D@std@@@std@@QEAAXXZ
    ??1?$_String_val@U?$_Simple_types@D@std@@@std@@QEAA@XZ
    ??0?$basic_string@DU?$char_traits@D@std@@V?$allocator@D@2@@std@@QEAA@QEBD@Z
    ?_Deallocate_for_capacity@?$basic_string@DU?$char_traits@D@std@@V?$allocator@D@2@@std@@CAXAEAV?$allocator@D@2@QEAD_K@Z
    ??1?$basic_string@DU?$char_traits@D@std@@V?$allocator@D@2@@std@@QEAA@XZ
    ?c_str@?$basic_string@DU?$char_traits@D@std@@V?$allocator@D@2@@std@@QEBAPEBDXZ
    ?max_size@?$basic_string@DU?$char_traits@D@std@@V?$allocator@D@2@@std@@QEBA_KXZ
    ?_Calculate_growth@?$basic_string@DU?$char_traits@D@std@@V?$allocator@D@2@@std@@CA_K_K00@Z
    ?_Tidy_deallocate@?$basic_string@DU?$char_traits@D@std@@V?$allocator@D@2@@std@@AEAAXXZ
    ?_Getal@?$basic_string@DU?$char_traits@D@std@@V?$allocator@D@2@@std@@AEAAAEAV?$allocator@D@2@XZ
    ?_Getal@?$basic_string@DU?$char_traits@D@std@@V?$allocator@D@2@@std@@AEBAAEBV?$allocator@D@2@XZ
    ?_Get_first@?$_Compressed_pair@V?$allocator@D@std@@V?$_String_val@U?$_Simple_types@D@std@@@2@$00@std@@QEAAAEAV?$allocator@D@2@XZ
    ?_Get_first@?$_Compressed_pair@V?$allocator@D@std@@V?$_String_val@U?$_Simple_types@D@std@@@2@$00@std@@QEBAAEBV?$allocator@D@2@XZ
    ??1?$_Compressed_pair@V?$allocator@D@std@@V?$_String_val@U?$_Simple_types@D@std@@@2@$00@std@@QEAA@XZ
    ?_Unchecked_begin@?$vector@PEBVInterface_Class@Glib@@V?$allocator@PEBVInterface_Class@Glib@@@std@@@std@@QEBAPEBQEBVInterface_Class@Glib@@XZ
    ?_Unchecked_end@?$vector@PEBVInterface_Class@Glib@@V?$allocator@PEBVInterface_Class@Glib@@@std@@@std@@QEBAPEBQEBVInterface_Class@Glib@@XZ
    ??0?$allocator@V?$tuple@P6AXPEAX0@ZPEAX@std@@@std@@QEAA@XZ
    ?deallocate@?$allocator@V?$tuple@P6AXPEAX0@ZPEAX@std@@@std@@QEAAXQEAV?$tuple@P6AXPEAX0@ZPEAX@2@_K@Z
    ?allocate@?$allocator@V?$tuple@P6AXPEAX0@ZPEAX@std@@@std@@QEAAPEAV?$tuple@P6AXPEAX0@ZPEAX@2@_K@Z
    ?max_size@?$_Default_allocator_traits@V?$allocator@V?$tuple@P6AXPEAX0@ZPEAX@std@@@std@@@std@@SA_KAEBV?$allocator@V?$tuple@P6AXPEAX0@ZPEAX@std@@@2@@Z
    ??0?$vector@V?$tuple@P6AXPEAX0@ZPEAX@std@@V?$allocator@V?$tuple@P6AXPEAX0@ZPEAX@std@@@2@@std@@QEAA@_KAEBV?$tuple@P6AXPEAX0@ZPEAX@1@AEBV?$allocator@V?$tuple@P6AXPEAX0@ZPEAX@std@@@1@@Z
    ??1?$vector@V?$tuple@P6AXPEAX0@ZPEAX@std@@V?$allocator@V?$tuple@P6AXPEAX0@ZPEAX@std@@@2@@std@@QEAA@XZ
    ?begin@?$vector@V?$tuple@P6AXPEAX0@ZPEAX@std@@V?$allocator@V?$tuple@P6AXPEAX0@ZPEAX@std@@@2@@std@@QEBA?AV?$_Vector_const_iterator@V?$_Vector_val@U?$_Simple_types@V?$tuple@P6AXPEAX0@ZPEAX@std@@@std@@@std@@@2@XZ
    ?end@?$vector@V?$tuple@P6AXPEAX0@ZPEAX@std@@V?$allocator@V?$tuple@P6AXPEAX0@ZPEAX@std@@@2@@std@@QEAA?AV?$_Vector_iterator@V?$_Vector_val@U?$_Simple_types@V?$tuple@P6AXPEAX0@ZPEAX@std@@@std@@@std@@@2@XZ
    ?end@?$vector@V?$tuple@P6AXPEAX0@ZPEAX@std@@V?$allocator@V?$tuple@P6AXPEAX0@ZPEAX@std@@@2@@std@@QEBA?AV?$_Vector_const_iterator@V?$_Vector_val@U?$_Simple_types@V?$tuple@P6AXPEAX0@ZPEAX@std@@@std@@@std@@@2@XZ
    ?empty@?$vector@V?$tuple@P6AXPEAX0@ZPEAX@std@@V?$allocator@V?$tuple@P6AXPEAX0@ZPEAX@std@@@2@@std@@QEBA_NXZ
    ?size@?$vector@V?$tuple@P6AXPEAX0@ZPEAX@std@@V?$allocator@V?$tuple@P6AXPEAX0@ZPEAX@std@@@2@@std@@QEBA_KXZ
    ?max_size@?$vector@V?$tuple@P6AXPEAX0@ZPEAX@std@@V?$allocator@V?$tuple@P6AXPEAX0@ZPEAX@std@@@2@@std@@QEBA_KXZ
    ?capacity@?$vector@V?$tuple@P6AXPEAX0@ZPEAX@std@@V?$allocator@V?$tuple@P6AXPEAX0@ZPEAX@std@@@2@@std@@QEBA_KXZ
    ??A?$vector@V?$tuple@P6AXPEAX0@ZPEAX@std@@V?$allocator@V?$tuple@P6AXPEAX0@ZPEAX@std@@@2@@std@@QEBAAEBV?$tuple@P6AXPEAX0@ZPEAX@1@_K@Z
    ?_Calculate_growth@?$vector@V?$tuple@P6AXPEAX0@ZPEAX@std@@V?$allocator@V?$tuple@P6AXPEAX0@ZPEAX@std@@@2@@std@@AEBA_K_K@Z
    ?_Buy_raw@?$vector@V?$tuple@P6AXPEAX0@ZPEAX@std@@V?$allocator@V?$tuple@P6AXPEAX0@ZPEAX@std@@@2@@std@@AEAAX_K@Z
    ?_Buy_nonzero@?$vector@V?$tuple@P6AXPEAX0@ZPEAX@std@@V?$allocator@V?$tuple@P6AXPEAX0@ZPEAX@std@@@2@@std@@AEAAX_K@Z
    ?_Change_array@?$vector@V?$tuple@P6AXPEAX0@ZPEAX@std@@V?$allocator@V?$tuple@P6AXPEAX0@ZPEAX@std@@@2@@std@@AEAAXQEAV?$tuple@P6AXPEAX0@ZPEAX@2@_K1@Z
    ?_Tidy@?$vector@V?$tuple@P6AXPEAX0@ZPEAX@std@@V?$allocator@V?$tuple@P6AXPEAX0@ZPEAX@std@@@2@@std@@AEAAXXZ
    ?_Xlength@?$vector@V?$tuple@P6AXPEAX0@ZPEAX@std@@V?$allocator@V?$tuple@P6AXPEAX0@ZPEAX@std@@@2@@std@@CAXXZ
    ?_Orphan_range_unlocked@?$vector@V?$tuple@P6AXPEAX0@ZPEAX@std@@V?$allocator@V?$tuple@P6AXPEAX0@ZPEAX@std@@@2@@std@@AEBAXPEAV?$tuple@P6AXPEAX0@ZPEAX@2@0@Z
    ?_Orphan_range_locked@?$vector@V?$tuple@P6AXPEAX0@ZPEAX@std@@V?$allocator@V?$tuple@P6AXPEAX0@ZPEAX@std@@@2@@std@@AEBAXPEAV?$tuple@P6AXPEAX0@ZPEAX@2@0@Z
    ?_Orphan_range@?$vector@V?$tuple@P6AXPEAX0@ZPEAX@std@@V?$allocator@V?$tuple@P6AXPEAX0@ZPEAX@std@@@2@@std@@AEBAXPEAV?$tuple@P6AXPEAX0@ZPEAX@2@0@Z
    ?_Getal@?$vector@V?$tuple@P6AXPEAX0@ZPEAX@std@@V?$allocator@V?$tuple@P6AXPEAX0@ZPEAX@std@@@2@@std@@AEAAAEAV?$allocator@V?$tuple@P6AXPEAX0@ZPEAX@std@@@2@XZ
    ?_Getal@?$vector@V?$tuple@P6AXPEAX0@ZPEAX@std@@V?$allocator@V?$tuple@P6AXPEAX0@ZPEAX@std@@@2@@std@@AEBAAEBV?$allocator@V?$tuple@P6AXPEAX0@ZPEAX@std@@@2@XZ
    ?_Make_iterator_offset@?$vector@V?$tuple@P6AXPEAX0@ZPEAX@std@@V?$allocator@V?$tuple@P6AXPEAX0@ZPEAX@std@@@2@@std@@AEAA?AV?$_Vector_iterator@V?$_Vector_val@U?$_Simple_types@V?$tuple@P6AXPEAX0@ZPEAX@std@@@std@@@std@@@2@_K@Z
    ??0?$_Vector_val@U?$_Simple_types@V?$tuple@P6AXPEAX0@ZPEAX@std@@@std@@@std@@QEAA@XZ
    ?_Get_first@?$_Compressed_pair@V?$allocator@V?$tuple@P6AXPEAX0@ZPEAX@std@@@std@@V?$_Vector_val@U?$_Simple_types@V?$tuple@P6AXPEAX0@ZPEAX@std@@@std@@@2@$00@std@@QEAAAEAV?$allocator@V?$tuple@P6AXPEAX0@ZPEAX@std@@@2@XZ
    ?_Get_first@?$_Compressed_pair@V?$allocator@V?$tuple@P6AXPEAX0@ZPEAX@std@@@std@@V?$_Vector_val@U?$_Simple_types@V?$tuple@P6AXPEAX0@ZPEAX@std@@@std@@@2@$00@std@@QEBAAEBV?$allocator@V?$tuple@P6AXPEAX0@ZPEAX@std@@@2@XZ
    ??0?$tuple@PEAX@std@@QEAA@AEBV01@@Z
    ??0?$tuple@PEAX@std@@QEAA@$$QEAV01@@Z
    ?_Get_rest@?$tuple@PEAX@std@@QEAAAEAV?$tuple@$$V@2@XZ
    ??0?$tuple@P6AXPEAX0@ZPEAX@std@@QEAA@AEBV01@@Z
    ??0?$tuple@P6AXPEAX0@ZPEAX@std@@QEAA@$$QEAV01@@Z
    ?_Get_rest@?$tuple@P6AXPEAX0@ZPEAX@std@@QEAAAEAV?$tuple@PEAX@2@XZ
    ??$?0AEBQ6AXPEAX0@Z$$T$0A@@?$tuple@P6AXPEAX0@ZPEAX@std@@QEAA@AEBQ6AXPEAX0@Z$$QEA$$T@Z
    ??0?$_Vector_const_iterator@V?$_Vector_val@U?$_Simple_types@V?$tuple@P6AXPEAX0@ZPEAX@std@@@std@@@std@@@std@@QEAA@PEAV?$tuple@P6AXPEAX0@ZPEAX@1@PEBU_Container_base12@1@@Z
    ?_Verify_range@std@@YAXAEBV?$_Vector_const_iterator@V?$_Vector_val@U?$_Simple_types@V?$tuple@P6AXPEAX0@ZPEAX@std@@@std@@@std@@@1@0@Z
    ?_Unwrapped@?$_Vector_const_iterator@V?$_Vector_val@U?$_Simple_types@V?$tuple@P6AXPEAX0@ZPEAX@std@@@std@@@std@@@std@@QEBAPEBV?$tuple@P6AXPEAX0@ZPEAX@2@XZ
    ??1?$_Vector_const_iterator@V?$_Vector_val@U?$_Simple_types@V?$tuple@P6AXPEAX0@ZPEAX@std@@@std@@@std@@@std@@QEAA@XZ
    ??0?$_Vector_const_iterator@V?$_Vector_val@U?$_Simple_types@V?$tuple@P6AXPEAX0@ZPEAX@std@@@std@@@std@@@std@@QEAA@AEBV01@@Z
    ??0?$_Vector_const_iterator@V?$_Vector_val@U?$_Simple_types@V?$tuple@P6AXPEAX0@ZPEAX@std@@@std@@@std@@@std@@QEAA@$$QEAV01@@Z
    ??1?$_Vector_iterator@V?$_Vector_val@U?$_Simple_types@V?$tuple@P6AXPEAX0@ZPEAX@std@@@std@@@std@@@std@@QEAA@XZ
    ??0?$_Vector_iterator@V?$_Vector_val@U?$_Simple_types@V?$tuple@P6AXPEAX0@ZPEAX@std@@@std@@@std@@@std@@QEAA@PEAV?$tuple@P6AXPEAX0@ZPEAX@1@PEBU_Container_base12@1@@Z
    ??$insert@V?$_Vector_const_iterator@V?$_Vector_val@U?$_Simple_types@V?$tuple@P6AXPEAX0@ZPEAX@std@@@std@@@std@@@std@@$0A@@?$vector@V?$tuple@P6AXPEAX0@ZPEAX@std@@V?$allocator@V?$tuple@P6AXPEAX0@ZPEAX@std@@@2@@std@@QEAA?AV?$_Vector_iterator@V?$_Vector_val@U?$_Simple_types@V?$tuple@P6AXPEAX0@ZPEAX@std@@@std@@@std@@@1@V?$_Vector_const_iterator@V?$_Vector_val@U?$_Simple_types@V?$tuple@P6AXPEAX0@ZPEAX@std@@@std@@@std@@@1@00@Z
    ??0?$allocator@PEAU_GValue@@@std@@QEAA@XZ
    ?deallocate@?$allocator@PEAU_GValue@@@std@@QEAAXQEAPEAU_GValue@@_K@Z
    ?allocate@?$allocator@PEAU_GValue@@@std@@QEAAPEAPEAU_GValue@@_K@Z
    ?max_size@?$_Default_allocator_traits@V?$allocator@PEAU_GValue@@@std@@@std@@SA_KAEBV?$allocator@PEAU_GValue@@@2@@Z
    ??0?$vector@PEAU_GValue@@V?$allocator@PEAU_GValue@@@std@@@std@@QEAA@XZ
    ??1?$vector@PEAU_GValue@@V?$allocator@PEAU_GValue@@@std@@@std@@QEAA@XZ
    ?size@?$vector@PEAU_GValue@@V?$allocator@PEAU_GValue@@@std@@@std@@QEBA_KXZ
    ?max_size@?$vector@PEAU_GValue@@V?$allocator@PEAU_GValue@@@std@@@std@@QEBA_KXZ
    ?capacity@?$vector@PEAU_GValue@@V?$allocator@PEAU_GValue@@@std@@@std@@QEBA_KXZ
    ??A?$vector@PEAU_GValue@@V?$allocator@PEAU_GValue@@@std@@@std@@QEAAAEAPEAU_GValue@@_K@Z
    ?_Calculate_growth@?$vector@PEAU_GValue@@V?$allocator@PEAU_GValue@@@std@@@std@@AEBA_K_K@Z
    ?_Change_array@?$vector@PEAU_GValue@@V?$allocator@PEAU_GValue@@@std@@@std@@AEAAXQEAPEAU_GValue@@_K1@Z
    ?_Tidy@?$vector@PEAU_GValue@@V?$allocator@PEAU_GValue@@@std@@@std@@AEAAXXZ
    ?_Xlength@?$vector@PEAU_GValue@@V?$allocator@PEAU_GValue@@@std@@@std@@CAXXZ
    ?_Orphan_range_unlocked@?$vector@PEAU_GValue@@V?$allocator@PEAU_GValue@@@std@@@std@@AEBAXPEAPEAU_GValue@@0@Z
    ?_Orphan_range_locked@?$vector@PEAU_GValue@@V?$allocator@PEAU_GValue@@@std@@@std@@AEBAXPEAPEAU_GValue@@0@Z
    ?_Orphan_range@?$vector@PEAU_GValue@@V?$allocator@PEAU_GValue@@@std@@@std@@AEBAXPEAPEAU_GValue@@0@Z
    ?_Getal@?$vector@PEAU_GValue@@V?$allocator@PEAU_GValue@@@std@@@std@@AEAAAEAV?$allocator@PEAU_GValue@@@2@XZ
    ?_Getal@?$vector@PEAU_GValue@@V?$allocator@PEAU_GValue@@@std@@@std@@AEBAAEBV?$allocator@PEAU_GValue@@@2@XZ
    ??0?$_Vector_val@U?$_Simple_types@PEAU_GValue@@@std@@@std@@QEAA@XZ
    ?_Get_first@?$_Compressed_pair@V?$allocator@PEAU_GValue@@@std@@V?$_Vector_val@U?$_Simple_types@PEAU_GValue@@@std@@@2@$00@std@@QEAAAEAV?$allocator@PEAU_GValue@@@2@XZ
    ?_Get_first@?$_Compressed_pair@V?$allocator@PEAU_GValue@@@std@@V?$_Vector_val@U?$_Simple_types@PEAU_GValue@@@std@@@2@$00@std@@QEBAAEBV?$allocator@PEAU_GValue@@@2@XZ
    ??$get@$0A@P6AXPEAX0@ZPEAX@std@@YAAEBQ6AXPEAX0@ZAEBV?$tuple@P6AXPEAX0@ZPEAX@0@@Z
    ??$get@$00P6AXPEAX0@ZPEAX@std@@YAAEBQEAXAEBV?$tuple@P6AXPEAX0@ZPEAX@0@@Z
    ??$emplace_back@AEAPEAU_GValue@@@?$vector@PEAU_GValue@@V?$allocator@PEAU_GValue@@@std@@@std@@QEAAXAEAPEAU_GValue@@@Z
    ??$min@_K@std@@YAAEB_KAEB_K0@Z
    ??$forward@AEBQ6AXPEAX0@Z@std@@YAAEBQ6AXPEAX0@ZAEBQ6AX00@Z@Z
    ??$forward@$$T@std@@YA$$QEA$$TAEA$$T@Z
    ??$?0U_Exact_args_t@std@@AEBQ6AXPEAX0@Z$$T$0A@@?$tuple@P6AXPEAX0@ZPEAX@std@@QEAA@U_Exact_args_t@1@AEBQ6AXPEAX1@Z$$QEA$$T@Z
    ??$addressof@V?$_Vector_val@U?$_Simple_types@V?$tuple@P6AXPEAX0@ZPEAX@std@@@std@@@std@@@std@@YAPEAV?$_Vector_val@U?$_Simple_types@V?$tuple@P6AXPEAX0@ZPEAX@std@@@std@@@0@AEAV10@@Z
    ??$_Adl_verify_range@V?$_Vector_const_iterator@V?$_Vector_val@U?$_Simple_types@V?$tuple@P6AXPEAX0@ZPEAX@std@@@std@@@std@@@std@@V12@@std@@YAXAEBV?$_Vector_const_iterator@V?$_Vector_val@U?$_Simple_types@V?$tuple@P6AXPEAX0@ZPEAX@std@@@std@@@std@@@0@0@Z
    ??$_Get_unwrapped@AEAV?$_Vector_const_iterator@V?$_Vector_val@U?$_Simple_types@V?$tuple@P6AXPEAX0@ZPEAX@std@@@std@@@std@@@std@@@std@@YA?A_TAEAV?$_Vector_const_iterator@V?$_Vector_val@U?$_Simple_types@V?$tuple@P6AXPEAX0@ZPEAX@std@@@std@@@std@@@0@@Z
    ??$distance@PEBV?$tuple@P6AXPEAX0@ZPEAX@std@@@std@@YA_JPEBV?$tuple@P6AXPEAX0@ZPEAX@0@0@Z
    ??$_Convert_size@_K_K@std@@YA_K_K@Z
    ??$_Insert_counted_range@PEBV?$tuple@P6AXPEAX0@ZPEAX@std@@@?$vector@V?$tuple@P6AXPEAX0@ZPEAX@std@@V?$allocator@V?$tuple@P6AXPEAX0@ZPEAX@std@@@2@@std@@AEAAXV?$_Vector_const_iterator@V?$_Vector_val@U?$_Simple_types@V?$tuple@P6AXPEAX0@ZPEAX@std@@@std@@@std@@@1@PEBV?$tuple@P6AXPEAX0@ZPEAX@1@_K@Z
    ??$forward@AEAPEAU_GValue@@@std@@YAAEAPEAU_GValue@@AEAPEAU1@@Z
    ??$_Emplace_one_at_back@AEAPEAU_GValue@@@?$vector@PEAU_GValue@@V?$allocator@PEAU_GValue@@@std@@@std@@AEAAAEAPEAU_GValue@@AEAPEAU2@@Z
    ?allocate@?$allocator@U_Container_proxy@std@@@std@@QEAAPEAU_Container_proxy@2@_K@Z
    ??$_Delete_plain_internal@V?$allocator@U_Container_proxy@std@@@std@@@std@@YAXAEAV?$allocator@U_Container_proxy@std@@@0@QEAU_Container_proxy@0@@Z
    ??$_Alloc_proxy@V?$allocator@U_Container_proxy@std@@@std@@@_Container_base12@std@@QEAAX$$QEAV?$allocator@U_Container_proxy@std@@@1@@Z
    ??$?0D@?$allocator@U_Container_proxy@std@@@std@@QEAA@AEBV?$allocator@D@1@@Z
    ??$?0$$V@?$_Compressed_pair@V?$allocator@D@std@@V?$_String_val@U?$_Simple_types@D@std@@@2@$00@std@@QEAA@U_Zero_then_variadic_args_t@1@@Z
    ??$_Construct@$00PEBD@?$basic_string@DU?$char_traits@D@std@@V?$allocator@D@2@@std@@AEAAXQEBD_K@Z
    ??$?0PEAU_GValue@@@?$allocator@U_Container_proxy@std@@@std@@QEAA@AEBV?$allocator@PEAU_GValue@@@1@@Z
    ??$exchange@PEAU_Container_proxy@std@@$$T@std@@YAPEAU_Container_proxy@0@AEAPEAU10@$$QEA$$T@Z
    ??$?0$$V@?$_Compressed_pair@V?$allocator@PEAU_GValue@@@std@@V?$_Vector_val@U?$_Simple_types@PEAU_GValue@@@std@@@2@$00@std@@QEAA@U_Zero_then_variadic_args_t@1@@Z
    ??$addressof@$$CBV?$_Vector_val@U?$_Simple_types@V?$tuple@P6AXPEAX0@ZPEAX@std@@@std@@@std@@@std@@YAPEBV?$_Vector_val@U?$_Simple_types@V?$tuple@P6AXPEAX0@ZPEAX@std@@@std@@@0@AEBV10@@Z
    ??$?0V?$tuple@P6AXPEAX0@ZPEAX@std@@@?$allocator@U_Container_proxy@std@@@std@@QEAA@AEBV?$allocator@V?$tuple@P6AXPEAX0@ZPEAX@std@@@1@@Z
    ??$?0AEBV?$allocator@V?$tuple@P6AXPEAX0@ZPEAX@std@@@std@@$$V@?$_Compressed_pair@V?$allocator@V?$tuple@P6AXPEAX0@ZPEAX@std@@@std@@V?$_Vector_val@U?$_Simple_types@V?$tuple@P6AXPEAX0@ZPEAX@std@@@std@@@2@$00@std@@QEAA@U_One_then_variadic_args_t@1@AEBV?$allocator@V?$tuple@P6AXPEAX0@ZPEAX@std@@@1@@Z
    ??$_Construct_n@AEBV?$tuple@P6AXPEAX0@ZPEAX@std@@@?$vector@V?$tuple@P6AXPEAX0@ZPEAX@std@@V?$allocator@V?$tuple@P6AXPEAX0@ZPEAX@std@@@2@@std@@AEAAX_KAEBV?$tuple@P6AXPEAX0@ZPEAX@1@@Z
    ??$_Unfancy_maybe_null@PEBVInterface_Class@Glib@@@std@@YAPEAPEBVInterface_Class@Glib@@PEAPEBV12@@Z
    ??$?0U_Exact_args_t@std@@$$T$$V$0A@@?$tuple@PEAX@std@@QEAA@U_Exact_args_t@1@$$QEA$$T@Z
    ??$?0AEBQ6AXPEAX0@Z@?$_Tuple_val@P6AXPEAX0@Z@std@@QEAA@AEBQ6AXPEAX0@Z@Z
    ??$_Allocate_at_least_helper@V?$allocator@V?$tuple@P6AXPEAX0@ZPEAX@std@@@std@@@std@@YAPEAV?$tuple@P6AXPEAX0@ZPEAX@0@AEAV?$allocator@V?$tuple@P6AXPEAX0@ZPEAX@std@@@0@AEA_K@Z
    ??1_Reallocation_guard@?$vector@V?$tuple@P6AXPEAX0@ZPEAX@std@@V?$allocator@V?$tuple@P6AXPEAX0@ZPEAX@std@@@2@@std@@QEAA@XZ
    ??$move@AEAPEBV?$tuple@P6AXPEAX0@ZPEAX@std@@@std@@YA$$QEAPEBV?$tuple@P6AXPEAX0@ZPEAX@0@AEAPEBV10@@Z
    ??$_Uninitialized_copy_n@PEBV?$tuple@P6AXPEAX0@ZPEAX@std@@V?$allocator@V?$tuple@P6AXPEAX0@ZPEAX@std@@@2@@std@@YAPEAV?$tuple@P6AXPEAX0@ZPEAX@0@PEBV10@_KPEAV10@AEAV?$allocator@V?$tuple@P6AXPEAX0@ZPEAX@std@@@0@@Z
    ??$_Uninitialized_move@PEAV?$tuple@P6AXPEAX0@ZPEAX@std@@V?$allocator@V?$tuple@P6AXPEAX0@ZPEAX@std@@@2@@std@@YAPEAV?$tuple@P6AXPEAX0@ZPEAX@0@QEAV10@0PEAV10@AEAV?$allocator@V?$tuple@P6AXPEAX0@ZPEAX@std@@@0@@Z
    ??$_Move_backward_unchecked@PEAV?$tuple@P6AXPEAX0@ZPEAX@std@@PEAV12@@std@@YAPEAV?$tuple@P6AXPEAX0@ZPEAX@0@PEAV10@00@Z
    ??$_Destroy_range@V?$allocator@V?$tuple@P6AXPEAX0@ZPEAX@std@@@std@@@std@@YAXPEAV?$tuple@P6AXPEAX0@ZPEAX@0@QEAV10@AEAV?$allocator@V?$tuple@P6AXPEAX0@ZPEAX@std@@@0@@Z
    ??1_Vaporization_guard@?$vector@V?$tuple@P6AXPEAX0@ZPEAX@std@@V?$allocator@V?$tuple@P6AXPEAX0@ZPEAX@std@@@2@@std@@QEAA@XZ
    ??$_Move_unchecked@PEAV?$tuple@P6AXPEAX0@ZPEAX@std@@PEAV12@@std@@YAPEAV?$tuple@P6AXPEAX0@ZPEAX@0@PEAV10@00@Z
    ??$_Emplace_back_with_unused_capacity@AEAPEAU_GValue@@@?$vector@PEAU_GValue@@V?$allocator@PEAU_GValue@@@std@@@std@@AEAAAEAPEAU_GValue@@AEAPEAU2@@Z
    ??$_Emplace_reallocate@AEAPEAU_GValue@@@?$vector@PEAU_GValue@@V?$allocator@PEAU_GValue@@@std@@@std@@AEAAPEAPEAU_GValue@@QEAPEAU2@AEAPEAU2@@Z
    ??$_Deallocate_plain@V?$allocator@U_Container_proxy@std@@@std@@@std@@YAXAEAV?$allocator@U_Container_proxy@std@@@0@QEAU_Container_proxy@0@@Z
    ??0?$_Container_proxy_ptr12@V?$allocator@U_Container_proxy@std@@@std@@@std@@QEAA@AEAV?$allocator@U_Container_proxy@std@@@1@AEAU_Container_base12@1@@Z
    ??1?$_Container_proxy_ptr12@V?$allocator@U_Container_proxy@std@@@std@@@std@@QEAA@XZ
    ??$_Unfancy@U_Container_proxy@std@@@std@@YAPEAU_Container_proxy@0@PEAU10@@Z
    ??$_Construct_in_place@U_Container_proxy@std@@PEAU_Container_base12@2@@std@@YAXAEAU_Container_proxy@0@$$QEAPEAU_Container_base12@0@@Z
    ??$_Allocate_for_capacity@$0A@@?$basic_string@DU?$char_traits@D@std@@V?$allocator@D@2@@std@@CAPEADAEAV?$allocator@D@1@AEA_K@Z
    ??$_Construct_in_place@PEADAEBQEAD@std@@YAXAEAPEADAEBQEAD@Z
    ??$_Unfancy@D@std@@YAPEADPEAD@Z
    ??$forward@AEBV?$allocator@V?$tuple@P6AXPEAX0@ZPEAX@std@@@std@@@std@@YAAEBV?$allocator@V?$tuple@P6AXPEAX0@ZPEAX@std@@@0@AEBV10@@Z
    ??1?$_Tidy_guard@V?$vector@V?$tuple@P6AXPEAX0@ZPEAX@std@@V?$allocator@V?$tuple@P6AXPEAX0@ZPEAX@std@@@2@@std@@@std@@QEAA@XZ
    ??$_Uninitialized_fill_n@V?$allocator@V?$tuple@P6AXPEAX0@ZPEAX@std@@@std@@@std@@YAPEAV?$tuple@P6AXPEAX0@ZPEAX@0@PEAV10@_KAEBV10@AEAV?$allocator@V?$tuple@P6AXPEAX0@ZPEAX@std@@@0@@Z
    ??$_Unfancy_maybe_null@V?$tuple@P6AXPEAX0@ZPEAX@std@@@std@@YAPEAV?$tuple@P6AXPEAX0@ZPEAX@0@PEAV10@@Z
    ??$max@_K@std@@YAAEB_KAEB_K0@Z
    ??$_Deallocate@$0BA@@std@@YAXPEAX_K@Z
    ??$_Destroy_range@V?$allocator@PEAU_GValue@@@std@@@std@@YAXPEAPEAU_GValue@@QEAPEAU1@AEAV?$allocator@PEAU_GValue@@@0@@Z
    ??$?0U_Exact_args_t@std@@$0A@@?$tuple@$$V@std@@QEAA@U_Exact_args_t@1@@Z
    ??$?0$$T@?$_Tuple_val@PEAX@std@@QEAA@$$QEA$$T@Z
    ??$_Get_unwrapped@PEBV?$tuple@P6AXPEAX0@ZPEAX@std@@@std@@YA?A_T$$QEAPEBV?$tuple@P6AXPEAX0@ZPEAX@0@@Z
    ??$?4V?$tuple@P6AXPEAX0@ZPEAX@std@@P6AXPEAX0@Z$0A@@?$tuple@P6AXPEAX0@ZPEAX@std@@QEAAAEAV01@$$QEAV01@@Z
    ??0?$_Uninitialized_backout_al@V?$allocator@V?$tuple@P6AXPEAX0@ZPEAX@std@@@std@@@std@@QEAA@PEAV?$tuple@P6AXPEAX0@ZPEAX@1@AEAV?$allocator@V?$tuple@P6AXPEAX0@ZPEAX@std@@@1@@Z
    ??1?$_Uninitialized_backout_al@V?$allocator@V?$tuple@P6AXPEAX0@ZPEAX@std@@@std@@@std@@QEAA@XZ
    ?_Release@?$_Uninitialized_backout_al@V?$allocator@V?$tuple@P6AXPEAX0@ZPEAX@std@@@std@@@std@@QEAAPEAV?$tuple@P6AXPEAX0@ZPEAX@2@XZ
    ??$_Emplace_back@AEBV?$tuple@P6AXPEAX0@ZPEAX@std@@@?$_Uninitialized_backout_al@V?$allocator@V?$tuple@P6AXPEAX0@ZPEAX@std@@@std@@@std@@QEAAXAEBV?$tuple@P6AXPEAX0@ZPEAX@1@@Z
    ??$_Get_unwrapped@AEBQEAV?$tuple@P6AXPEAX0@ZPEAX@std@@@std@@YA?A_TAEBQEAV?$tuple@P6AXPEAX0@ZPEAX@0@@Z
    ??$move@AEAV?$tuple@P6AXPEAX0@ZPEAX@std@@@std@@YA$$QEAV?$tuple@P6AXPEAX0@ZPEAX@0@AEAV10@@Z
    ??$_Emplace_back@V?$tuple@P6AXPEAX0@ZPEAX@std@@@?$_Uninitialized_backout_al@V?$allocator@V?$tuple@P6AXPEAX0@ZPEAX@std@@@std@@@std@@QEAAX$$QEAV?$tuple@P6AXPEAX0@ZPEAX@1@@Z
    ??$_Construct_in_place@PEAU_GValue@@AEAPEAU1@@std@@YAXAEAPEAU_GValue@@0@Z
    ??$_Allocate_at_least_helper@V?$allocator@PEAU_GValue@@@std@@@std@@YAPEAPEAU_GValue@@AEAV?$allocator@PEAU_GValue@@@0@AEA_K@Z
    ??1_Reallocation_guard@?$vector@PEAU_GValue@@V?$allocator@PEAU_GValue@@@std@@@std@@QEAA@XZ
    ??$_Unfancy@PEAU_GValue@@@std@@YAPEAPEAU_GValue@@PEAPEAU1@@Z
    ??$construct@PEAU_GValue@@AEAPEAU1@@?$_Default_allocator_traits@V?$allocator@PEAU_GValue@@@std@@@std@@SAXAEAV?$allocator@PEAU_GValue@@@1@QEAPEAU_GValue@@AEAPEAU3@@Z
    ??$_Uninitialized_move@PEAPEAU_GValue@@V?$allocator@PEAU_GValue@@@std@@@std@@YAPEAPEAU_GValue@@QEAPEAU1@0PEAPEAU1@AEAV?$allocator@PEAU_GValue@@@0@@Z
    ?deallocate@?$_Default_allocator_traits@V?$allocator@U_Container_proxy@std@@@std@@@std@@SAXAEAV?$allocator@U_Container_proxy@std@@@2@QEAU_Container_proxy@2@_K@Z
    ??$addressof@U_Container_proxy@std@@@std@@YAPEAU_Container_proxy@0@AEAU10@@Z
    ??$forward@PEAU_Container_base12@std@@@std@@YA$$QEAPEAU_Container_base12@0@AEAPEAU10@@Z
    ??$_Allocate_at_least_helper@V?$allocator@D@std@@@std@@YAPEADAEAV?$allocator@D@0@AEA_K@Z
    ??$addressof@PEAD@std@@YAPEAPEADAEAPEAD@Z
    ??$forward@AEBQEAD@std@@YAAEBQEADAEBQEAD@Z
    ??$addressof@U_Container_base12@std@@@std@@YAPEAU_Container_base12@0@AEAU10@@Z
    ??$_Get_size_of_n@$0BA@@std@@YA_K_K@Z
    ??$_Allocate@$0BA@U_Default_allocate_traits@std@@@std@@YAPEAX_K@Z
    ??$_Destroy_in_place@PEAD@std@@YAXAEAPEAD@Z
    ??$_Max_limit@_J@std@@YA_JXZ
    ??$forward@P6AXPEAX0@Z@std@@YA$$QEAP6AXPEAX0@ZAEAP6AX00@Z@Z
    ??$forward@V?$tuple@PEAX@std@@@std@@YA$$QEAV?$tuple@PEAX@0@AEAV10@@Z
    ??$?4V?$tuple@PEAX@std@@PEAX$0A@@?$tuple@PEAX@std@@QEAAAEAV01@$$QEAV01@@Z
    ??$_Unfancy@V?$tuple@P6AXPEAX0@ZPEAX@std@@@std@@YAPEAV?$tuple@P6AXPEAX0@ZPEAX@0@PEAV10@@Z
    ??$forward@AEBV?$tuple@P6AXPEAX0@ZPEAX@std@@@std@@YAAEBV?$tuple@P6AXPEAX0@ZPEAX@0@AEBV10@@Z
    ??$construct@V?$tuple@P6AXPEAX0@ZPEAX@std@@AEBV12@@?$_Default_allocator_traits@V?$allocator@V?$tuple@P6AXPEAX0@ZPEAX@std@@@std@@@std@@SAXAEAV?$allocator@V?$tuple@P6AXPEAX0@ZPEAX@std@@@1@QEAV?$tuple@P6AXPEAX0@ZPEAX@1@AEBV31@@Z
    ??$forward@V?$tuple@P6AXPEAX0@ZPEAX@std@@@std@@YA$$QEAV?$tuple@P6AXPEAX0@ZPEAX@0@AEAV10@@Z
    ??$construct@V?$tuple@P6AXPEAX0@ZPEAX@std@@V12@@?$_Default_allocator_traits@V?$allocator@V?$tuple@P6AXPEAX0@ZPEAX@std@@@std@@@std@@SAXAEAV?$allocator@V?$tuple@P6AXPEAX0@ZPEAX@std@@@1@QEAV?$tuple@P6AXPEAX0@ZPEAX@1@$$QEAV31@@Z
    ??$addressof@PEAU_GValue@@@std@@YAPEAPEAU_GValue@@AEAPEAU1@@Z
    ??$_Get_unwrapped@AEBQEAPEAU_GValue@@@std@@YA?A_TAEBQEAPEAU_GValue@@@Z
    ??$move@AEAPEAU_GValue@@@std@@YA$$QEAPEAU_GValue@@AEAPEAU1@@Z
    ??$_Copy_memmove@PEAPEAU_GValue@@PEAPEAU1@@std@@YAPEAPEAU_GValue@@PEAPEAU1@00@Z
    ??0?$_Uninitialized_backout_al@V?$allocator@PEAU_GValue@@@std@@@std@@QEAA@PEAPEAU_GValue@@AEAV?$allocator@PEAU_GValue@@@1@@Z
    ??1?$_Uninitialized_backout_al@V?$allocator@PEAU_GValue@@@std@@@std@@QEAA@XZ
    ?_Release@?$_Uninitialized_backout_al@V?$allocator@PEAU_GValue@@@std@@@std@@QEAAPEAPEAU_GValue@@XZ
    ??$_Emplace_back@PEAU_GValue@@@?$_Uninitialized_backout_al@V?$allocator@PEAU_GValue@@@std@@@std@@QEAAX$$QEAPEAU_GValue@@@Z
    ??$_Allocate_manually_vector_aligned@U_Default_allocate_traits@std@@@std@@YAPEAX_K@Z
    ??$forward@PEAX@std@@YA$$QEAPEAXAEAPEAX@Z
    ??$forward@V?$tuple@$$V@std@@@std@@YA$$QEAV?$tuple@$$V@0@AEAV10@@Z
    ??$_To_address@PEAPEAU_GValue@@@std@@YA?A_PAEBQEAPEAU_GValue@@@Z
    ??$move@AEAPEAPEAU_GValue@@@std@@YA$$QEAPEAPEAU_GValue@@AEAPEAPEAU1@@Z
    ??$_Copy_memmove_tail@PEAPEAU_GValue@@@std@@YAPEAPEAU_GValue@@QEBDQEAPEAU1@_K2@Z
    ??$forward@PEAU_GValue@@@std@@YA$$QEAPEAU_GValue@@AEAPEAU1@@Z
    ??$construct@PEAU_GValue@@PEAU1@@?$_Default_allocator_traits@V?$allocator@PEAU_GValue@@@std@@@std@@SAXAEAV?$allocator@PEAU_GValue@@@1@QEAPEAU_GValue@@$$QEAPEAU3@@Z
    ??$_Get_size_of_n@$00@std@@YA_K_K@Z
    ??$_Get_size_of_n@$07@std@@YA_K_K@Z
    ??_7exception@std@@6B@
    ??_C@_0BC@EOODALEL@Unknown?5exception@
    ??_7bad_alloc@std@@6B@
    ??_7bad_array_new_length@std@@6B@
    ??_C@_0BF@KINCDENJ@bad?5array?5new?5length@
    ??_R0?AVexception@std@@@8
    _CT??_R0?AVexception@std@@@8??0exception@std@@QEAA@AEBV01@@Z24
    _TI3?AVbad_array_new_length@std@@
    _CTA3?AVbad_array_new_length@std@@
    ??_R0?AVbad_array_new_length@std@@@8
    _CT??_R0?AVbad_array_new_length@std@@@8??0bad_array_new_length@std@@QEAA@AEBV01@@Z24
    ??_R0?AVbad_alloc@std@@@8
    _CT??_R0?AVbad_alloc@std@@@8??0bad_alloc@std@@QEAA@AEBV01@@Z24
    ??_C@_0BB@FCMFBGOM@invalid?5argument@
    ??_C@_02DKCKIIND@?$CFs@
    ??_C@_0GC@KLECFGLI@C?3?2Program?5Files?2Microsoft?5Visu@
    ??_C@_0BJ@LFDBABJJ@ITERATOR?5LIST?5CORRUPTED?$CB@
    ?iface_properties_quark@Class@Glib@@2IA
    ??_C@_0BA@JFNIOLAK@string?5too?5long@
    ??_C@_0CF@NNBLLPGF@vector?5insert?5iterator?5outside?5@
    ??_C@_0GB@KEIPDMDC@C?3?2Program?5Files?2Microsoft?5Visu@
    ??_C@_0BO@PFKOHNJC@vector?5subscript?5out?5of?5range@
    ??_C@_0DG@KGHKKGBC@null?5pointer?5cannot?5point?5to?5a?5@
    ??_C@_0DI@PBEELKIF@vector?5iterators?5in?5range?5are?5f@
    ??_C@_0CB@LIAHLBAO@vector?5iterator?5range?5transpose@
    ??_C@_0BA@FOIKENOD@vector?5too?5long@
    ??_R4exception@std@@6B@
    ??_R3exception@std@@8
    ??_R2exception@std@@8
    ??_R1A@?0A@EA@exception@std@@8
    ??_R4bad_array_new_length@std@@6B@
    ??_R3bad_array_new_length@std@@8
    ??_R2bad_array_new_length@std@@8
    ??_R1A@?0A@EA@bad_array_new_length@std@@8
    ??_R1A@?0A@EA@bad_alloc@std@@8
    ??_R3bad_alloc@std@@8
    ??_R2bad_alloc@std@@8
    ??_R4bad_alloc@std@@6B@
    ?glibmm_null_pointer@Glib@@3PEAXEA
    ?__empty_global_delete@@YAXPEAX@Z
    ?__empty_global_delete@@YAXPEAX_K@Z
    ?__empty_global_delete@@YAXPEAX@Z
    ?__empty_global_delete@@YAXPEAX_K@Z
    ??2@YAPEAX_KPEAX@Z
    ??0exception@std@@QEAA@QEBDH@Z
    ??0exception@std@@QEAA@AEBV01@@Z
    ??1exception@std@@UEAA@XZ
    ?what@exception@std@@UEBAPEBDXZ
    ??0bad_alloc@std@@AEAA@QEBD@Z
    ??1bad_alloc@std@@UEAA@XZ
    ??0bad_alloc@std@@QEAA@AEBV01@@Z
    ??0bad_array_new_length@std@@QEAA@XZ
    ??1bad_array_new_length@std@@UEAA@XZ
    ??0bad_array_new_length@std@@QEAA@AEBV01@@Z
    ?copy@?$_Char_traits@DH@std@@SAPEADQEADQEBD_K@Z
    ?move@?$_Char_traits@DH@std@@SAPEADQEADQEBD_K@Z
    ?length@?$_Narrow_char_traits@DH@std@@SA_KQEBD@Z
    ?assign@?$_Narrow_char_traits@DH@std@@SAXAEADAEBD@Z
    ?_Throw_bad_array_new_length@std@@YAXXZ
    ?_Allocate@_Default_allocate_traits@std@@SAPEAX_K@Z
    ?_Adjust_manually_vector_aligned@std@@YAXAEAPEAXAEA_K@Z
    ??0_Container_proxy@std@@QEAA@PEAU_Container_base12@1@@Z
    ??0_Container_base12@std@@QEAA@XZ
    ?_Orphan_all@_Container_base12@std@@QEAAXXZ
    ?_Swap_proxy_and_iterators@_Container_base12@std@@QEAAXAEAU12@@Z
    ?_Orphan_all_unlocked_v3@_Container_base12@std@@AEAAXXZ
    ?_Swap_proxy_and_iterators_unlocked@_Container_base12@std@@AEAAXAEAU12@@Z
    ?_Orphan_all_locked_v3@_Container_base12@std@@AEAAXXZ
    ?_Swap_proxy_and_iterators_locked@_Container_base12@std@@AEAAXAEAU12@@Z
    ??$exchange@PEAU_Iterator_base12@std@@$$T@std@@YAPEAU_Iterator_base12@0@AEAPEAU10@$$QEA$$T@Z
    ?_Release@_Basic_container_proxy_ptr12@std@@QEAAXXZ
    ??0_Basic_container_proxy_ptr12@std@@IEAA@XZ
    ?_Xlen_string@std@@YAXXZ
    ??0?$allocator@D@std@@QEAA@XZ
    ?deallocate@?$allocator@D@std@@QEAAXQEAD_K@Z
    ?allocate@?$allocator@D@std@@QEAAPEAD_K@Z
    ?max_size@?$_Default_allocator_traits@V?$allocator@D@std@@@std@@SA_KAEBV?$allocator@D@2@@Z
    ??0?$_String_val@U?$_Simple_types@D@std@@@std@@QEAA@XZ
    ?_Myptr@?$_String_val@U?$_Simple_types@D@std@@@std@@QEAAPEADXZ
    ?_Myptr@?$_String_val@U?$_Simple_types@D@std@@@std@@QEBAPEBDXZ
    ?_Large_mode_engaged@?$_String_val@U?$_Simple_types@D@std@@@std@@QEBA_NXZ
    ?_Activate_SSO_buffer@?$_String_val@U?$_Simple_types@D@std@@@std@@QEAAXXZ
    ??0_Bxty@?$_String_val@U?$_Simple_types@D@std@@@std@@QEAA@XZ
    ??1_Bxty@?$_String_val@U?$_Simple_types@D@std@@@std@@QEAA@XZ
    ?_Switch_to_buf@_Bxty@?$_String_val@U?$_Simple_types@D@std@@@std@@QEAAXXZ
    ??1?$_String_val@U?$_Simple_types@D@std@@@std@@QEAA@XZ
    ??0?$basic_string@DU?$char_traits@D@std@@V?$allocator@D@2@@std@@QEAA@QEBD_K@Z
    ??0?$basic_string@DU?$char_traits@D@std@@V?$allocator@D@2@@std@@QEAA@QEBD@Z
    ?_Deallocate_for_capacity@?$basic_string@DU?$char_traits@D@std@@V?$allocator@D@2@@std@@CAXAEAV?$allocator@D@2@QEAD_K@Z
    ?_Construct_empty@?$basic_string@DU?$char_traits@D@std@@V?$allocator@D@2@@std@@AEAAXXZ
    ??0?$basic_string@DU?$char_traits@D@std@@V?$allocator@D@2@@std@@QEAA@$$QEAV01@@Z
    ?_Take_contents@?$basic_string@DU?$char_traits@D@std@@V?$allocator@D@2@@std@@AEAAXAEAV12@@Z
    ??1?$basic_string@DU?$char_traits@D@std@@V?$allocator@D@2@@std@@QEAA@XZ
    ??4?$basic_string@DU?$char_traits@D@std@@V?$allocator@D@2@@std@@QEAAAEAV01@QEBD@Z
    ?assign@?$basic_string@DU?$char_traits@D@std@@V?$allocator@D@2@@std@@QEAAAEAV12@QEBD_K@Z
    ?assign@?$basic_string@DU?$char_traits@D@std@@V?$allocator@D@2@@std@@QEAAAEAV12@QEBD@Z
    ?c_str@?$basic_string@DU?$char_traits@D@std@@V?$allocator@D@2@@std@@QEBAPEBDXZ
    ?data@?$basic_string@DU?$char_traits@D@std@@V?$allocator@D@2@@std@@QEBAPEBDXZ
    ?size@?$basic_string@DU?$char_traits@D@std@@V?$allocator@D@2@@std@@QEBA_KXZ
    ?max_size@?$basic_string@DU?$char_traits@D@std@@V?$allocator@D@2@@std@@QEBA_KXZ
    ?_Calculate_growth@?$basic_string@DU?$char_traits@D@std@@V?$allocator@D@2@@std@@CA_K_K00@Z
    ?_Calculate_growth@?$basic_string@DU?$char_traits@D@std@@V?$allocator@D@2@@std@@AEBA_K_K@Z
    ?_Tidy_deallocate@?$basic_string@DU?$char_traits@D@std@@V?$allocator@D@2@@std@@AEAAXXZ
    ?_Swap_proxy_and_iterators@?$basic_string@DU?$char_traits@D@std@@V?$allocator@D@2@@std@@AEAAXAEAV12@@Z
    ?_Getal@?$basic_string@DU?$char_traits@D@std@@V?$allocator@D@2@@std@@AEAAAEAV?$allocator@D@2@XZ
    ?_Getal@?$basic_string@DU?$char_traits@D@std@@V?$allocator@D@2@@std@@AEBAAEBV?$allocator@D@2@XZ
    ?_Get_first@?$_Compressed_pair@V?$allocator@D@std@@V?$_String_val@U?$_Simple_types@D@std@@@2@$00@std@@QEAAAEAV?$allocator@D@2@XZ
    ?_Get_first@?$_Compressed_pair@V?$allocator@D@std@@V?$_String_val@U?$_Simple_types@D@std@@@2@$00@std@@QEBAAEBV?$allocator@D@2@XZ
    ??1?$_Compressed_pair@V?$allocator@D@std@@V?$_String_val@U?$_Simple_types@D@std@@@2@$00@std@@QEAA@XZ
    ??$_Adl_verify_range@PEADPEAD@std@@YAXAEBQEAD0@Z
    ??0Exception@Glib@@QEAA@AEBV01@@Z
    ??$make_unique_ptr_gfree@D@Glib@@YA?AV?$unique_ptr@$$BY0A@DP6AXPEAX@Z@std@@PEAD@Z
    ??1?$unique_ptr@$$BY0A@DP6AXPEAX@Z@std@@QEAA@XZ
    ?get_deleter@?$unique_ptr@$$BY0A@DP6AXPEAX@Z@std@@QEAAAEAP6AXPEAX@ZXZ
    ?get@?$unique_ptr@$$BY0A@DP6AXPEAX@Z@std@@QEBAPEADXZ
    ?release@?$unique_ptr@$$BY0A@DP6AXPEAX@Z@std@@QEAAPEADXZ
    ?_Get_first@?$_Compressed_pair@P6AXPEAX@ZPEAD$0A@@std@@QEAAAEAP6AXPEAX@ZXZ
    ??0ConvertError@Glib@@QEAA@W4Code@01@AEBVustring@1@@Z
    ??0ConvertError@Glib@@QEAA@PEAU_GError@@@Z
    ?code@ConvertError@Glib@@QEBA?AW4Code@12@XZ
    ?throw_func@ConvertError@Glib@@CAXPEAU_GError@@@Z
    ??1ConvertError@Glib@@UEAA@XZ
    ??0ConvertError@Glib@@QEAA@AEBV01@@Z
    ??0IConv@Glib@@QEAA@AEBV?$basic_string@DU?$char_traits@D@std@@V?$allocator@D@2@@std@@0@Z
    ??0IConv@Glib@@QEAA@PEAU_GIConv@@@Z
    ??1IConv@Glib@@QEAA@XZ
    ?iconv@IConv@Glib@@QEAA_KPEAPEADPEA_K01@Z
    ?reset@IConv@Glib@@QEAAXXZ
    ?convert@IConv@Glib@@QEAA?AV?$basic_string@DU?$char_traits@D@std@@V?$allocator@D@2@@std@@AEBV34@@Z
    ?get_charset@Glib@@YA_NXZ
    ?get_charset@Glib@@YA_NAEAV?$basic_string@DU?$char_traits@D@std@@V?$allocator@D@2@@std@@@Z
    ?convert@Glib@@YA?AV?$basic_string@DU?$char_traits@D@std@@V?$allocator@D@2@@std@@AEBV23@00@Z
    ?convert_with_fallback@Glib@@YA?AV?$basic_string@DU?$char_traits@D@std@@V?$allocator@D@2@@std@@AEBV23@00@Z
    ?convert_with_fallback@Glib@@YA?AV?$basic_string@DU?$char_traits@D@std@@V?$allocator@D@2@@std@@AEBV23@00AEBVustring@1@@Z
    ?locale_to_utf8@Glib@@YA?AVustring@1@AEBV?$basic_string@DU?$char_traits@D@std@@V?$allocator@D@2@@std@@@Z
    ?locale_from_utf8@Glib@@YA?AV?$basic_string@DU?$char_traits@D@std@@V?$allocator@D@2@@std@@AEBVustring@1@@Z
    ?filename_to_utf8@Glib@@YA?AVustring@1@AEBV?$basic_string@DU?$char_traits@D@std@@V?$allocator@D@2@@std@@@Z
    ?filename_from_utf8@Glib@@YA?AV?$basic_string@DU?$char_traits@D@std@@V?$allocator@D@2@@std@@AEBVustring@1@@Z
    ?filename_from_uri@Glib@@YA?AV?$basic_string@DU?$char_traits@D@std@@V?$allocator@D@2@@std@@AEBVustring@1@AEAV41@@Z
    ?filename_from_uri@Glib@@YA?AV?$basic_string@DU?$char_traits@D@std@@V?$allocator@D@2@@std@@AEBVustring@1@@Z
    ?filename_to_uri@Glib@@YA?AVustring@1@AEBV?$basic_string@DU?$char_traits@D@std@@V?$allocator@D@2@@std@@AEBV21@@Z
    ?filename_to_uri@Glib@@YA?AVustring@1@AEBV?$basic_string@DU?$char_traits@D@std@@V?$allocator@D@2@@std@@@Z
    ?filename_display_basename@Glib@@YA?AVustring@1@AEBV?$basic_string@DU?$char_traits@D@std@@V?$allocator@D@2@@std@@@Z
    ?filename_display_name@Glib@@YA?AVustring@1@AEBV?$basic_string@DU?$char_traits@D@std@@V?$allocator@D@2@@std@@@Z
    ??$?0P6AXPEAX@Z$0A@@?$unique_ptr@$$BY0A@DP6AXPEAX@Z@std@@QEAA@$$QEAV01@@Z
    ??$?0PEAD@ustring@Glib@@QEAA@PEAD0@Z
    ??$min@_K@std@@YAAEB_KAEB_K0@Z
    ??$?0PEAD$0A@@?$basic_string@DU?$char_traits@D@std@@V?$allocator@D@2@@std@@QEAA@PEAD0AEBV?$allocator@D@1@@Z
    ??$?0PEADP6AXPEAX@Z$0A@$0A@@?$unique_ptr@$$BY0A@DP6AXPEAX@Z@std@@QEAA@PEAD$$QEAP6AXPEAX@Z@Z
    ??$forward@P6AXPEAX@Z@std@@YA$$QEAP6AXPEAX@ZAEAP6AX0@Z@Z
    ??$?0P6AXPEAX@ZPEAD@?$_Compressed_pair@P6AXPEAX@ZPEAD$0A@@std@@QEAA@U_One_then_variadic_args_t@1@$$QEAP6AXPEAX@Z$$QEAPEAD@Z
    ??0?$SequenceToString@PEADD@ustring@Glib@@QEAA@PEAD0@Z
    ??1?$SequenceToString@PEADD@ustring@Glib@@QEAA@XZ
    ?allocate@?$allocator@U_Container_proxy@std@@@std@@QEAAPEAU_Container_proxy@2@_K@Z
    ??$_Delete_plain_internal@V?$allocator@U_Container_proxy@std@@@std@@@std@@YAXAEAV?$allocator@U_Container_proxy@std@@@0@QEAU_Container_proxy@0@@Z
    ??$_Alloc_proxy@V?$allocator@U_Container_proxy@std@@@std@@@_Container_base12@std@@QEAAX$$QEAV?$allocator@U_Container_proxy@std@@@1@@Z
    ??$_Convert_size@_K_K@std@@YA_K_K@Z
    ??$?0D@?$allocator@U_Container_proxy@std@@@std@@QEAA@AEBV?$allocator@D@1@@Z
    ??$move@AEAV?$allocator@D@std@@@std@@YA$$QEAV?$allocator@D@0@AEAV10@@Z
    ??$?0V?$allocator@D@std@@$$V@?$_Compressed_pair@V?$allocator@D@std@@V?$_String_val@U?$_Simple_types@D@std@@@2@$00@std@@QEAA@U_One_then_variadic_args_t@1@$$QEAV?$allocator@D@1@@Z
    ??$?0$$V@?$_Compressed_pair@V?$allocator@D@std@@V?$_String_val@U?$_Simple_types@D@std@@@2@$00@std@@QEAA@U_Zero_then_variadic_args_t@1@@Z
    ??$_Construct@$00PEBD@?$basic_string@DU?$char_traits@D@std@@V?$allocator@D@2@@std@@AEAAXQEBD_K@Z
    ??$?0AEBV?$allocator@D@std@@$$V@?$_Compressed_pair@V?$allocator@D@std@@V?$_String_val@U?$_Simple_types@D@std@@@2@$00@std@@QEAA@U_One_then_variadic_args_t@1@AEBV?$allocator@D@1@@Z
    ??$_Get_unwrapped@AEAPEAD@std@@YA?A_TAEAPEAD@Z
    ??$_Construct@$00PEAD@?$basic_string@DU?$char_traits@D@std@@V?$allocator@D@2@@std@@AEAAXQEAD_K@Z
    ??$move@AEAP6AXPEAX@Z@std@@YA$$QEAP6AXPEAX@ZAEAP6AX0@Z@Z
    ??$?0P6AXPEAX@ZAEAPEAD@?$_Compressed_pair@P6AXPEAX@ZPEAD$0A@@std@@QEAA@U_One_then_variadic_args_t@1@$$QEAP6AXPEAX@ZAEAPEAD@Z
    ??$forward@PEAD@std@@YA$$QEAPEADAEAPEAD@Z
    ??$_Deallocate_plain@V?$allocator@U_Container_proxy@std@@@std@@@std@@YAXAEAV?$allocator@U_Container_proxy@std@@@0@QEAU_Container_proxy@0@@Z
    ??0?$_Container_proxy_ptr12@V?$allocator@U_Container_proxy@std@@@std@@@std@@QEAA@AEAV?$allocator@U_Container_proxy@std@@@1@AEAU_Container_base12@1@@Z
    ??1?$_Container_proxy_ptr12@V?$allocator@U_Container_proxy@std@@@std@@@std@@QEAA@XZ
    ??$_Unfancy@U_Container_proxy@std@@@std@@YAPEAU_Container_proxy@0@PEAU10@@Z
    ??$_Construct_in_place@U_Container_proxy@std@@PEAU_Container_base12@2@@std@@YAXAEAU_Container_proxy@0@$$QEAPEAU_Container_base12@0@@Z
    ??$forward@V?$allocator@D@std@@@std@@YA$$QEAV?$allocator@D@0@AEAV10@@Z
    ??$_Allocate_for_capacity@$0A@@?$basic_string@DU?$char_traits@D@std@@V?$allocator@D@2@@std@@CAPEADAEAV?$allocator@D@1@AEA_K@Z
    ??$_Construct_in_place@PEADAEBQEAD@std@@YAXAEAPEADAEBQEAD@Z
    ??$_Unfancy@D@std@@YAPEADPEAD@Z
    ??$exchange@PEAD$$T@std@@YAPEADAEAPEAD$$QEA$$T@Z
    ??$addressof@V?$_String_val@U?$_Simple_types@D@std@@@std@@@std@@YAPEAV?$_String_val@U?$_Simple_types@D@std@@@0@AEAV10@@Z
    ??$_Construct_in_place@PEADAEAPEAD@std@@YAXAEAPEAD0@Z
    ??$max@_K@std@@YAAEB_KAEB_K0@Z
    ??$_Deallocate@$0BA@@std@@YAXPEAX_K@Z
    ??$forward@AEBV?$allocator@D@std@@@std@@YAAEBV?$allocator@D@0@AEBV10@@Z
    ??$forward@AEAPEAD@std@@YAAEAPEADAEAPEAD@Z
    ?deallocate@?$_Default_allocator_traits@V?$allocator@U_Container_proxy@std@@@std@@@std@@SAXAEAV?$allocator@U_Container_proxy@std@@@2@QEAU_Container_proxy@2@_K@Z
    ??$addressof@U_Container_proxy@std@@@std@@YAPEAU_Container_proxy@0@AEAU10@@Z
    ??$forward@PEAU_Container_base12@std@@@std@@YA$$QEAPEAU_Container_base12@0@AEAPEAU10@@Z
    ??$_Allocate_at_least_helper@V?$allocator@D@std@@@std@@YAPEADAEAV?$allocator@D@0@AEA_K@Z
    ??$addressof@PEAD@std@@YAPEAPEADAEAPEAD@Z
    ??$forward@AEBQEAD@std@@YAAEBQEADAEBQEAD@Z
    ??$addressof@U_Container_base12@std@@@std@@YAPEAU_Container_base12@0@AEAU10@@Z
    ??$_Get_size_of_n@$0BA@@std@@YA_K_K@Z
    ??$_Allocate@$0BA@U_Default_allocate_traits@std@@@std@@YAPEAX_K@Z
    ??$_Destroy_in_place@PEAD@std@@YAXAEAPEAD@Z
    ??$_Max_limit@_J@std@@YA_JXZ
    ??R<lambda_66f57f934f28d61049862f64df852ff0>@@QEBA@QEAD_KQEBD@Z
    ??$_Reallocate_for@V<lambda_66f57f934f28d61049862f64df852ff0>@@PEBD@?$basic_string@DU?$char_traits@D@std@@V?$allocator@D@2@@std@@AEAAAEAV01@_KV<lambda_66f57f934f28d61049862f64df852ff0>@@PEBD@Z
    ??$_Allocate_manually_vector_aligned@U_Default_allocate_traits@std@@@std@@YAPEAX_K@Z
    ??$_Get_size_of_n@$00@std@@YA_K_K@Z
    ??_7exception@std@@6B@
    ??_C@_0BC@EOODALEL@Unknown?5exception@
    ??_7bad_alloc@std@@6B@
    ??_7bad_array_new_length@std@@6B@
    ??_C@_0BF@KINCDENJ@bad?5array?5new?5length@
    ??_R0?AVexception@std@@@8
    _CT??_R0?AVexception@std@@@8??0exception@std@@QEAA@AEBV01@@Z24
    _TI3?AVbad_array_new_length@std@@
    _CTA3?AVbad_array_new_length@std@@
    ??_R0?AVbad_array_new_length@std@@@8
    _CT??_R0?AVbad_array_new_length@std@@@8??0bad_array_new_length@std@@QEAA@AEBV01@@Z24
    ??_R0?AVbad_alloc@std@@@8
    _CT??_R0?AVbad_alloc@std@@@8??0bad_alloc@std@@QEAA@AEBV01@@Z24
    ??_C@_0BB@FCMFBGOM@invalid?5argument@
    ??_C@_02DKCKIIND@?$CFs@
    ??_C@_0GC@KLECFGLI@C?3?2Program?5Files?2Microsoft?5Visu@
    ??_C@_0BA@JFNIOLAK@string?5too?5long@
    ??_7Exception@Glib@@6B@
    ??_7ConvertError@Glib@@6B@
    _TI3?AVConvertError@Glib@@
    _CTA3?AVConvertError@Glib@@
    ??_R0?AVConvertError@Glib@@@8
    _CT??_R0?AVConvertError@Glib@@@8??0ConvertError@Glib@@QEAA@AEBV01@@Z16
    ??_R0?AVError@Glib@@@8
    _CT??_R0?AVError@Glib@@@8??0Error@Glib@@QEAA@AEBV01@@Z16
    ??_R0?AVException@Glib@@@8
    _CT??_R0?AVException@Glib@@@8??0Exception@Glib@@QEAA@AEBV01@@Z8
    ??_C@_0BJ@HAJGEHKO@transposed?5pointer?5range@
    ??_C@_0GD@GOKHNLI@C?3?2Program?5Files?2Microsoft?5Visu@
    ??_C@_0DG@KGHKKGBC@null?5pointer?5cannot?5point?5to?5a?5@
    ??_R4exception@std@@6B@
    ??_R3exception@std@@8
    ??_R2exception@std@@8
    ??_R1A@?0A@EA@exception@std@@8
    ??_R4bad_array_new_length@std@@6B@
    ??_R3bad_array_new_length@std@@8
    ??_R2bad_array_new_length@std@@8
    ??_R1A@?0A@EA@bad_array_new_length@std@@8
    ??_R1A@?0A@EA@bad_alloc@std@@8
    ??_R3bad_alloc@std@@8
    ??_R2bad_alloc@std@@8
    ??_R4bad_alloc@std@@6B@
    ??_R4Exception@Glib@@6B@
    ??_R3Exception@Glib@@8
    ??_R2Exception@Glib@@8
    ??_R1A@?0A@EA@Exception@Glib@@8
    ??_R4ConvertError@Glib@@6B@
    ??_R3ConvertError@Glib@@8
    ??_R2ConvertError@Glib@@8
    ??_R1A@?0A@EA@ConvertError@Glib@@8
    ??_R1A@?0A@EA@Error@Glib@@8
    ??_R3Error@Glib@@8
    ??_R2Error@Glib@@8
    ?__empty_global_delete@@YAXPEAX@Z
    ?__empty_global_delete@@YAXPEAX_K@Z
    ??2@YAPEAX_KPEAX@Z
    ??0exception@std@@QEAA@QEBDH@Z
    ??0exception@std@@QEAA@AEBV01@@Z
    ??1exception@std@@UEAA@XZ
    ?what@exception@std@@UEBAPEBDXZ
    ??0bad_alloc@std@@AEAA@QEBD@Z
    ??1bad_alloc@std@@UEAA@XZ
    ??0bad_alloc@std@@QEAA@AEBV01@@Z
    ??0bad_array_new_length@std@@QEAA@XZ
    ??1bad_array_new_length@std@@UEAA@XZ
    ??0bad_array_new_length@std@@QEAA@AEBV01@@Z
    ?copy@?$_Char_traits@DH@std@@SAPEADQEADQEBD_K@Z
    ?assign@?$_Narrow_char_traits@DH@std@@SAXAEADAEBD@Z
    ?_Throw_bad_array_new_length@std@@YAXXZ
    ?_Allocate@_Default_allocate_traits@std@@SAPEAX_K@Z
    ?_Adjust_manually_vector_aligned@std@@YAXAEAPEAXAEA_K@Z
    ??0_Container_proxy@std@@QEAA@PEAU_Container_base12@1@@Z
    ??0_Container_base12@std@@QEAA@XZ
    ?_Orphan_all@_Container_base12@std@@QEAAXXZ
    ?_Orphan_all_unlocked_v3@_Container_base12@std@@AEAAXXZ
    ?_Orphan_all_locked_v3@_Container_base12@std@@AEAAXXZ
    ??$exchange@PEAU_Iterator_base12@std@@$$T@std@@YAPEAU_Iterator_base12@0@AEAPEAU10@$$QEA$$T@Z
    ?_Release@_Basic_container_proxy_ptr12@std@@QEAAXXZ
    ??0_Basic_container_proxy_ptr12@std@@IEAA@XZ
    ?_Xlen_string@std@@YAXXZ
    ??0?$allocator@D@std@@QEAA@XZ
    ?deallocate@?$allocator@D@std@@QEAAXQEAD_K@Z
    ?allocate@?$allocator@D@std@@QEAAPEAD_K@Z
    ?max_size@?$_Default_allocator_traits@V?$allocator@D@std@@@std@@SA_KAEBV?$allocator@D@2@@Z
    ??0?$_String_val@U?$_Simple_types@D@std@@@std@@QEAA@XZ
    ?_Myptr@?$_String_val@U?$_Simple_types@D@std@@@std@@QEBAPEBDXZ
    ?_Large_mode_engaged@?$_String_val@U?$_Simple_types@D@std@@@std@@QEBA_NXZ
    ??0_Bxty@?$_String_val@U?$_Simple_types@D@std@@@std@@QEAA@XZ
    ??1_Bxty@?$_String_val@U?$_Simple_types@D@std@@@std@@QEAA@XZ
    ?_Switch_to_buf@_Bxty@?$_String_val@U?$_Simple_types@D@std@@@std@@QEAAXXZ
    ??1?$_String_val@U?$_Simple_types@D@std@@@std@@QEAA@XZ
    ??0?$basic_string@DU?$char_traits@D@std@@V?$allocator@D@2@@std@@QEAA@QEBD_K@Z
    ?_Deallocate_for_capacity@?$basic_string@DU?$char_traits@D@std@@V?$allocator@D@2@@std@@CAXAEAV?$allocator@D@2@QEAD_K@Z
    ??1?$basic_string@DU?$char_traits@D@std@@V?$allocator@D@2@@std@@QEAA@XZ
    ?c_str@?$basic_string@DU?$char_traits@D@std@@V?$allocator@D@2@@std@@QEBAPEBDXZ
    ?size@?$basic_string@DU?$char_traits@D@std@@V?$allocator@D@2@@std@@QEBA_KXZ
    ?max_size@?$basic_string@DU?$char_traits@D@std@@V?$allocator@D@2@@std@@QEBA_KXZ
    ?_Calculate_growth@?$basic_string@DU?$char_traits@D@std@@V?$allocator@D@2@@std@@CA_K_K00@Z
    ?_Tidy_deallocate@?$basic_string@DU?$char_traits@D@std@@V?$allocator@D@2@@std@@AEAAXXZ
    ?_Getal@?$basic_string@DU?$char_traits@D@std@@V?$allocator@D@2@@std@@AEAAAEAV?$allocator@D@2@XZ
    ?_Getal@?$basic_string@DU?$char_traits@D@std@@V?$allocator@D@2@@std@@AEBAAEBV?$allocator@D@2@XZ
    ?_Get_first@?$_Compressed_pair@V?$allocator@D@std@@V?$_String_val@U?$_Simple_types@D@std@@@2@$00@std@@QEAAAEAV?$allocator@D@2@XZ
    ?_Get_first@?$_Compressed_pair@V?$allocator@D@std@@V?$_String_val@U?$_Simple_types@D@std@@@2@$00@std@@QEBAAEBV?$allocator@D@2@XZ
    ??1?$_Compressed_pair@V?$allocator@D@std@@V?$_String_val@U?$_Simple_types@D@std@@@2@$00@std@@QEAA@XZ
    ??$make_unique_ptr_gfree@D@Glib@@YA?AV?$unique_ptr@$$BY0A@DP6AXPEAX@Z@std@@PEAD@Z
    ??1?$unique_ptr@$$BY0A@DP6AXPEAX@Z@std@@QEAA@XZ
    ?get_deleter@?$unique_ptr@$$BY0A@DP6AXPEAX@Z@std@@QEAAAEAP6AXPEAX@ZXZ
    ?get@?$unique_ptr@$$BY0A@DP6AXPEAX@Z@std@@QEBAPEADXZ
    ?release@?$unique_ptr@$$BY0A@DP6AXPEAX@Z@std@@QEAAPEADXZ
    ?_Get_first@?$_Compressed_pair@P6AXPEAX@ZPEAD$0A@@std@@QEAAAEAP6AXPEAX@ZXZ
    ??0Date@Glib@@QEAA@XZ
    ??0Date@Glib@@QEAA@EW4Month@01@G@Z
    ??0Date@Glib@@QEAA@I@Z
    ??0Date@Glib@@QEAA@AEBU_GDate@@@Z
    ??0Date@Glib@@QEAA@AEBV01@@Z
    ??4Date@Glib@@QEAAAEAV01@AEBV01@@Z
    ?clear@Date@Glib@@QEAAXXZ
    ?set_parse@Date@Glib@@QEAAXAEBVustring@2@@Z
    ?set_time@Date@Glib@@QEAAXH@Z
    ?set_time@Date@Glib@@QEAAX_J@Z
    ?set_time@Date@Glib@@QEAAXAEBU_GTimeVal@@@Z
    ?set_time_current@Date@Glib@@QEAAXXZ
    ?set_month@Date@Glib@@QEAAXW4Month@12@@Z
    ?set_day@Date@Glib@@QEAAXE@Z
    ?set_year@Date@Glib@@QEAAXG@Z
    ?set_dmy@Date@Glib@@QEAAXEW4Month@12@G@Z
    ?set_julian@Date@Glib@@QEAAXI@Z
    ?add_days@Date@Glib@@QEAAAEAV12@H@Z
    ?subtract_days@Date@Glib@@QEAAAEAV12@H@Z
    ?add_months@Date@Glib@@QEAAAEAV12@H@Z
    ?subtract_months@Date@Glib@@QEAAAEAV12@H@Z
    ?add_years@Date@Glib@@QEAAAEAV12@H@Z
    ?subtract_years@Date@Glib@@QEAAAEAV12@H@Z
    ?days_between@Date@Glib@@QEBAHAEBV12@@Z
    ?compare@Date@Glib@@QEBAHAEBV12@@Z
    ?clamp@Date@Glib@@QEAAAEAV12@AEBV12@0@Z
    ?clamp_min@Date@Glib@@QEAAAEAV12@AEBV12@@Z
    ?clamp_max@Date@Glib@@QEAAAEAV12@AEBV12@@Z
    ?order@Date@Glib@@QEAAXAEAV12@@Z
    ?get_weekday@Date@Glib@@QEBA?AW4Weekday@12@XZ
    ?get_month@Date@Glib@@QEBA?AW4Month@12@XZ
    ?get_year@Date@Glib@@QEBAGXZ
    ?get_day@Date@Glib@@QEBAEXZ
    ?get_julian@Date@Glib@@QEBAIXZ
    ?get_day_of_year@Date@Glib@@QEBAIXZ
    ?get_monday_week_of_year@Date@Glib@@QEBAIXZ
    ?get_sunday_week_of_year@Date@Glib@@QEBAIXZ
    ?get_iso8601_week_of_year@Date@Glib@@QEBAIXZ
    ?is_first_of_month@Date@Glib@@QEBA_NXZ
    ?is_last_of_month@Date@Glib@@QEBA_NXZ
    ?get_days_in_month@Date@Glib@@SAEW4Month@12@G@Z
    ?get_monday_weeks_in_year@Date@Glib@@SAEG@Z
    ?get_sunday_weeks_in_year@Date@Glib@@SAEG@Z
    ?is_leap_year@Date@Glib@@SA_NG@Z
    ?format_string@Date@Glib@@QEBA?AVustring@2@AEBV32@@Z
    ?to_struct_tm@Date@Glib@@QEBAXAEAUtm@@@Z
    ?valid@Date@Glib@@QEBA_NXZ
    ?valid_day@Date@Glib@@SA_NE@Z
    ?valid_month@Date@Glib@@SA_NW4Month@12@@Z
    ?valid_year@Date@Glib@@SA_NG@Z
    ?valid_weekday@Date@Glib@@SA_NW4Weekday@12@@Z
    ?valid_julian@Date@Glib@@SA_NI@Z
    ?valid_dmy@Date@Glib@@SA_NEW4Month@12@G@Z
    ??$max@_K@std@@YAAEB_KAEB_K0@Z
    ??$?0P6AXPEAX@Z$0A@@?$unique_ptr@$$BY0A@DP6AXPEAX@Z@std@@QEAA@$$QEAV01@@Z
    ??$min@_K@std@@YAAEB_KAEB_K0@Z
    ??$?0PEADP6AXPEAX@Z$0A@$0A@@?$unique_ptr@$$BY0A@DP6AXPEAX@Z@std@@QEAA@PEAD$$QEAP6AXPEAX@Z@Z
    ??$forward@P6AXPEAX@Z@std@@YA$$QEAP6AXPEAX@ZAEAP6AX0@Z@Z
    ??$?0P6AXPEAX@ZPEAD@?$_Compressed_pair@P6AXPEAX@ZPEAD$0A@@std@@QEAA@U_One_then_variadic_args_t@1@$$QEAP6AXPEAX@Z$$QEAPEAD@Z
    ?allocate@?$allocator@U_Container_proxy@std@@@std@@QEAAPEAU_Container_proxy@2@_K@Z
    ??$_Delete_plain_internal@V?$allocator@U_Container_proxy@std@@@std@@@std@@YAXAEAV?$allocator@U_Container_proxy@std@@@0@QEAU_Container_proxy@0@@Z
    ??$?0D@?$allocator@U_Container_proxy@std@@@std@@QEAA@AEBV?$allocator@D@1@@Z
    ??$?0$$V@?$_Compressed_pair@V?$allocator@D@std@@V?$_String_val@U?$_Simple_types@D@std@@@2@$00@std@@QEAA@U_Zero_then_variadic_args_t@1@@Z
    ??$_Construct@$00PEBD@?$basic_string@DU?$char_traits@D@std@@V?$allocator@D@2@@std@@AEAAXQEBD_K@Z
    ??$move@AEAP6AXPEAX@Z@std@@YA$$QEAP6AXPEAX@ZAEAP6AX0@Z@Z
    ??$?0P6AXPEAX@ZAEAPEAD@?$_Compressed_pair@P6AXPEAX@ZPEAD$0A@@std@@QEAA@U_One_then_variadic_args_t@1@$$QEAP6AXPEAX@ZAEAPEAD@Z
    ??$forward@PEAD@std@@YA$$QEAPEADAEAPEAD@Z
    ??$_Deallocate_plain@V?$allocator@U_Container_proxy@std@@@std@@@std@@YAXAEAV?$allocator@U_Container_proxy@std@@@0@QEAU_Container_proxy@0@@Z
    ??0?$_Container_proxy_ptr12@V?$allocator@U_Container_proxy@std@@@std@@@std@@QEAA@AEAV?$allocator@U_Container_proxy@std@@@1@AEAU_Container_base12@1@@Z
    ??1?$_Container_proxy_ptr12@V?$allocator@U_Container_proxy@std@@@std@@@std@@QEAA@XZ
    ??$_Unfancy@U_Container_proxy@std@@@std@@YAPEAU_Container_proxy@0@PEAU10@@Z
    ??$_Construct_in_place@U_Container_proxy@std@@PEAU_Container_base12@2@@std@@YAXAEAU_Container_proxy@0@$$QEAPEAU_Container_base12@0@@Z
    ??$_Allocate_for_capacity@$0A@@?$basic_string@DU?$char_traits@D@std@@V?$allocator@D@2@@std@@CAPEADAEAV?$allocator@D@1@AEA_K@Z
    ??$_Construct_in_place@PEADAEBQEAD@std@@YAXAEAPEADAEBQEAD@Z
    ??$_Unfancy@D@std@@YAPEADPEAD@Z
    ??$exchange@PEAD$$T@std@@YAPEADAEAPEAD$$QEA$$T@Z
    ??$_Deallocate@$0BA@@std@@YAXPEAX_K@Z
    ??$forward@AEAPEAD@std@@YAAEAPEADAEAPEAD@Z
    ?deallocate@?$_Default_allocator_traits@V?$allocator@U_Container_proxy@std@@@std@@@std@@SAXAEAV?$allocator@U_Container_proxy@std@@@2@QEAU_Container_proxy@2@_K@Z
    ??$addressof@U_Container_proxy@std@@@std@@YAPEAU_Container_proxy@0@AEAU10@@Z
    ??$forward@PEAU_Container_base12@std@@@std@@YA$$QEAPEAU_Container_base12@0@AEAPEAU10@@Z
    ??$_Allocate_at_least_helper@V?$allocator@D@std@@@std@@YAPEADAEAV?$allocator@D@0@AEA_K@Z
    ??$addressof@PEAD@std@@YAPEAPEADAEAPEAD@Z
    ??$forward@AEBQEAD@std@@YAAEBQEADAEBQEAD@Z
    ??$addressof@U_Container_base12@std@@@std@@YAPEAU_Container_base12@0@AEAU10@@Z
    ??$_Get_size_of_n@$0BA@@std@@YA_K_K@Z
    ??$_Allocate@$0BA@U_Default_allocate_traits@std@@@std@@YAPEAX_K@Z
    ??$_Destroy_in_place@PEAD@std@@YAXAEAPEAD@Z
    ??$_Max_limit@_J@std@@YA_JXZ
    ??$_Allocate_manually_vector_aligned@U_Default_allocate_traits@std@@@std@@YAPEAX_K@Z
    ??$_Get_size_of_n@$00@std@@YA_K_K@Z
    ??_7exception@std@@6B@
    ??_C@_0BC@EOODALEL@Unknown?5exception@
    ??_7bad_alloc@std@@6B@
    ??_7bad_array_new_length@std@@6B@
    ??_C@_0BF@KINCDENJ@bad?5array?5new?5length@
    ??_R0?AVexception@std@@@8
    _CT??_R0?AVexception@std@@@8??0exception@std@@QEAA@AEBV01@@Z24
    _TI3?AVbad_array_new_length@std@@
    _CTA3?AVbad_array_new_length@std@@
    ??_R0?AVbad_array_new_length@std@@@8
    _CT??_R0?AVbad_array_new_length@std@@@8??0bad_array_new_length@std@@QEAA@AEBV01@@Z24
    ??_R0?AVbad_alloc@std@@@8
    _CT??_R0?AVbad_alloc@std@@@8??0bad_alloc@std@@QEAA@AEBV01@@Z24
    ??_C@_0BB@FCMFBGOM@invalid?5argument@
    ??_C@_02DKCKIIND@?$CFs@
    ??_C@_0GC@KLECFGLI@C?3?2Program?5Files?2Microsoft?5Visu@
    ??_C@_0BA@JFNIOLAK@string?5too?5long@
    ??_C@_0DG@KGHKKGBC@null?5pointer?5cannot?5point?5to?5a?5@
    ??_R4exception@std@@6B@
    ??_R3exception@std@@8
    ??_R2exception@std@@8
    ??_R1A@?0A@EA@exception@std@@8
    ??_R4bad_array_new_length@std@@6B@
    ??_R3bad_array_new_length@std@@8
    ??_R2bad_array_new_length@std@@8
    ??_R1A@?0A@EA@bad_array_new_length@std@@8
    ??_R1A@?0A@EA@bad_alloc@std@@8
    ??_R3bad_alloc@std@@8
    ??_R2bad_alloc@std@@8
    ??_R4bad_alloc@std@@6B@
    ?__empty_global_delete@@YAXPEAX@Z
    ?__empty_global_delete@@YAXPEAX_K@Z
    ?convert_const_gchar_ptr_to_ustring@Glib@@YA?AVustring@1@PEBD@Z
    ?convert_return_gchar_ptr_to_ustring@Glib@@YA?AVustring@1@PEAD@Z
    ??$make_unique_ptr_gfree@D@Glib@@YA?AV?$unique_ptr@$$BY0A@DP6AXPEAX@Z@std@@PEAD@Z
    ??1?$unique_ptr@$$BY0A@DP6AXPEAX@Z@std@@QEAA@XZ
    ?get_deleter@?$unique_ptr@$$BY0A@DP6AXPEAX@Z@std@@QEAAAEAP6AXPEAX@ZXZ
    ?get@?$unique_ptr@$$BY0A@DP6AXPEAX@Z@std@@QEBAPEADXZ
    ?release@?$unique_ptr@$$BY0A@DP6AXPEAX@Z@std@@QEAAPEADXZ
    ?_Get_first@?$_Compressed_pair@P6AXPEAX@ZPEAD$0A@@std@@QEAAAEAP6AXPEAX@ZXZ
    ?gobj@TimeZone@Glib@@QEBAPEBU_GTimeZone@@XZ
    ??0DateTime@Glib@@QEAA@XZ
    ??0DateTime@Glib@@QEAA@PEAU_GDateTime@@_N@Z
    ??0DateTime@Glib@@QEAA@AEBV01@@Z
    ??4DateTime@Glib@@QEAAAEAV01@AEBV01@@Z
    ??0DateTime@Glib@@QEAA@$$QEAV01@@Z
    ??4DateTime@Glib@@QEAAAEAV01@$$QEAV01@@Z
    ??1DateTime@Glib@@QEAA@XZ
    ?swap@DateTime@Glib@@QEAAXAEAV12@@Z
    ?gobj@DateTime@Glib@@QEBAPEBU_GDateTime@@XZ
    ?gobj_copy@DateTime@Glib@@QEBAPEAU_GDateTime@@XZ
    ?create_now@DateTime@Glib@@SA?AV12@AEBVTimeZone@2@@Z
    ?create_now_local@DateTime@Glib@@SA?AV12@XZ
    ?create_now_utc@DateTime@Glib@@SA?AV12@XZ
    ?create_now_local@DateTime@Glib@@SA?AV12@_J@Z
    ?create_now_utc@DateTime@Glib@@SA?AV12@_J@Z
    ?create_now_local@DateTime@Glib@@SA?AV12@AEBUTimeVal@2@@Z
    ?create_now_utc@DateTime@Glib@@SA?AV12@AEBUTimeVal@2@@Z
    ?create_from_iso8601@DateTime@Glib@@SA?AV12@AEBVustring@2@AEBVTimeZone@2@@Z
    ?create_from_iso8601@DateTime@Glib@@SA?AV12@AEBVustring@2@@Z
    ?create@DateTime@Glib@@SA?AV12@AEBVTimeZone@2@HHHHHN@Z
    ?create_local@DateTime@Glib@@SA?AV12@HHHHHN@Z
    ?create_utc@DateTime@Glib@@SA?AV12@HHHHHN@Z
    ??BDateTime@Glib@@QEBA_NXZ
    ?add@DateTime@Glib@@QEBA?AV12@_J@Z
    ?add_years@DateTime@Glib@@QEBA?AV12@H@Z
    ?add_months@DateTime@Glib@@QEBA?AV12@H@Z
    ?add_weeks@DateTime@Glib@@QEBA?AV12@H@Z
    ?add_days@DateTime@Glib@@QEBA?AV12@H@Z
    ?add_hours@DateTime@Glib@@QEBA?AV12@H@Z
    ?add_minutes@DateTime@Glib@@QEBA?AV12@H@Z
    ?add_seconds@DateTime@Glib@@QEBA?AV12@N@Z
    ?add_full@DateTime@Glib@@QEBA?AV12@HHHHHN@Z
    ?difference@DateTime@Glib@@QEBA_JAEBV12@@Z
    ?compare@DateTime@Glib@@QEBAHAEBV12@@Z
    ?hash@DateTime@Glib@@QEBAIXZ
    ?equal@DateTime@Glib@@QEBA_NAEBV12@@Z
    ?get_ymd@DateTime@Glib@@QEBAXAEAH00@Z
    ?get_year@DateTime@Glib@@QEBAHXZ
    ?get_month@DateTime@Glib@@QEBAHXZ
    ?get_day_of_month@DateTime@Glib@@QEBAHXZ
    ?get_week_numbering_year@DateTime@Glib@@QEBAHXZ
    ?get_week_of_year@DateTime@Glib@@QEBAHXZ
    ?get_day_of_week@DateTime@Glib@@QEBAHXZ
    ?get_day_of_year@DateTime@Glib@@QEBAHXZ
    ?get_hour@DateTime@Glib@@QEBAHXZ
    ?get_minute@DateTime@Glib@@QEBAHXZ
    ?get_second@DateTime@Glib@@QEBAHXZ
    ?get_microsecond@DateTime@Glib@@QEBAHXZ
    ?get_seconds@DateTime@Glib@@QEBANXZ
    ?to_unix@DateTime@Glib@@QEBA_JXZ
    ?to_timeval@DateTime@Glib@@QEBA_NAEAUTimeVal@2@@Z
    ?get_utc_offset@DateTime@Glib@@QEBA_JXZ
    ?get_timezone@DateTime@Glib@@QEBA?AVTimeZone@2@XZ
    ?get_timezone_abbreviation@DateTime@Glib@@QEBA?AVustring@2@XZ
    ?is_daylight_savings@DateTime@Glib@@QEBA_NXZ
    ?to_timezone@DateTime@Glib@@QEBA?AV12@AEBVTimeZone@2@@Z
    ?to_local@DateTime@Glib@@QEBA?AV12@XZ
    ?to_utc@DateTime@Glib@@QEBA?AV12@XZ
    ?format@DateTime@Glib@@QEBA?AVustring@2@AEBV32@@Z
    ?format_iso8601@DateTime@Glib@@QEBA?AVustring@2@XZ
    ?value_type@?$Value@VDateTime@Glib@@@Glib@@SA_KXZ
    ?set@?$Value@VDateTime@Glib@@@Glib@@QEAAXAEBVDateTime@2@@Z
    ?get@?$Value@VDateTime@Glib@@@Glib@@QEBA?AVDateTime@2@XZ
    ?wrap@Glib@@YA?AVDateTime@1@PEAU_GDateTime@@_N@Z
    ??$swap@PEAU_GDateTime@@$0A@@std@@YAXAEAPEAU_GDateTime@@0@Z
    ??$?0PEADP6AXPEAX@Z$0A@$0A@@?$unique_ptr@$$BY0A@DP6AXPEAX@Z@std@@QEAA@PEAD$$QEAP6AXPEAX@Z@Z
    ??$?0P6AXPEAX@Z$0A@@?$unique_ptr@$$BY0A@DP6AXPEAX@Z@std@@QEAA@$$QEAV01@@Z
    ??$move@AEAPEAU_GDateTime@@@std@@YA$$QEAPEAU_GDateTime@@AEAPEAU1@@Z
    ??$move@AEAP6AXPEAX@Z@std@@YA$$QEAP6AXPEAX@ZAEAP6AX0@Z@Z
    ??$?0P6AXPEAX@ZAEAPEAD@?$_Compressed_pair@P6AXPEAX@ZPEAD$0A@@std@@QEAA@U_One_then_variadic_args_t@1@$$QEAP6AXPEAX@ZAEAPEAD@Z
    ??$forward@P6AXPEAX@Z@std@@YA$$QEAP6AXPEAX@ZAEAP6AX0@Z@Z
    ??$?0P6AXPEAX@ZPEAD@?$_Compressed_pair@P6AXPEAX@ZPEAD$0A@@std@@QEAA@U_One_then_variadic_args_t@1@$$QEAP6AXPEAX@Z$$QEAPEAD@Z
    ??$forward@AEAPEAD@std@@YAAEAPEADAEAPEAD@Z
    ??$forward@PEAD@std@@YA$$QEAPEADAEAPEAD@Z
    ??$exchange@PEAD$$T@std@@YAPEADAEAPEAD$$QEA$$T@Z
    ?__empty_global_delete@@YAXPEAX@Z
    ?__empty_global_delete@@YAXPEAX_K@Z
    ??2@YAPEAX_KPEAX@Z
    ??0exception@std@@QEAA@QEBDH@Z
    ??0exception@std@@QEAA@AEBV01@@Z
    ??1exception@std@@UEAA@XZ
    ?what@exception@std@@UEBAPEBDXZ
    ??0bad_alloc@std@@AEAA@QEBD@Z
    ??1bad_alloc@std@@UEAA@XZ
    ??0bad_alloc@std@@QEAA@AEBV01@@Z
    ??0bad_array_new_length@std@@QEAA@XZ
    ??1bad_array_new_length@std@@UEAA@XZ
    ??0bad_array_new_length@std@@QEAA@AEBV01@@Z
    ?_Throw_bad_array_new_length@std@@YAXXZ
    ?_Allocate@_Default_allocate_traits@std@@SAPEAX_K@Z
    ?_Adjust_manually_vector_aligned@std@@YAXAEAPEAXAEA_K@Z
    ?_Adopt@_Iterator_base0@std@@QEAAXPEBX@Z
    ??0_Container_proxy@std@@QEAA@PEAU_Container_base12@1@@Z
    ??0_Container_base12@std@@QEAA@XZ
    ?_Orphan_all@_Container_base12@std@@QEAAXXZ
    ?_Orphan_all_unlocked_v3@_Container_base12@std@@AEAAXXZ
    ?_Orphan_all_locked_v3@_Container_base12@std@@AEAAXXZ
    ??0_Iterator_base12@std@@QEAA@XZ
    ??0_Iterator_base12@std@@QEAA@AEBU01@@Z
    ??4_Iterator_base12@std@@QEAAAEAU01@AEBU01@@Z
    ??1_Iterator_base12@std@@QEAA@XZ
    ?_Adopt@_Iterator_base12@std@@QEAAXPEBU_Container_base12@2@@Z
    ?_Getcont@_Iterator_base12@std@@QEBAPEBU_Container_base12@2@XZ
    ?_Assign_unlocked@_Iterator_base12@std@@AEAAXAEBU12@@Z
    ?_Assign_locked@_Iterator_base12@std@@AEAAXAEBU12@@Z
    ?_Adopt_unlocked@_Iterator_base12@std@@AEAAXPEBU_Container_base12@2@@Z
    ?_Adopt_locked@_Iterator_base12@std@@AEAAXPEBU_Container_base12@2@@Z
    ?_Orphan_me_unlocked_v3@_Iterator_base12@std@@AEAAXXZ
    ?_Orphan_me_locked_v3@_Iterator_base12@std@@AEAAXXZ
    ??$exchange@PEAU_Iterator_base12@std@@$$T@std@@YAPEAU_Iterator_base12@0@AEAPEAU10@$$QEA$$T@Z
    ?_Release@_Basic_container_proxy_ptr12@std@@QEAAXXZ
    ??0_Basic_container_proxy_ptr12@std@@IEAA@XZ
    ??0Exception@Glib@@QEAA@AEBV01@@Z
    ?deallocate@?$allocator@U?$_List_node@Vslot_base@sigc@@PEAX@std@@@std@@QEAAXQEAU?$_List_node@Vslot_base@sigc@@PEAX@2@_K@Z
    ?allocate@?$allocator@U?$_List_node@Vslot_base@sigc@@PEAX@std@@@std@@QEAAPEAU?$_List_node@Vslot_base@sigc@@PEAX@2@_K@Z
    ?deallocate@?$_Default_allocator_traits@V?$allocator@U?$_List_node@Vslot_base@sigc@@PEAX@std@@@std@@@std@@SAXAEAV?$allocator@U?$_List_node@Vslot_base@sigc@@PEAX@std@@@2@QEAU?$_List_node@Vslot_base@sigc@@PEAX@2@_K@Z
    ?max_size@?$_Default_allocator_traits@V?$allocator@U?$_List_node@Vslot_base@sigc@@PEAX@std@@@std@@@std@@SA_KAEBV?$allocator@U?$_List_node@Vslot_base@sigc@@PEAX@std@@@2@@Z
    ?insert@?$list@Vslot_base@sigc@@V?$allocator@Vslot_base@sigc@@@std@@@std@@QEAA?AV?$_List_iterator@V?$_List_val@U?$_List_simple_types@Vslot_base@sigc@@@std@@@std@@@2@V?$_List_const_iterator@V?$_List_val@U?$_List_simple_types@Vslot_base@sigc@@@std@@@std@@@2@$$QEAVslot_base@sigc@@@Z
    ?begin@?$list@Vslot_base@sigc@@V?$allocator@Vslot_base@sigc@@@std@@@std@@QEAA?AV?$_List_iterator@V?$_List_val@U?$_List_simple_types@Vslot_base@sigc@@@std@@@std@@@2@XZ
    ?end@?$list@Vslot_base@sigc@@V?$allocator@Vslot_base@sigc@@@std@@@std@@QEAA?AV?$_List_iterator@V?$_List_val@U?$_List_simple_types@Vslot_base@sigc@@@std@@@std@@@2@XZ
    ?_Make_iter@?$list@Vslot_base@sigc@@V?$allocator@Vslot_base@sigc@@@std@@@std@@QEBA?AV?$_List_iterator@V?$_List_val@U?$_List_simple_types@Vslot_base@sigc@@@std@@@std@@@2@PEAU?$_List_node@Vslot_base@sigc@@PEAX@2@@Z
    ?max_size@?$list@Vslot_base@sigc@@V?$allocator@Vslot_base@sigc@@@std@@@std@@QEBA_KXZ
    ?empty@?$list@Vslot_base@sigc@@V?$allocator@Vslot_base@sigc@@@std@@@std@@QEBA_NXZ
    ?erase@?$list@Vslot_base@sigc@@V?$allocator@Vslot_base@sigc@@@std@@@std@@QEAA?AV?$_List_iterator@V?$_List_val@U?$_List_simple_types@Vslot_base@sigc@@@std@@@std@@@2@V?$_List_const_iterator@V?$_List_val@U?$_List_simple_types@Vslot_base@sigc@@@std@@@std@@@2@@Z
    ?_Getal@?$list@Vslot_base@sigc@@V?$allocator@Vslot_base@sigc@@@std@@@std@@AEAAAEAV?$allocator@U?$_List_node@Vslot_base@sigc@@PEAX@std@@@2@XZ
    ?_Getal@?$list@Vslot_base@sigc@@V?$allocator@Vslot_base@sigc@@@std@@@std@@AEBAAEBV?$allocator@U?$_List_node@Vslot_base@sigc@@PEAX@std@@@2@XZ
    ?_Orphan_ptr2@?$_List_val@U?$_List_simple_types@Vslot_base@sigc@@@std@@@std@@QEAAXPEAU?$_List_node@Vslot_base@sigc@@PEAX@2@@Z
    ?_Unlinknode@?$_List_val@U?$_List_simple_types@Vslot_base@sigc@@@std@@@std@@QEAAPEAU?$_List_node@Vslot_base@sigc@@PEAX@2@PEAU32@@Z
    ?_Get_first@?$_Compressed_pair@V?$allocator@U?$_List_node@Vslot_base@sigc@@PEAX@std@@@std@@V?$_List_val@U?$_List_simple_types@Vslot_base@sigc@@@std@@@2@$00@std@@QEAAAEAV?$allocator@U?$_List_node@Vslot_base@sigc@@PEAX@std@@@2@XZ
    ?_Get_first@?$_Compressed_pair@V?$allocator@U?$_List_node@Vslot_base@sigc@@PEAX@std@@@std@@V?$_List_val@U?$_List_simple_types@Vslot_base@sigc@@@std@@@2@$00@std@@QEBAAEBV?$allocator@U?$_List_node@Vslot_base@sigc@@PEAX@std@@@2@XZ
    ??0temp_slot_list@internal@sigc@@QEAA@AEAV?$list@Vslot_base@sigc@@V?$allocator@Vslot_base@sigc@@@std@@@std@@@Z
    ??1temp_slot_list@internal@sigc@@QEAA@XZ
    ?begin@temp_slot_list@internal@sigc@@QEAA?AV?$_List_iterator@V?$_List_val@U?$_List_simple_types@Vslot_base@sigc@@@std@@@std@@@std@@XZ
    ?end@temp_slot_list@internal@sigc@@QEAA?AV?$_List_iterator@V?$_List_val@U?$_List_simple_types@Vslot_base@sigc@@@std@@@std@@@std@@XZ
    ??0?$_List_unchecked_const_iterator@V?$_List_val@U?$_List_simple_types@Vslot_base@sigc@@@std@@@std@@U_Iterator_base12@2@@std@@QEAA@XZ
    ??0?$_List_unchecked_const_iterator@V?$_List_val@U?$_List_simple_types@Vslot_base@sigc@@@std@@@std@@U_Iterator_base12@2@@std@@QEAA@PEAU?$_List_node@Vslot_base@sigc@@PEAX@1@PEBV?$_List_val@U?$_List_simple_types@Vslot_base@sigc@@@std@@@1@@Z
    ??1?$_List_unchecked_const_iterator@V?$_List_val@U?$_List_simple_types@Vslot_base@sigc@@@std@@@std@@U_Iterator_base12@2@@std@@QEAA@XZ
    ??0?$_List_unchecked_const_iterator@V?$_List_val@U?$_List_simple_types@Vslot_base@sigc@@@std@@@std@@U_Iterator_base12@2@@std@@QEAA@AEBV01@@Z
    ??0?$_List_unchecked_const_iterator@V?$_List_val@U?$_List_simple_types@Vslot_base@sigc@@@std@@@std@@U_Iterator_base12@2@@std@@QEAA@$$QEAV01@@Z
    ??4?$_List_unchecked_const_iterator@V?$_List_val@U?$_List_simple_types@Vslot_base@sigc@@@std@@@std@@U_Iterator_base12@2@@std@@QEAAAEAV01@$$QEAV01@@Z
    ??D?$_List_const_iterator@V?$_List_val@U?$_List_simple_types@Vslot_base@sigc@@@std@@@std@@@std@@QEBAAEBVslot_base@sigc@@XZ
    ??E?$_List_const_iterator@V?$_List_val@U?$_List_simple_types@Vslot_base@sigc@@@std@@@std@@@std@@QEAAAEAV01@XZ
    ??8?$_List_const_iterator@V?$_List_val@U?$_List_simple_types@Vslot_base@sigc@@@std@@@std@@@std@@QEBA_NAEBV01@@Z
    ??9?$_List_const_iterator@V?$_List_val@U?$_List_simple_types@Vslot_base@sigc@@@std@@@std@@@std@@QEBA_NAEBV01@@Z
    ??0?$_List_const_iterator@V?$_List_val@U?$_List_simple_types@Vslot_base@sigc@@@std@@@std@@@std@@QEAA@XZ
    ??1?$_List_const_iterator@V?$_List_val@U?$_List_simple_types@Vslot_base@sigc@@@std@@@std@@@std@@QEAA@XZ
    ??0?$_List_const_iterator@V?$_List_val@U?$_List_simple_types@Vslot_base@sigc@@@std@@@std@@@std@@QEAA@AEBV01@@Z
    ??0?$_List_const_iterator@V?$_List_val@U?$_List_simple_types@Vslot_base@sigc@@@std@@@std@@@std@@QEAA@$$QEAV01@@Z
    ??4?$_List_const_iterator@V?$_List_val@U?$_List_simple_types@Vslot_base@sigc@@@std@@@std@@@std@@QEAAAEAV01@$$QEAV01@@Z
    ??0?$_List_const_iterator@V?$_List_val@U?$_List_simple_types@Vslot_base@sigc@@@std@@@std@@@std@@QEAA@PEAU?$_List_node@Vslot_base@sigc@@PEAX@1@PEBV?$_List_val@U?$_List_simple_types@Vslot_base@sigc@@@std@@@1@@Z
    ??D?$_List_iterator@V?$_List_val@U?$_List_simple_types@Vslot_base@sigc@@@std@@@std@@@std@@QEBAAEAVslot_base@sigc@@XZ
    ??E?$_List_iterator@V?$_List_val@U?$_List_simple_types@Vslot_base@sigc@@@std@@@std@@@std@@QEAAAEAV01@XZ
    ??0?$_List_iterator@V?$_List_val@U?$_List_simple_types@Vslot_base@sigc@@@std@@@std@@@std@@QEAA@XZ
    ??1?$_List_iterator@V?$_List_val@U?$_List_simple_types@Vslot_base@sigc@@@std@@@std@@@std@@QEAA@XZ
    ??0?$_List_iterator@V?$_List_val@U?$_List_simple_types@Vslot_base@sigc@@@std@@@std@@@std@@QEAA@AEBV01@@Z
    ??4?$_List_iterator@V?$_List_val@U?$_List_simple_types@Vslot_base@sigc@@@std@@@std@@@std@@QEAAAEAV01@$$QEAV01@@Z
    ??0?$_List_iterator@V?$_List_val@U?$_List_simple_types@Vslot_base@sigc@@@std@@@std@@@std@@QEAA@PEAU?$_List_node@Vslot_base@sigc@@PEAX@1@PEBV?$_List_val@U?$_List_simple_types@Vslot_base@sigc@@@std@@@1@@Z
    ?emit@?$signal_emit0@XUnil@sigc@@@internal@sigc@@SAXPEAUsignal_impl@23@@Z
    ??$function_pointer_cast@P6AXPEAUslot_rep@internal@sigc@@@ZP6APEAXPEAX@Z@internal@sigc@@YAP6AXPEAUslot_rep@01@@ZP6APEAXPEAX@Z@Z
    ?gobj@Source@Glib@@QEAAPEAU_GSource@@XZ
    ??0Dispatcher@Glib@@QEAA@XZ
    ??0Dispatcher@Glib@@QEAA@AEBV?$RefPtr@VMainContext@Glib@@@1@@Z
    ??1Dispatcher@Glib@@QEAA@XZ
    ?emit@Dispatcher@Glib@@QEAAXXZ
    ??RDispatcher@Glib@@QEAAXXZ
    ?connect@Dispatcher@Glib@@QEAA?AUconnection@sigc@@AEBV?$slot@XUnil@sigc@@U12@U12@U12@U12@U12@U12@@4@@Z
    ?connect@Dispatcher@Glib@@QEAA?AUconnection@sigc@@$$QEAV?$slot@XUnil@sigc@@U12@U12@U12@U12@U12@U12@@4@@Z
    ?connect@?$signal0@XUnil@sigc@@@sigc@@QEAA?AU?$slot_iterator@V?$slot@$$A6AXXZUnil@sigc@@U12@U12@U12@U12@U12@U12@@sigc@@@2@$$QEAV?$slot@$$A6AXXZUnil@sigc@@U12@U12@U12@U12@U12@U12@@2@@Z
    ?emit@?$signal0@XUnil@sigc@@@sigc@@QEBAXXZ
    ??R?$signal0@XUnil@sigc@@@sigc@@QEBAXXZ
    ??0?$signal0@XUnil@sigc@@@sigc@@QEAA@XZ
    ??1?$signal0@XUnil@sigc@@@sigc@@QEAA@XZ
    ??0?$signal@XUnil@sigc@@U12@U12@U12@U12@U12@U12@@sigc@@QEAA@XZ
    ??1?$signal@XUnil@sigc@@U12@U12@U12@U12@U12@U12@@sigc@@QEAA@XZ
    ??1FileError@Glib@@UEAA@XZ
    ??0FileError@Glib@@QEAA@AEBV01@@Z
    ?_Throw_tree_length_error@std@@YAXXZ
    ??0_Mutex_base@std@@QEAA@H@Z
    ?lock@_Mutex_base@std@@QEAAXXZ
    ?unlock@_Mutex_base@std@@QEAAXXZ
    ?_Verify_ownership_levels@_Mutex_base@std@@IEAA_NXZ
    ?_Mymtx@_Mutex_base@std@@AEAAPEAU_Mtx_internal_imp_t@@XZ
    ??0mutex@std@@QEAA@XZ
    ??0?$lock_guard@Vmutex@std@@@std@@QEAA@AEAVmutex@1@@Z
    ??1?$lock_guard@Vmutex@std@@@std@@QEAA@XZ
    ??1DispatchNotifier@Glib@@QEAA@XZ
    ?reference_instance@DispatchNotifier@Glib@@SAPEAV12@AEBV?$RefPtr@VMainContext@Glib@@@2@PEBVDispatcher@2@@Z
    ?unreference_instance@DispatchNotifier@Glib@@SAXPEAV12@PEBVDispatcher@2@@Z
    ?send_notification@DispatchNotifier@Glib@@QEAAXPEAVDispatcher@2@@Z
    ??0DispatchNotifier@Glib@@IEAA@AEBV?$RefPtr@VMainContext@Glib@@@1@@Z
    ?_Kfn@?$_Tset_traits@PEBVDispatcher@Glib@@U?$less@PEBVDispatcher@Glib@@@std@@V?$allocator@PEBVDispatcher@Glib@@@4@$0A@@std@@SAAEBQEBVDispatcher@Glib@@AEBQEBV34@@Z
    ??0?$allocator@U?$_Tree_node@PEBVDispatcher@Glib@@PEAX@std@@@std@@QEAA@XZ
    ?deallocate@?$allocator@U?$_Tree_node@PEBVDispatcher@Glib@@PEAX@std@@@std@@QEAAXQEAU?$_Tree_node@PEBVDispatcher@Glib@@PEAX@2@_K@Z
    ?allocate@?$allocator@U?$_Tree_node@PEBVDispatcher@Glib@@PEAX@std@@@std@@QEAAPEAU?$_Tree_node@PEBVDispatcher@Glib@@PEAX@2@_K@Z
    ?deallocate@?$_Default_allocator_traits@V?$allocator@U?$_Tree_node@PEBVDispatcher@Glib@@PEAX@std@@@std@@@std@@SAXAEAV?$allocator@U?$_Tree_node@PEBVDispatcher@Glib@@PEAX@std@@@2@QEAU?$_Tree_node@PEBVDispatcher@Glib@@PEAX@2@_K@Z
    ?max_size@?$_Default_allocator_traits@V?$allocator@U?$_Tree_node@PEBVDispatcher@Glib@@PEAX@std@@@std@@@std@@SA_KAEBV?$allocator@U?$_Tree_node@PEBVDispatcher@Glib@@PEAX@std@@@2@@Z
    ??0?$_Tree@V?$_Tset_traits@PEBVDispatcher@Glib@@U?$less@PEBVDispatcher@Glib@@@std@@V?$allocator@PEBVDispatcher@Glib@@@4@$0A@@std@@@std@@QEAA@AEBU?$less@PEBVDispatcher@Glib@@@1@@Z
    ??1?$_Tree@V?$_Tset_traits@PEBVDispatcher@Glib@@U?$less@PEBVDispatcher@Glib@@@std@@V?$allocator@PEBVDispatcher@Glib@@@4@$0A@@std@@@std@@QEAA@XZ
    ?end@?$_Tree@V?$_Tset_traits@PEBVDispatcher@Glib@@U?$less@PEBVDispatcher@Glib@@@std@@V?$allocator@PEBVDispatcher@Glib@@@4@$0A@@std@@@std@@QEAA?AV?$_Tree_const_iterator@V?$_Tree_val@U?$_Tree_simple_types@PEBVDispatcher@Glib@@@std@@@std@@@2@XZ
    ?_Unchecked_begin@?$_Tree@V?$_Tset_traits@PEBVDispatcher@Glib@@U?$less@PEBVDispatcher@Glib@@@std@@V?$allocator@PEBVDispatcher@Glib@@@4@$0A@@std@@@std@@QEAA?AV?$_Tree_unchecked_const_iterator@V?$_Tree_val@U?$_Tree_simple_types@PEBVDispatcher@Glib@@@std@@@std@@U_Iterator_base0@2@@2@XZ
    ?max_size@?$_Tree@V?$_Tset_traits@PEBVDispatcher@Glib@@U?$less@PEBVDispatcher@Glib@@@std@@V?$allocator@PEBVDispatcher@Glib@@@4@$0A@@std@@@std@@QEBA_KXZ
    ?empty@?$_Tree@V?$_Tset_traits@PEBVDispatcher@Glib@@U?$less@PEBVDispatcher@Glib@@@std@@V?$allocator@PEBVDispatcher@Glib@@@4@$0A@@std@@@std@@QEBA_NXZ
    ?_Erase_unchecked@?$_Tree@V?$_Tset_traits@PEBVDispatcher@Glib@@U?$less@PEBVDispatcher@Glib@@@std@@V?$allocator@PEBVDispatcher@Glib@@@4@$0A@@std@@@std@@AEAAPEAU?$_Tree_node@PEBVDispatcher@Glib@@PEAX@2@V?$_Tree_unchecked_const_iterator@V?$_Tree_val@U?$_Tree_simple_types@PEBVDispatcher@Glib@@@std@@@std@@U_Iterator_base0@2@@2@@Z
    ?_Erase_unchecked@?$_Tree@V?$_Tset_traits@PEBVDispatcher@Glib@@U?$less@PEBVDispatcher@Glib@@@std@@V?$allocator@PEBVDispatcher@Glib@@@4@$0A@@std@@@std@@AEAAPEAU?$_Tree_node@PEBVDispatcher@Glib@@PEAX@2@V?$_Tree_unchecked_const_iterator@V?$_Tree_val@U?$_Tree_simple_types@PEBVDispatcher@Glib@@@std@@@std@@U_Iterator_base0@2@@2@0@Z
    ?_Erase@?$_Tree@V?$_Tset_traits@PEBVDispatcher@Glib@@U?$less@PEBVDispatcher@Glib@@@std@@V?$allocator@PEBVDispatcher@Glib@@@4@$0A@@std@@@std@@AEAA_KU?$pair@PEAU?$_Tree_node@PEBVDispatcher@Glib@@PEAX@std@@PEAU12@@2@@Z
    ?erase@?$_Tree@V?$_Tset_traits@PEBVDispatcher@Glib@@U?$less@PEBVDispatcher@Glib@@@std@@V?$allocator@PEBVDispatcher@Glib@@@4@$0A@@std@@@std@@QEAA_KAEBQEBVDispatcher@Glib@@@Z
    ?clear@?$_Tree@V?$_Tset_traits@PEBVDispatcher@Glib@@U?$less@PEBVDispatcher@Glib@@@std@@V?$allocator@PEBVDispatcher@Glib@@@4@$0A@@std@@@std@@QEAAXXZ
    ?find@?$_Tree@V?$_Tset_traits@PEBVDispatcher@Glib@@U?$less@PEBVDispatcher@Glib@@@std@@V?$allocator@PEBVDispatcher@Glib@@@4@$0A@@std@@@std@@QEAA?AV?$_Tree_const_iterator@V?$_Tree_val@U?$_Tree_simple_types@PEBVDispatcher@Glib@@@std@@@std@@@2@AEBQEBVDispatcher@Glib@@@Z
    ?_Check_grow_by_1@?$_Tree@V?$_Tset_traits@PEBVDispatcher@Glib@@U?$less@PEBVDispatcher@Glib@@@std@@V?$allocator@PEBVDispatcher@Glib@@@4@$0A@@std@@@std@@IEAAXXZ
    ?_Alloc_sentinel_and_proxy@?$_Tree@V?$_Tset_traits@PEBVDispatcher@Glib@@U?$less@PEBVDispatcher@Glib@@@std@@V?$allocator@PEBVDispatcher@Glib@@@4@$0A@@std@@@std@@IEAAXXZ
    ?_Getcomp@?$_Tree@V?$_Tset_traits@PEBVDispatcher@Glib@@U?$less@PEBVDispatcher@Glib@@@std@@V?$allocator@PEBVDispatcher@Glib@@@4@$0A@@std@@@std@@IEBAAEBU?$less@PEBVDispatcher@Glib@@@2@XZ
    ?_Getal@?$_Tree@V?$_Tset_traits@PEBVDispatcher@Glib@@U?$less@PEBVDispatcher@Glib@@@std@@V?$allocator@PEBVDispatcher@Glib@@@4@$0A@@std@@@std@@IEAAAEAV?$allocator@U?$_Tree_node@PEBVDispatcher@Glib@@PEAX@std@@@2@XZ
    ?_Getal@?$_Tree@V?$_Tset_traits@PEBVDispatcher@Glib@@U?$less@PEBVDispatcher@Glib@@@std@@V?$allocator@PEBVDispatcher@Glib@@@4@$0A@@std@@@std@@IEBAAEBV?$allocator@U?$_Tree_node@PEBVDispatcher@Glib@@PEAX@std@@@2@XZ
    ?_Get_scary@?$_Tree@V?$_Tset_traits@PEBVDispatcher@Glib@@U?$less@PEBVDispatcher@Glib@@@std@@V?$allocator@PEBVDispatcher@Glib@@@4@$0A@@std@@@std@@IEAAPEAV?$_Tree_val@U?$_Tree_simple_types@PEBVDispatcher@Glib@@@std@@@2@XZ
    ?_Get_scary@?$_Tree@V?$_Tset_traits@PEBVDispatcher@Glib@@U?$less@PEBVDispatcher@Glib@@@std@@V?$allocator@PEBVDispatcher@Glib@@@4@$0A@@std@@@std@@IEBAPEBV?$_Tree_val@U?$_Tree_simple_types@PEBVDispatcher@Glib@@@std@@@2@XZ
    ??R?$less@PEBVDispatcher@Glib@@@std@@QEBA_NAEBQEBVDispatcher@Glib@@0@Z
    ??0?$_Tree_val@U?$_Tree_simple_types@PEBVDispatcher@Glib@@@std@@@std@@QEAA@XZ
    ?_Max@?$_Tree_val@U?$_Tree_simple_types@PEBVDispatcher@Glib@@@std@@@std@@SAPEAU?$_Tree_node@PEBVDispatcher@Glib@@PEAX@2@PEAU32@@Z
    ?_Min@?$_Tree_val@U?$_Tree_simple_types@PEBVDispatcher@Glib@@@std@@@std@@SAPEAU?$_Tree_node@PEBVDispatcher@Glib@@PEAX@2@PEAU32@@Z
    ?_Lrotate@?$_Tree_val@U?$_Tree_simple_types@PEBVDispatcher@Glib@@@std@@@std@@QEAAXPEAU?$_Tree_node@PEBVDispatcher@Glib@@PEAX@2@@Z
    ?_Rrotate@?$_Tree_val@U?$_Tree_simple_types@PEBVDispatcher@Glib@@@std@@@std@@QEAAXPEAU?$_Tree_node@PEBVDispatcher@Glib@@PEAX@2@@Z
    ?_Extract@?$_Tree_val@U?$_Tree_simple_types@PEBVDispatcher@Glib@@@std@@@std@@QEAAPEAU?$_Tree_node@PEBVDispatcher@Glib@@PEAX@2@V?$_Tree_unchecked_const_iterator@V?$_Tree_val@U?$_Tree_simple_types@PEBVDispatcher@Glib@@@std@@@std@@U_Iterator_base0@2@@2@@Z
    ?_Insert_node@?$_Tree_val@U?$_Tree_simple_types@PEBVDispatcher@Glib@@@std@@@std@@QEAAPEAU?$_Tree_node@PEBVDispatcher@Glib@@PEAX@2@U?$_Tree_id@PEAU?$_Tree_node@PEBVDispatcher@Glib@@PEAX@std@@@2@QEAU32@@Z
    ?_Orphan_ptr@?$_Tree_val@U?$_Tree_simple_types@PEBVDispatcher@Glib@@@std@@@std@@QEAAXQEAU?$_Tree_node@PEBVDispatcher@Glib@@PEAX@2@@Z
    ?_Get_first@?$_Compressed_pair@V?$allocator@U?$_Tree_node@PEBVDispatcher@Glib@@PEAX@std@@@std@@V?$_Tree_val@U?$_Tree_simple_types@PEBVDispatcher@Glib@@@std@@@2@$00@std@@QEAAAEAV?$allocator@U?$_Tree_node@PEBVDispatcher@Glib@@PEAX@std@@@2@XZ
    ?_Get_first@?$_Compressed_pair@V?$allocator@U?$_Tree_node@PEBVDispatcher@Glib@@PEAX@std@@@std@@V?$_Tree_val@U?$_Tree_simple_types@PEBVDispatcher@Glib@@@std@@@2@$00@std@@QEBAAEBV?$allocator@U?$_Tree_node@PEBVDispatcher@Glib@@PEAX@std@@@2@XZ
    ?_Get_first@?$_Compressed_pair@U?$less@PEBVDispatcher@Glib@@@std@@V?$_Compressed_pair@V?$allocator@U?$_Tree_node@PEBVDispatcher@Glib@@PEAX@std@@@std@@V?$_Tree_val@U?$_Tree_simple_types@PEBVDispatcher@Glib@@@std@@@2@$00@2@$00@std@@QEBAAEBU?$less@PEBVDispatcher@Glib@@@2@XZ
    ??0?$set@PEBVDispatcher@Glib@@U?$less@PEBVDispatcher@Glib@@@std@@V?$allocator@PEBVDispatcher@Glib@@@4@@std@@QEAA@XZ
    ??1?$set@PEBVDispatcher@Glib@@U?$less@PEBVDispatcher@Glib@@@std@@V?$allocator@PEBVDispatcher@Glib@@@4@@std@@QEAA@XZ
    ??1?$RefPtr@VMainContext@Glib@@@Glib@@QEAA@XZ
    ??0?$RefPtr@VMainContext@Glib@@@Glib@@QEAA@AEBV01@@Z
    ??8?$RefPtr@VMainContext@Glib@@@Glib@@QEBA_NAEBV01@@Z
    ??C?$RefPtr@VMainContext@Glib@@@Glib@@QEBAPEAVMainContext@1@XZ
    ?create_pipe@DispatchNotifier@Glib@@AEAAXXZ
    ?pipe_io_handler@DispatchNotifier@Glib@@AEAA_NW4IOCondition@2@@Z
    ?pipe_is_empty@DispatchNotifier@Glib@@AEAA_NXZ
    ?delete_ptr@?$Private@VDispatchNotifier@Glib@@@Threads@Glib@@SAXPEAX@Z
    ??0?$Private@VDispatchNotifier@Glib@@@Threads@Glib@@QEAA@P6AXPEAX@Z@Z
    ?get@?$Private@VDispatchNotifier@Glib@@@Threads@Glib@@QEAAPEAVDispatchNotifier@3@XZ
    ?replace@?$Private@VDispatchNotifier@Glib@@@Threads@Glib@@QEAAXPEAVDispatchNotifier@3@@Z
    ??1?$RefPtr@VIOSource@Glib@@@Glib@@QEAA@XZ
    ??C?$RefPtr@VIOSource@Glib@@@Glib@@QEBAPEAVIOSource@1@XZ
    ??$mem_fun@W4IOCondition@Glib@@_NVDispatchNotifier@2@V32@@sigc@@YA?AV?$bound_mem_functor1@_NVDispatchNotifier@Glib@@W4IOCondition@2@@0@AEAVDispatchNotifier@Glib@@P823@EAA_NW4IOCondition@3@@Z@Z
    ??0?$mem_functor1@_NVDispatchNotifier@Glib@@W4IOCondition@2@@sigc@@QEAA@P8DispatchNotifier@Glib@@EAA_NW4IOCondition@3@@Z@Z
    ??0?$bound_mem_functor1@_NVDispatchNotifier@Glib@@W4IOCondition@2@@sigc@@QEAA@AEAVDispatchNotifier@Glib@@P823@EAA_NW4IOCondition@3@@Z@Z
    ??R?$bound_mem_functor1@_NVDispatchNotifier@Glib@@W4IOCondition@2@@sigc@@QEBA_NAEBW4IOCondition@Glib@@@Z
    ??0?$limit_reference@VDispatchNotifier@Glib@@$00@sigc@@QEAA@AEAVDispatchNotifier@Glib@@@Z
    ?visit@?$limit_reference@VDispatchNotifier@Glib@@$00@sigc@@QEBAAEBUtrackable@2@XZ
    ?invoke@?$limit_reference@VDispatchNotifier@Glib@@$00@sigc@@QEBAAEAVDispatchNotifier@Glib@@XZ
    ??1?$slot1@_NW4IOCondition@Glib@@@sigc@@QEAA@XZ
    ??1?$slot@_NW4IOCondition@Glib@@Unil@sigc@@U34@U34@U34@U34@U34@@sigc@@QEAA@XZ
    ??$?0V?$bound_mem_functor1@_NVDispatchNotifier@Glib@@W4IOCondition@2@@sigc@@@?$slot@_NW4IOCondition@Glib@@Unil@sigc@@U34@U34@U34@U34@U34@@sigc@@QEAA@AEBV?$bound_mem_functor1@_NVDispatchNotifier@Glib@@W4IOCondition@2@@1@@Z
    ??0?$_Tree_unchecked_const_iterator@V?$_Tree_val@U?$_Tree_simple_types@PEBVDispatcher@Glib@@@std@@@std@@U_Iterator_base12@2@@std@@QEAA@PEAU?$_Tree_node@PEBVDispatcher@Glib@@PEAX@1@PEBV?$_Tree_val@U?$_Tree_simple_types@PEBVDispatcher@Glib@@@std@@@1@@Z
    ??1?$_Tree_unchecked_const_iterator@V?$_Tree_val@U?$_Tree_simple_types@PEBVDispatcher@Glib@@@std@@@std@@U_Iterator_base12@2@@std@@QEAA@XZ
    ??0?$_Tree_unchecked_const_iterator@V?$_Tree_val@U?$_Tree_simple_types@PEBVDispatcher@Glib@@@std@@@std@@U_Iterator_base12@2@@std@@QEAA@$$QEAV01@@Z
    ??8?$_Tree_const_iterator@V?$_Tree_val@U?$_Tree_simple_types@PEBVDispatcher@Glib@@@std@@@std@@@std@@QEBA_NAEBV01@@Z
    ??9?$_Tree_const_iterator@V?$_Tree_val@U?$_Tree_simple_types@PEBVDispatcher@Glib@@@std@@@std@@@std@@QEBA_NAEBV01@@Z
    ??1?$_Tree_const_iterator@V?$_Tree_val@U?$_Tree_simple_types@PEBVDispatcher@Glib@@@std@@@std@@@std@@QEAA@XZ
    ??0?$_Tree_const_iterator@V?$_Tree_val@U?$_Tree_simple_types@PEBVDispatcher@Glib@@@std@@@std@@@std@@QEAA@$$QEAV01@@Z
    ??0?$_Tree_const_iterator@V?$_Tree_val@U?$_Tree_simple_types@PEBVDispatcher@Glib@@@std@@@std@@@std@@QEAA@PEAU?$_Tree_node@PEBVDispatcher@Glib@@PEAX@1@PEBV?$_Tree_val@U?$_Tree_simple_types@PEBVDispatcher@Glib@@@std@@@1@@Z
    ??$_Eqrange@PEBVDispatcher@Glib@@@?$_Tree@V?$_Tset_traits@PEBVDispatcher@Glib@@U?$less@PEBVDispatcher@Glib@@@std@@V?$allocator@PEBVDispatcher@Glib@@@4@$0A@@std@@@std@@IEBA?AU?$pair@PEAU?$_Tree_node@PEBVDispatcher@Glib@@PEAX@std@@PEAU12@@1@AEBQEBVDispatcher@Glib@@@Z
    ??$insert@$0A@$0A@@?$_Tree@V?$_Tset_traits@PEBVDispatcher@Glib@@U?$less@PEBVDispatcher@Glib@@@std@@V?$allocator@PEBVDispatcher@Glib@@@4@$0A@@std@@@std@@QEAA?AU?$pair@V?$_Tree_const_iterator@V?$_Tree_val@U?$_Tree_simple_types@PEBVDispatcher@Glib@@@std@@@std@@@std@@_N@1@AEBQEBVDispatcher@Glib@@@Z
    ??1?$pair@V?$_Tree_const_iterator@V?$_Tree_val@U?$_Tree_simple_types@PEBVDispatcher@Glib@@@std@@@std@@@std@@_N@std@@QEAA@XZ
    ??R?$slot0@X@sigc@@QEBAXXZ
    ??0?$slot0@X@sigc@@QEAA@AEBV01@@Z
    ??1?$slot0@X@sigc@@QEAA@XZ
    ??0?$slot@XUnil@sigc@@U12@U12@U12@U12@U12@U12@@sigc@@QEAA@AEBV01@@Z
    ??1?$slot@XUnil@sigc@@U12@U12@U12@U12@U12@U12@@sigc@@QEAA@XZ
    ??1?$slot@$$A6AXXZUnil@sigc@@U12@U12@U12@U12@U12@U12@@sigc@@QEAA@XZ
    ??$?0V?$slot@XUnil@sigc@@U12@U12@U12@U12@U12@U12@@sigc@@@?$slot@$$A6AXXZUnil@sigc@@U12@U12@U12@U12@U12@U12@@sigc@@QEAA@AEBV?$slot@XUnil@sigc@@U12@U12@U12@U12@U12@U12@@1@@Z
    ??0?$slot_iterator@V?$slot@$$A6AXXZUnil@sigc@@U12@U12@U12@U12@U12@U12@@sigc@@@sigc@@QEAA@AEBV?$_List_iterator@V?$_List_val@U?$_List_simple_types@Vslot_base@sigc@@@std@@@std@@@std@@@Z
    ??D?$slot_iterator@V?$slot@$$A6AXXZUnil@sigc@@U12@U12@U12@U12@U12@U12@@sigc@@@sigc@@QEBAAEAV?$slot@$$A6AXXZUnil@sigc@@U12@U12@U12@U12@U12@U12@@1@XZ
    ??1?$slot_iterator@V?$slot@$$A6AXXZUnil@sigc@@U12@U12@U12@U12@U12@U12@@sigc@@@sigc@@QEAA@XZ
    ??$?0V?$slot@$$A6AXXZUnil@sigc@@U12@U12@U12@U12@U12@U12@@sigc@@@connection@sigc@@QEAA@AEBU?$slot_iterator@V?$slot@$$A6AXXZUnil@sigc@@U12@U12@U12@U12@U12@U12@@sigc@@@1@@Z
    ??$move@AEAV?$slot@XUnil@sigc@@U12@U12@U12@U12@U12@U12@@sigc@@@std@@YA$$QEAV?$slot@XUnil@sigc@@U12@U12@U12@U12@U12@U12@@sigc@@AEAV12@@Z
    ??$min@_K@std@@YAAEB_KAEB_K0@Z
    ??$?0V?$bound_mem_functor1@_NVDispatchNotifier@Glib@@W4IOCondition@2@@sigc@@@?$slot1@_NW4IOCondition@Glib@@@sigc@@QEAA@AEBV?$bound_mem_functor1@_NVDispatchNotifier@Glib@@W4IOCondition@2@@1@@Z
    ??$_Emplace@AEBQEBVDispatcher@Glib@@@?$_Tree@V?$_Tset_traits@PEBVDispatcher@Glib@@U?$less@PEBVDispatcher@Glib@@@std@@V?$allocator@PEBVDispatcher@Glib@@@4@$0A@@std@@@std@@IEAA?AU?$pair@PEAU?$_Tree_node@PEBVDispatcher@Glib@@PEAX@std@@_N@1@AEBQEBVDispatcher@Glib@@@Z
    ??$?0V?$_Tree_const_iterator@V?$_Tree_val@U?$_Tree_simple_types@PEBVDispatcher@Glib@@@std@@@std@@@std@@AEB_N$0A@@?$pair@V?$_Tree_const_iterator@V?$_Tree_val@U?$_Tree_simple_types@PEBVDispatcher@Glib@@@std@@@std@@@std@@_N@std@@QEAA@$$QEAV?$_Tree_const_iterator@V?$_Tree_val@U?$_Tree_simple_types@PEBVDispatcher@Glib@@@std@@@std@@@1@AEB_N@Z
    ??R?$adaptor_functor@V?$slot@XUnil@sigc@@U12@U12@U12@U12@U12@U12@@sigc@@@sigc@@QEBAXXZ
    ??0?$adaptor_functor@V?$slot@XUnil@sigc@@U12@U12@U12@U12@U12@U12@@sigc@@@sigc@@QEAA@AEBV?$slot@XUnil@sigc@@U12@U12@U12@U12@U12@U12@@1@@Z
    ??1?$adaptor_functor@V?$slot@XUnil@sigc@@U12@U12@U12@U12@U12@U12@@sigc@@@sigc@@QEAA@XZ
    ??0?$adaptor_functor@V?$slot@XUnil@sigc@@U12@U12@U12@U12@U12@U12@@sigc@@@sigc@@QEAA@AEBU01@@Z
    ??0?$typed_slot_rep@V?$slot@XUnil@sigc@@U12@U12@U12@U12@U12@U12@@sigc@@@internal@sigc@@QEAA@AEBV?$slot@XUnil@sigc@@U12@U12@U12@U12@U12@U12@@2@@Z
    ??0?$typed_slot_rep@V?$slot@XUnil@sigc@@U12@U12@U12@U12@U12@U12@@sigc@@@internal@sigc@@QEAA@AEBU012@@Z
    ?destroy@?$typed_slot_rep@V?$slot@XUnil@sigc@@U12@U12@U12@U12@U12@U12@@sigc@@@internal@sigc@@SAPEAXPEAX@Z
    ?dup@?$typed_slot_rep@V?$slot@XUnil@sigc@@U12@U12@U12@U12@U12@U12@@sigc@@@internal@sigc@@SAPEAXPEAX@Z
    ?call_it@?$slot_call@V?$slot@XUnil@sigc@@U12@U12@U12@U12@U12@U12@@sigc@@X$$V@internal@sigc@@SAXPEAUslot_rep@23@@Z
    ?address@?$slot_call@V?$slot@XUnil@sigc@@U12@U12@U12@U12@U12@U12@@sigc@@X$$V@internal@sigc@@SAP6APEAXPEAX@ZXZ
    ?allocate@?$allocator@U_Container_proxy@std@@@std@@QEAAPEAU_Container_proxy@2@_K@Z
    ??$_Delete_plain_internal@V?$allocator@U_Container_proxy@std@@@std@@@std@@YAXAEAV?$allocator@U_Container_proxy@std@@@0@QEAU_Container_proxy@0@@Z
    ??$_Find@PEBVDispatcher@Glib@@@?$_Tree@V?$_Tset_traits@PEBVDispatcher@Glib@@U?$less@PEBVDispatcher@Glib@@@std@@V?$allocator@PEBVDispatcher@Glib@@@4@$0A@@std@@@std@@AEBAPEAU?$_Tree_node@PEBVDispatcher@Glib@@PEAX@1@AEBQEBVDispatcher@Glib@@@Z
    ??$_Erase_tree@V?$allocator@U?$_Tree_node@PEBVDispatcher@Glib@@PEAX@std@@@std@@@?$_Tree_val@U?$_Tree_simple_types@PEBVDispatcher@Glib@@@std@@@std@@QEAAXAEAV?$allocator@U?$_Tree_node@PEBVDispatcher@Glib@@PEAX@std@@@1@PEAU?$_Tree_node@PEBVDispatcher@Glib@@PEAX@1@@Z
    ??$_Erase_head@V?$allocator@U?$_Tree_node@PEBVDispatcher@Glib@@PEAX@std@@@std@@@?$_Tree_val@U?$_Tree_simple_types@PEBVDispatcher@Glib@@@std@@@std@@QEAAXAEAV?$allocator@U?$_Tree_node@PEBVDispatcher@Glib@@PEAX@std@@@1@@Z
    ??$?0U?$_Tree_node@PEBVDispatcher@Glib@@PEAX@std@@@?$allocator@U_Container_proxy@std@@@std@@QEAA@AEBV?$allocator@U?$_Tree_node@PEBVDispatcher@Glib@@PEAX@std@@@1@@Z
    ??$move@AEAVslot_base@sigc@@@std@@YA$$QEAVslot_base@sigc@@AEAV12@@Z
    ??$addressof@V?$_List_val@U?$_List_simple_types@Vslot_base@sigc@@@std@@@std@@@std@@YAPEAV?$_List_val@U?$_List_simple_types@Vslot_base@sigc@@@std@@@0@AEAV10@@Z
    ??$_Freenode@V?$allocator@U?$_List_node@Vslot_base@sigc@@PEAX@std@@@std@@@?$_List_node@Vslot_base@sigc@@PEAX@std@@SAXAEAV?$allocator@U?$_List_node@Vslot_base@sigc@@PEAX@std@@@1@PEAU01@@Z
    ??$emplace@Vslot_base@sigc@@@?$list@Vslot_base@sigc@@V?$allocator@Vslot_base@sigc@@@std@@@std@@QEAA?AV?$_List_iterator@V?$_List_val@U?$_List_simple_types@Vslot_base@sigc@@@std@@@std@@@1@V?$_List_const_iterator@V?$_List_val@U?$_List_simple_types@Vslot_base@sigc@@@std@@@std@@@1@$$QEAVslot_base@sigc@@@Z
    ??$_Debug_lt_pred@AEBU?$less@PEBVDispatcher@Glib@@@std@@AEBQEBVDispatcher@Glib@@AEBQEBV34@@std@@YA_NAEBU?$less@PEBVDispatcher@Glib@@@0@AEBQEBVDispatcher@Glib@@1@Z
    ??$?0AEAPEAU?$_Tree_node@PEBVDispatcher@Glib@@PEAX@std@@AEAPEAU01@$0A@@?$pair@PEAU?$_Tree_node@PEBVDispatcher@Glib@@PEAX@std@@PEAU12@@std@@QEAA@AEAPEAU?$_Tree_node@PEBVDispatcher@Glib@@PEAX@1@0@Z
    ??0?$adaptor_functor@V?$bound_mem_functor1@_NVDispatchNotifier@Glib@@W4IOCondition@2@@sigc@@@sigc@@QEAA@AEBV?$bound_mem_functor1@_NVDispatchNotifier@Glib@@W4IOCondition@2@@1@@Z
    ??0?$typed_slot_rep@V?$bound_mem_functor1@_NVDispatchNotifier@Glib@@W4IOCondition@2@@sigc@@@internal@sigc@@QEAA@AEBV?$bound_mem_functor1@_NVDispatchNotifier@Glib@@W4IOCondition@2@@2@@Z
    ??0?$typed_slot_rep@V?$bound_mem_functor1@_NVDispatchNotifier@Glib@@W4IOCondition@2@@sigc@@@internal@sigc@@QEAA@AEBU012@@Z
    ?destroy@?$typed_slot_rep@V?$bound_mem_functor1@_NVDispatchNotifier@Glib@@W4IOCondition@2@@sigc@@@internal@sigc@@SAPEAXPEAX@Z
    ?dup@?$typed_slot_rep@V?$bound_mem_functor1@_NVDispatchNotifier@Glib@@W4IOCondition@2@@sigc@@@internal@sigc@@SAPEAXPEAX@Z
    ?call_it@?$slot_call1@V?$bound_mem_functor1@_NVDispatchNotifier@Glib@@W4IOCondition@2@@sigc@@_NW4IOCondition@Glib@@@internal@sigc@@SA_NPEAUslot_rep@23@AEBW4IOCondition@Glib@@@Z
    ?address@?$slot_call1@V?$bound_mem_functor1@_NVDispatchNotifier@Glib@@W4IOCondition@2@@sigc@@_NW4IOCondition@Glib@@@internal@sigc@@SAP6APEAXPEAX@ZXZ
    ?_Extract@?$_In_place_key_extract_set_impl@PEBVDispatcher@Glib@@PEBV12@@std@@SAAEBQEBVDispatcher@Glib@@AEBQEBV34@@Z
    ??$_Find_lower_bound@PEBVDispatcher@Glib@@@?$_Tree@V?$_Tset_traits@PEBVDispatcher@Glib@@U?$less@PEBVDispatcher@Glib@@@std@@V?$allocator@PEBVDispatcher@Glib@@@4@$0A@@std@@@std@@IEBA?AU?$_Tree_find_result@PEAU?$_Tree_node@PEBVDispatcher@Glib@@PEAX@std@@@1@AEBQEBVDispatcher@Glib@@@Z
    ??$_Lower_bound_duplicate@PEBVDispatcher@Glib@@@?$_Tree@V?$_Tset_traits@PEBVDispatcher@Glib@@U?$less@PEBVDispatcher@Glib@@@std@@V?$allocator@PEBVDispatcher@Glib@@@4@$0A@@std@@@std@@IEBA_NQEAU?$_Tree_node@PEBVDispatcher@Glib@@PEAX@1@AEBQEBVDispatcher@Glib@@@Z
    ??$?0AEAPEAU?$_Tree_node@PEBVDispatcher@Glib@@PEAX@std@@_N$0A@@?$pair@PEAU?$_Tree_node@PEBVDispatcher@Glib@@PEAX@std@@_N@std@@QEAA@AEAPEAU?$_Tree_node@PEBVDispatcher@Glib@@PEAX@1@$$QEA_N@Z
    ??$forward@AEBQEBVDispatcher@Glib@@@std@@YAAEBQEBVDispatcher@Glib@@AEBQEBV12@@Z
    ??0?$_Alloc_construct_ptr@V?$allocator@U?$_Tree_node@PEBVDispatcher@Glib@@PEAX@std@@@std@@@std@@QEAA@AEAV?$allocator@U?$_Tree_node@PEBVDispatcher@Glib@@PEAX@std@@@1@@Z
    ?_Release@?$_Alloc_construct_ptr@V?$allocator@U?$_Tree_node@PEBVDispatcher@Glib@@PEAX@std@@@std@@@std@@QEAAPEAU?$_Tree_node@PEBVDispatcher@Glib@@PEAX@2@XZ
    ?_Allocate@?$_Alloc_construct_ptr@V?$allocator@U?$_Tree_node@PEBVDispatcher@Glib@@PEAX@std@@@std@@@std@@QEAAXXZ
    ??1?$_Alloc_construct_ptr@V?$allocator@U?$_Tree_node@PEBVDispatcher@Glib@@PEAX@std@@@std@@@std@@QEAA@XZ
    ??0?$_Tree_temp_node_alloc@V?$allocator@U?$_Tree_node@PEBVDispatcher@Glib@@PEAX@std@@@std@@@std@@QEAA@AEAV?$allocator@U?$_Tree_node@PEBVDispatcher@Glib@@PEAX@std@@@1@@Z
    ??1?$_Tree_temp_node_alloc@V?$allocator@U?$_Tree_node@PEBVDispatcher@Glib@@PEAX@std@@@std@@@std@@QEAA@XZ
    ??1?$_Tree_temp_node@V?$allocator@U?$_Tree_node@PEBVDispatcher@Glib@@PEAX@std@@@std@@@std@@QEAA@XZ
    ??$?0AEBQEBVDispatcher@Glib@@@?$_Tree_temp_node@V?$allocator@U?$_Tree_node@PEBVDispatcher@Glib@@PEAX@std@@@std@@@std@@QEAA@AEAV?$allocator@U?$_Tree_node@PEBVDispatcher@Glib@@PEAX@std@@@1@PEAU?$_Tree_node@PEBVDispatcher@Glib@@PEAX@1@AEBQEBVDispatcher@Glib@@@Z
    ??$?0PEAU?$_Tree_node@PEBVDispatcher@Glib@@PEAX@std@@_N$0A@@?$pair@PEAU?$_Tree_node@PEBVDispatcher@Glib@@PEAX@std@@_N@std@@QEAA@$$QEAPEAU?$_Tree_node@PEBVDispatcher@Glib@@PEAX@1@$$QEA_N@Z
    ??$forward@V?$_Tree_const_iterator@V?$_Tree_val@U?$_Tree_simple_types@PEBVDispatcher@Glib@@@std@@@std@@@std@@@std@@YA$$QEAV?$_Tree_const_iterator@V?$_Tree_val@U?$_Tree_simple_types@PEBVDispatcher@Glib@@@std@@@std@@@0@AEAV10@@Z
    ??$forward@AEB_N@std@@YAAEB_NAEB_N@Z
    ??$_Deallocate_plain@V?$allocator@U_Container_proxy@std@@@std@@@std@@YAXAEAV?$allocator@U_Container_proxy@std@@@0@QEAU_Container_proxy@0@@Z
    ??$exchange@PEAU?$_Tree_node@PEBVDispatcher@Glib@@PEAX@std@@AEAPEAU12@@std@@YAPEAU?$_Tree_node@PEBVDispatcher@Glib@@PEAX@0@AEAPEAU10@0@Z
    ??$_Freenode@V?$allocator@U?$_Tree_node@PEBVDispatcher@Glib@@PEAX@std@@@std@@@?$_Tree_node@PEBVDispatcher@Glib@@PEAX@std@@SAXAEAV?$allocator@U?$_Tree_node@PEBVDispatcher@Glib@@PEAX@std@@@1@PEAU01@@Z
    ??$_Freenode0@V?$allocator@U?$_Tree_node@PEBVDispatcher@Glib@@PEAX@std@@@std@@@?$_Tree_node@PEBVDispatcher@Glib@@PEAX@std@@SAXAEAV?$allocator@U?$_Tree_node@PEBVDispatcher@Glib@@PEAX@std@@@1@PEAU01@@Z
    ??$addressof@Vslot_base@sigc@@@std@@YAPEAVslot_base@sigc@@AEAV12@@Z
    ??$destroy@Vslot_base@sigc@@@?$_Default_allocator_traits@V?$allocator@U?$_List_node@Vslot_base@sigc@@PEAX@std@@@std@@@std@@SAXAEAV?$allocator@U?$_List_node@Vslot_base@sigc@@PEAX@std@@@1@QEAVslot_base@sigc@@@Z
    ??$_Freenode0@V?$allocator@U?$_List_node@Vslot_base@sigc@@PEAX@std@@@std@@@?$_List_node@Vslot_base@sigc@@PEAX@std@@SAXAEAV?$allocator@U?$_List_node@Vslot_base@sigc@@PEAX@std@@@1@PEAU01@@Z
    ??$forward@Vslot_base@sigc@@@std@@YA$$QEAVslot_base@sigc@@AEAV12@@Z
    ??$_Emplace@Vslot_base@sigc@@@?$list@Vslot_base@sigc@@V?$allocator@Vslot_base@sigc@@@std@@@std@@QEAAPEAU?$_List_node@Vslot_base@sigc@@PEAX@1@QEAU21@$$QEAVslot_base@sigc@@@Z
    ??0?$_Container_proxy_ptr12@V?$allocator@U_Container_proxy@std@@@std@@@std@@QEAA@AEAV?$allocator@U_Container_proxy@std@@@1@AEAU_Container_base12@1@@Z
    ??1?$_Container_proxy_ptr12@V?$allocator@U_Container_proxy@std@@@std@@@std@@QEAA@XZ
    ??$_Unfancy@U_Container_proxy@std@@@std@@YAPEAU_Container_proxy@0@PEAU10@@Z
    ??$_Construct_in_place@U_Container_proxy@std@@PEAU_Container_base12@2@@std@@YAXAEAU_Container_proxy@0@$$QEAPEAU_Container_base12@0@@Z
    ??$function_pointer_cast@P6APEAXPEAX@ZP6AXPEAUslot_rep@internal@sigc@@@Z@internal@sigc@@YAP6APEAXPEAX@ZP6AXPEAUslot_rep@01@@Z@Z
    ??$visit_each_type@PEAUtrackable@sigc@@Uslot_do_bind@internal@2@U?$adaptor_functor@V?$slot@XUnil@sigc@@U12@U12@U12@U12@U12@U12@@sigc@@@2@@sigc@@YAXAEBUslot_do_bind@internal@0@AEBU?$adaptor_functor@V?$slot@XUnil@sigc@@U12@U12@U12@U12@U12@U12@@sigc@@@0@@Z
    ??$addressof@$$CBV?$_Tree_val@U?$_Tree_simple_types@PEBVDispatcher@Glib@@@std@@@std@@@std@@YAPEBV?$_Tree_val@U?$_Tree_simple_types@PEBVDispatcher@Glib@@@std@@@0@AEBV10@@Z
    ??$addressof@V?$_Tree_val@U?$_Tree_simple_types@PEBVDispatcher@Glib@@@std@@@std@@@std@@YAPEAV?$_Tree_val@U?$_Tree_simple_types@PEBVDispatcher@Glib@@@std@@@0@AEAV10@@Z
    ??0?$_Tree_unchecked_const_iterator@V?$_Tree_val@U?$_Tree_simple_types@PEBVDispatcher@Glib@@@std@@@std@@U_Iterator_base0@2@@std@@QEAA@PEAU?$_Tree_node@PEBVDispatcher@Glib@@PEAX@1@PEBV?$_Tree_val@U?$_Tree_simple_types@PEBVDispatcher@Glib@@@std@@@1@@Z
    ??E?$_Tree_unchecked_const_iterator@V?$_Tree_val@U?$_Tree_simple_types@PEBVDispatcher@Glib@@@std@@@std@@U_Iterator_base0@2@@std@@QEAAAEAV01@XZ
    ??E?$_Tree_unchecked_const_iterator@V?$_Tree_val@U?$_Tree_simple_types@PEBVDispatcher@Glib@@@std@@@std@@U_Iterator_base0@2@@std@@QEAA?AV01@H@Z
    ??8?$_Tree_unchecked_const_iterator@V?$_Tree_val@U?$_Tree_simple_types@PEBVDispatcher@Glib@@@std@@@std@@U_Iterator_base0@2@@std@@QEBA_NAEBV01@@Z
    ??9?$_Tree_unchecked_const_iterator@V?$_Tree_val@U?$_Tree_simple_types@PEBVDispatcher@Glib@@@std@@@std@@U_Iterator_base0@2@@std@@QEBA_NAEBV01@@Z
    ??$distance@V?$_Tree_unchecked_const_iterator@V?$_Tree_val@U?$_Tree_simple_types@PEBVDispatcher@Glib@@@std@@@std@@U_Iterator_base0@2@@std@@@std@@YA_JV?$_Tree_unchecked_const_iterator@V?$_Tree_val@U?$_Tree_simple_types@PEBVDispatcher@Glib@@@std@@@std@@U_Iterator_base0@2@@0@0@Z
    ??$?0AEBU?$less@PEBVDispatcher@Glib@@@std@@U_Zero_then_variadic_args_t@1@@?$_Compressed_pair@U?$less@PEBVDispatcher@Glib@@@std@@V?$_Compressed_pair@V?$allocator@U?$_Tree_node@PEBVDispatcher@Glib@@PEAX@std@@@std@@V?$_Tree_val@U?$_Tree_simple_types@PEBVDispatcher@Glib@@@std@@@2@$00@2@$00@std@@QEAA@U_One_then_variadic_args_t@1@AEBU?$less@PEBVDispatcher@Glib@@@1@$$QEAU_Zero_then_variadic_args_t@1@@Z
    ??$?0$$V@?$_Compressed_pair@V?$allocator@U?$_Tree_node@PEBVDispatcher@Glib@@PEAX@std@@@std@@V?$_Tree_val@U?$_Tree_simple_types@PEBVDispatcher@Glib@@@std@@@2@$00@std@@QEAA@U_Zero_then_variadic_args_t@1@@Z
    ??$addressof@$$CBV?$_List_val@U?$_List_simple_types@Vslot_base@sigc@@@std@@@std@@@std@@YAPEBV?$_List_val@U?$_List_simple_types@Vslot_base@sigc@@@std@@@0@AEBV10@@Z
    ??$_Deallocate@$0BA@@std@@YAXPEAX_K@Z
    ??$forward@AEAPEAU?$_Tree_node@PEBVDispatcher@Glib@@PEAX@std@@@std@@YAAEAPEAU?$_Tree_node@PEBVDispatcher@Glib@@PEAX@0@AEAPEAU10@@Z
    ??$forward@_N@std@@YA$$QEA_NAEA_N@Z
    ??$addressof@PEBVDispatcher@Glib@@@std@@YAPEAPEBVDispatcher@Glib@@AEAPEBV12@@Z
    ??$construct@PEBVDispatcher@Glib@@AEBQEBV12@@?$_Default_allocator_traits@V?$allocator@U?$_Tree_node@PEBVDispatcher@Glib@@PEAX@std@@@std@@@std@@SAXAEAV?$allocator@U?$_Tree_node@PEBVDispatcher@Glib@@PEAX@std@@@1@QEAPEBVDispatcher@Glib@@AEBQEBV34@@Z
    ??$_Construct_in_place@PEAU?$_Tree_node@PEBVDispatcher@Glib@@PEAX@std@@AEAPEAU12@@std@@YAXAEAPEAU?$_Tree_node@PEBVDispatcher@Glib@@PEAX@0@0@Z
    ??$forward@PEAU?$_Tree_node@PEBVDispatcher@Glib@@PEAX@std@@@std@@YA$$QEAPEAU?$_Tree_node@PEBVDispatcher@Glib@@PEAX@0@AEAPEAU10@@Z
    ?deallocate@?$_Default_allocator_traits@V?$allocator@U_Container_proxy@std@@@std@@@std@@SAXAEAV?$allocator@U_Container_proxy@std@@@2@QEAU_Container_proxy@2@_K@Z
    ??$destroy@PEBVDispatcher@Glib@@@?$_Default_allocator_traits@V?$allocator@U?$_Tree_node@PEBVDispatcher@Glib@@PEAX@std@@@std@@@std@@SAXAEAV?$allocator@U?$_Tree_node@PEBVDispatcher@Glib@@PEAX@std@@@1@QEAPEBVDispatcher@Glib@@@Z
    ??$_Destroy_in_place@PEAU?$_Tree_node@PEBVDispatcher@Glib@@PEAX@std@@@std@@YAXAEAPEAU?$_Tree_node@PEBVDispatcher@Glib@@PEAX@0@@Z
    ??$_Destroy_in_place@PEAU?$_List_node@Vslot_base@sigc@@PEAX@std@@@std@@YAXAEAPEAU?$_List_node@Vslot_base@sigc@@PEAX@0@@Z
    ??0?$_Alloc_construct_ptr@V?$allocator@U?$_List_node@Vslot_base@sigc@@PEAX@std@@@std@@@std@@QEAA@AEAV?$allocator@U?$_List_node@Vslot_base@sigc@@PEAX@std@@@1@@Z
    ?_Allocate@?$_Alloc_construct_ptr@V?$allocator@U?$_List_node@Vslot_base@sigc@@PEAX@std@@@std@@@std@@QEAAXXZ
    ??1?$_Alloc_construct_ptr@V?$allocator@U?$_List_node@Vslot_base@sigc@@PEAX@std@@@std@@@std@@QEAA@XZ
    ??1?$_List_node_emplace_op2@V?$allocator@U?$_List_node@Vslot_base@sigc@@PEAX@std@@@std@@@std@@QEAA@XZ
    ?_Transfer_before@?$_List_node_emplace_op2@V?$allocator@U?$_List_node@Vslot_base@sigc@@PEAX@std@@@std@@@std@@QEAAPEAU?$_List_node@Vslot_base@sigc@@PEAX@2@QEAU32@@Z
    ??$?0Vslot_base@sigc@@@?$_List_node_emplace_op2@V?$allocator@U?$_List_node@Vslot_base@sigc@@PEAX@std@@@std@@@std@@QEAA@AEAV?$allocator@U?$_List_node@Vslot_base@sigc@@PEAX@std@@@1@$$QEAVslot_base@sigc@@@Z
    ??$swap@D$0A@@std@@YAXAEAD0@Z
    ??$addressof@U_Container_proxy@std@@@std@@YAPEAU_Container_proxy@0@AEAU10@@Z
    ??$forward@PEAU_Container_base12@std@@@std@@YA$$QEAPEAU_Container_base12@0@AEAPEAU10@@Z
    ??0?$limit_derived_target@PEAUtrackable@sigc@@Uslot_do_bind@internal@2@@internal@sigc@@QEAA@AEBUslot_do_bind@12@@Z
    ??$visit_each@U?$limit_derived_target@PEAUtrackable@sigc@@Uslot_do_bind@internal@2@@internal@sigc@@U?$adaptor_functor@V?$slot@XUnil@sigc@@U12@U12@U12@U12@U12@U12@@sigc@@@3@@sigc@@YAXAEBU?$limit_derived_target@PEAUtrackable@sigc@@Uslot_do_bind@internal@2@@internal@0@AEBU?$adaptor_functor@V?$slot@XUnil@sigc@@U12@U12@U12@U12@U12@U12@@sigc@@@0@@Z
    ??$_Adl_verify_range@V?$_Tree_unchecked_const_iterator@V?$_Tree_val@U?$_Tree_simple_types@PEBVDispatcher@Glib@@@std@@@std@@U_Iterator_base0@2@@std@@V12@@std@@YAXAEBV?$_Tree_unchecked_const_iterator@V?$_Tree_val@U?$_Tree_simple_types@PEBVDispatcher@Glib@@@std@@@std@@U_Iterator_base0@2@@0@0@Z
    ??$_Get_unwrapped@AEAV?$_Tree_unchecked_const_iterator@V?$_Tree_val@U?$_Tree_simple_types@PEBVDispatcher@Glib@@@std@@@std@@U_Iterator_base0@2@@std@@@std@@YA?A_TAEAV?$_Tree_unchecked_const_iterator@V?$_Tree_val@U?$_Tree_simple_types@PEBVDispatcher@Glib@@@std@@@std@@U_Iterator_base0@2@@0@@Z
    ??$forward@AEBU?$less@PEBVDispatcher@Glib@@@std@@@std@@YAAEBU?$less@PEBVDispatcher@Glib@@@0@AEBU10@@Z
    ??$forward@U_Zero_then_variadic_args_t@std@@@std@@YA$$QEAU_Zero_then_variadic_args_t@0@AEAU10@@Z
    ??$addressof@U_Container_base12@std@@@std@@YAPEAU_Container_base12@0@AEAU10@@Z
    ??$exchange@PEAU?$_Tree_node@PEBVDispatcher@Glib@@PEAX@std@@$$T@std@@YAPEAU?$_Tree_node@PEBVDispatcher@Glib@@PEAX@0@AEAPEAU10@$$QEA$$T@Z
    ??$function_pointer_cast@P6APEAXPEAX@ZP6A_NPEAUslot_rep@internal@sigc@@AEBW4IOCondition@Glib@@@Z@internal@sigc@@YAP6APEAXPEAX@ZP6A_NPEAUslot_rep@01@AEBW4IOCondition@Glib@@@Z@Z
    ??$visit_each_type@PEAUtrackable@sigc@@Uslot_do_bind@internal@2@U?$adaptor_functor@V?$bound_mem_functor1@_NVDispatchNotifier@Glib@@W4IOCondition@2@@sigc@@@2@@sigc@@YAXAEBUslot_do_bind@internal@0@AEBU?$adaptor_functor@V?$bound_mem_functor1@_NVDispatchNotifier@Glib@@W4IOCondition@2@@sigc@@@0@@Z
    ??$_Get_size_of_n@$0BA@@std@@YA_K_K@Z
    ??$_Allocate@$0BA@U_Default_allocate_traits@std@@@std@@YAPEAX_K@Z
    ??$visit_each_type@PEAUtrackable@sigc@@Uslot_do_unbind@internal@2@U?$adaptor_functor@V?$slot@XUnil@sigc@@U12@U12@U12@U12@U12@U12@@sigc@@@2@@sigc@@YAXAEBUslot_do_unbind@internal@0@AEBU?$adaptor_functor@V?$slot@XUnil@sigc@@U12@U12@U12@U12@U12@U12@@sigc@@@0@@Z
    ??$_Get_size_of_n@$0CA@@std@@YA_K_K@Z
    ??$_Max_limit@_J@std@@YA_JXZ
    ??$_Buyheadnode@V?$allocator@U?$_Tree_node@PEBVDispatcher@Glib@@PEAX@std@@@std@@@?$_Tree_node@PEBVDispatcher@Glib@@PEAX@std@@SAPEAU01@AEAV?$allocator@U?$_Tree_node@PEBVDispatcher@Glib@@PEAX@std@@@1@@Z
    ??$addressof@PEAU?$_Tree_node@PEBVDispatcher@Glib@@PEAX@std@@@std@@YAPEAPEAU?$_Tree_node@PEBVDispatcher@Glib@@PEAX@0@AEAPEAU10@@Z
    ??$construct@Vslot_base@sigc@@V12@@?$_Default_allocator_traits@V?$allocator@U?$_List_node@Vslot_base@sigc@@PEAX@std@@@std@@@std@@SAXAEAV?$allocator@U?$_List_node@Vslot_base@sigc@@PEAX@std@@@1@QEAVslot_base@sigc@@$$QEAV34@@Z
    ??$move@AEAD@std@@YA$$QEADAEAD@Z
    ??$do_visit_each@U?$limit_derived_target@PEAUtrackable@sigc@@Uslot_do_bind@internal@2@@internal@sigc@@@?$visitor@U?$adaptor_functor@V?$slot@XUnil@sigc@@U12@U12@U12@U12@U12@U12@@sigc@@@sigc@@@sigc@@SAXAEBU?$limit_derived_target@PEAUtrackable@sigc@@Uslot_do_bind@internal@2@@internal@1@AEBU?$adaptor_functor@V?$slot@XUnil@sigc@@U12@U12@U12@U12@U12@U12@@sigc@@@1@@Z
    ??$visit_each@U?$limit_derived_target@PEAUtrackable@sigc@@Uslot_do_bind@internal@2@@internal@sigc@@U?$adaptor_functor@V?$bound_mem_functor1@_NVDispatchNotifier@Glib@@W4IOCondition@2@@sigc@@@3@@sigc@@YAXAEBU?$limit_derived_target@PEAUtrackable@sigc@@Uslot_do_bind@internal@2@@internal@0@AEBU?$adaptor_functor@V?$bound_mem_functor1@_NVDispatchNotifier@Glib@@W4IOCondition@2@@sigc@@@0@@Z
    ??$_Allocate_manually_vector_aligned@U_Default_allocate_traits@std@@@std@@YAPEAX_K@Z
    ??0?$limit_derived_target@PEAUtrackable@sigc@@Uslot_do_unbind@internal@2@@internal@sigc@@QEAA@AEBUslot_do_unbind@12@@Z
    ??$visit_each@U?$limit_derived_target@PEAUtrackable@sigc@@Uslot_do_unbind@internal@2@@internal@sigc@@U?$adaptor_functor@V?$slot@XUnil@sigc@@U12@U12@U12@U12@U12@U12@@sigc@@@3@@sigc@@YAXAEBU?$limit_derived_target@PEAUtrackable@sigc@@Uslot_do_unbind@internal@2@@internal@0@AEBU?$adaptor_functor@V?$slot@XUnil@sigc@@U12@U12@U12@U12@U12@U12@@sigc@@@0@@Z
    ??$_Construct_in_place@PEAU?$_Tree_node@PEBVDispatcher@Glib@@PEAX@std@@AEBQEAU12@@std@@YAXAEAPEAU?$_Tree_node@PEBVDispatcher@Glib@@PEAX@0@AEBQEAU10@@Z
    ??$_Construct_in_place@PEAU?$_List_node@Vslot_base@sigc@@PEAX@std@@AEBQEAU12@@std@@YAXAEAPEAU?$_List_node@Vslot_base@sigc@@PEAX@0@AEBQEAU10@@Z
    ??$?RAEBW4IOCondition@Glib@@@?$adaptor_functor@V?$bound_mem_functor1@_NVDispatchNotifier@Glib@@W4IOCondition@2@@sigc@@@sigc@@QEBA_NAEBW4IOCondition@Glib@@@Z
    ??$visit_each_type@PEAUtrackable@sigc@@Uslot_do_unbind@internal@2@U?$adaptor_functor@V?$bound_mem_functor1@_NVDispatchNotifier@Glib@@W4IOCondition@2@@sigc@@@2@@sigc@@YAXAEBUslot_do_unbind@internal@0@AEBU?$adaptor_functor@V?$bound_mem_functor1@_NVDispatchNotifier@Glib@@W4IOCondition@2@@sigc@@@0@@Z
    ??$visit_each@U?$limit_derived_target@PEAUtrackable@sigc@@Uslot_do_bind@internal@2@@internal@sigc@@V?$slot@XUnil@sigc@@U12@U12@U12@U12@U12@U12@@3@@sigc@@YAXAEBU?$limit_derived_target@PEAUtrackable@sigc@@Uslot_do_bind@internal@2@@internal@0@AEBV?$slot@XUnil@sigc@@U12@U12@U12@U12@U12@U12@@0@@Z
    ??$do_visit_each@U?$limit_derived_target@PEAUtrackable@sigc@@Uslot_do_bind@internal@2@@internal@sigc@@@?$visitor@U?$adaptor_functor@V?$bound_mem_functor1@_NVDispatchNotifier@Glib@@W4IOCondition@2@@sigc@@@sigc@@@sigc@@SAXAEBU?$limit_derived_target@PEAUtrackable@sigc@@Uslot_do_bind@internal@2@@internal@1@AEBU?$adaptor_functor@V?$bound_mem_functor1@_NVDispatchNotifier@Glib@@W4IOCondition@2@@sigc@@@1@@Z
    ??$do_visit_each@U?$limit_derived_target@PEAUtrackable@sigc@@Uslot_do_unbind@internal@2@@internal@sigc@@@?$visitor@U?$adaptor_functor@V?$slot@XUnil@sigc@@U12@U12@U12@U12@U12@U12@@sigc@@@sigc@@@sigc@@SAXAEBU?$limit_derived_target@PEAUtrackable@sigc@@Uslot_do_unbind@internal@2@@internal@1@AEBU?$adaptor_functor@V?$slot@XUnil@sigc@@U12@U12@U12@U12@U12@U12@@sigc@@@1@@Z
    ??$forward@AEBQEAU?$_Tree_node@PEBVDispatcher@Glib@@PEAX@std@@@std@@YAAEBQEAU?$_Tree_node@PEBVDispatcher@Glib@@PEAX@0@AEBQEAU10@@Z
    ??$addressof@PEAU?$_List_node@Vslot_base@sigc@@PEAX@std@@@std@@YAPEAPEAU?$_List_node@Vslot_base@sigc@@PEAX@0@AEAPEAU10@@Z
    ??$forward@AEBQEAU?$_List_node@Vslot_base@sigc@@PEAX@std@@@std@@YAAEBQEAU?$_List_node@Vslot_base@sigc@@PEAX@0@AEBQEAU10@@Z
    ??$visit_each@U?$limit_derived_target@PEAUtrackable@sigc@@Uslot_do_unbind@internal@2@@internal@sigc@@U?$adaptor_functor@V?$bound_mem_functor1@_NVDispatchNotifier@Glib@@W4IOCondition@2@@sigc@@@3@@sigc@@YAXAEBU?$limit_derived_target@PEAUtrackable@sigc@@Uslot_do_unbind@internal@2@@internal@0@AEBU?$adaptor_functor@V?$bound_mem_functor1@_NVDispatchNotifier@Glib@@W4IOCondition@2@@sigc@@@0@@Z
    ??$_Get_size_of_n@$0CI@@std@@YA_K_K@Z
    ?do_visit_each@?$visitor@V?$slot@XUnil@sigc@@U12@U12@U12@U12@U12@U12@@sigc@@@sigc@@SAXAEBU?$limit_derived_target@PEAUtrackable@sigc@@Uslot_do_bind@internal@2@@internal@2@AEBV?$slot@XUnil@sigc@@U12@U12@U12@U12@U12@U12@@2@@Z
    ?do_visit_each@?$visitor@V?$slot@XUnil@sigc@@U12@U12@U12@U12@U12@U12@@sigc@@@sigc@@SAXAEBU?$limit_derived_target@PEAUtrackable@sigc@@Uslot_do_unbind@internal@2@@internal@2@AEBV?$slot@XUnil@sigc@@U12@U12@U12@U12@U12@U12@@2@@Z
    ??$visit_each@U?$limit_derived_target@PEAUtrackable@sigc@@Uslot_do_bind@internal@2@@internal@sigc@@V?$bound_mem_functor1@_NVDispatchNotifier@Glib@@W4IOCondition@2@@3@@sigc@@YAXAEBU?$limit_derived_target@PEAUtrackable@sigc@@Uslot_do_bind@internal@2@@internal@0@AEBV?$bound_mem_functor1@_NVDispatchNotifier@Glib@@W4IOCondition@2@@0@@Z
    ??$visit_each@U?$limit_derived_target@PEAUtrackable@sigc@@Uslot_do_unbind@internal@2@@internal@sigc@@V?$slot@XUnil@sigc@@U12@U12@U12@U12@U12@U12@@3@@sigc@@YAXAEBU?$limit_derived_target@PEAUtrackable@sigc@@Uslot_do_unbind@internal@2@@internal@0@AEBV?$slot@XUnil@sigc@@U12@U12@U12@U12@U12@U12@@0@@Z
    ??$do_visit_each@U?$limit_derived_target@PEAUtrackable@sigc@@Uslot_do_unbind@internal@2@@internal@sigc@@@?$visitor@U?$adaptor_functor@V?$bound_mem_functor1@_NVDispatchNotifier@Glib@@W4IOCondition@2@@sigc@@@sigc@@@sigc@@SAXAEBU?$limit_derived_target@PEAUtrackable@sigc@@Uslot_do_unbind@internal@2@@internal@1@AEBU?$adaptor_functor@V?$bound_mem_functor1@_NVDispatchNotifier@Glib@@W4IOCondition@2@@sigc@@@1@@Z
    ??$do_visit_each@U?$limit_derived_target@PEAUtrackable@sigc@@Uslot_do_bind@internal@2@@internal@sigc@@@?$visitor@V?$bound_mem_functor1@_NVDispatchNotifier@Glib@@W4IOCondition@2@@sigc@@@sigc@@SAXAEBU?$limit_derived_target@PEAUtrackable@sigc@@Uslot_do_bind@internal@2@@internal@1@AEBV?$bound_mem_functor1@_NVDispatchNotifier@Glib@@W4IOCondition@2@@1@@Z
    ??$visit_each@U?$limit_derived_target@PEAUtrackable@sigc@@Uslot_do_unbind@internal@2@@internal@sigc@@V?$bound_mem_functor1@_NVDispatchNotifier@Glib@@W4IOCondition@2@@3@@sigc@@YAXAEBU?$limit_derived_target@PEAUtrackable@sigc@@Uslot_do_unbind@internal@2@@internal@0@AEBV?$bound_mem_functor1@_NVDispatchNotifier@Glib@@W4IOCondition@2@@0@@Z
    ??$visit_each@U?$limit_derived_target@PEAUtrackable@sigc@@Uslot_do_bind@internal@2@@internal@sigc@@V?$limit_reference@VDispatchNotifier@Glib@@$00@3@@sigc@@YAXAEBU?$limit_derived_target@PEAUtrackable@sigc@@Uslot_do_bind@internal@2@@internal@0@AEBV?$limit_reference@VDispatchNotifier@Glib@@$00@0@@Z
    ??$do_visit_each@U?$limit_derived_target@PEAUtrackable@sigc@@Uslot_do_unbind@internal@2@@internal@sigc@@@?$visitor@V?$bound_mem_functor1@_NVDispatchNotifier@Glib@@W4IOCondition@2@@sigc@@@sigc@@SAXAEBU?$limit_derived_target@PEAUtrackable@sigc@@Uslot_do_unbind@internal@2@@internal@1@AEBV?$bound_mem_functor1@_NVDispatchNotifier@Glib@@W4IOCondition@2@@1@@Z
    ??$do_visit_each@U?$limit_derived_target@PEAUtrackable@sigc@@Uslot_do_bind@internal@2@@internal@sigc@@@?$visitor@V?$limit_reference@VDispatchNotifier@Glib@@$00@sigc@@@sigc@@SAXAEBU?$limit_derived_target@PEAUtrackable@sigc@@Uslot_do_bind@internal@2@@internal@1@AEBV?$limit_reference@VDispatchNotifier@Glib@@$00@1@@Z
    ??$visit_each@U?$limit_derived_target@PEAUtrackable@sigc@@Uslot_do_unbind@internal@2@@internal@sigc@@V?$limit_reference@VDispatchNotifier@Glib@@$00@3@@sigc@@YAXAEBU?$limit_derived_target@PEAUtrackable@sigc@@Uslot_do_unbind@internal@2@@internal@0@AEBV?$limit_reference@VDispatchNotifier@Glib@@$00@0@@Z
    ??$visit_each@U?$limit_derived_target@PEAUtrackable@sigc@@Uslot_do_bind@internal@2@@internal@sigc@@Utrackable@3@@sigc@@YAXAEBU?$limit_derived_target@PEAUtrackable@sigc@@Uslot_do_bind@internal@2@@internal@0@AEBUtrackable@0@@Z
    ??$do_visit_each@U?$limit_derived_target@PEAUtrackable@sigc@@Uslot_do_unbind@internal@2@@internal@sigc@@@?$visitor@V?$limit_reference@VDispatchNotifier@Glib@@$00@sigc@@@sigc@@SAXAEBU?$limit_derived_target@PEAUtrackable@sigc@@Uslot_do_unbind@internal@2@@internal@1@AEBV?$limit_reference@VDispatchNotifier@Glib@@$00@1@@Z
    ??$do_visit_each@U?$limit_derived_target@PEAUtrackable@sigc@@Uslot_do_bind@internal@2@@internal@sigc@@@?$visitor@Utrackable@sigc@@@sigc@@SAXAEBU?$limit_derived_target@PEAUtrackable@sigc@@Uslot_do_bind@internal@2@@internal@1@AEBUtrackable@1@@Z
    ??$visit_each@U?$limit_derived_target@PEAUtrackable@sigc@@Uslot_do_unbind@internal@2@@internal@sigc@@Utrackable@3@@sigc@@YAXAEBU?$limit_derived_target@PEAUtrackable@sigc@@Uslot_do_unbind@internal@2@@internal@0@AEBUtrackable@0@@Z
    ??$?RUtrackable@sigc@@@?$limit_derived_target@PEAUtrackable@sigc@@Uslot_do_bind@internal@2@@internal@sigc@@QEBAXAEBUtrackable@2@@Z
    ??$do_visit_each@U?$limit_derived_target@PEAUtrackable@sigc@@Uslot_do_unbind@internal@2@@internal@sigc@@@?$visitor@Utrackable@sigc@@@sigc@@SAXAEBU?$limit_derived_target@PEAUtrackable@sigc@@Uslot_do_unbind@internal@2@@internal@1@AEBUtrackable@1@@Z
    ?execute_@?$with_type_pointer@$00Utrackable@sigc@@U?$limit_derived_target@PEAUtrackable@sigc@@Uslot_do_bind@internal@2@@internal@2@@internal@sigc@@SAXAEBUtrackable@3@AEBU?$limit_derived_target@PEAUtrackable@sigc@@Uslot_do_bind@internal@2@@23@@Z
    ??$?RUtrackable@sigc@@@?$limit_derived_target@PEAUtrackable@sigc@@Uslot_do_unbind@internal@2@@internal@sigc@@QEBAXAEBUtrackable@2@@Z
    ?execute_@?$with_type_pointer@$00Utrackable@sigc@@U?$limit_derived_target@PEAUtrackable@sigc@@Uslot_do_unbind@internal@2@@internal@2@@internal@sigc@@SAXAEBUtrackable@3@AEBU?$limit_derived_target@PEAUtrackable@sigc@@Uslot_do_unbind@internal@2@@23@@Z
    ??_7exception@std@@6B@
    ??_C@_0BC@EOODALEL@Unknown?5exception@
    ??_7bad_alloc@std@@6B@
    ??_7bad_array_new_length@std@@6B@
    ??_C@_0BF@KINCDENJ@bad?5array?5new?5length@
    ??_R0?AVexception@std@@@8
    _CT??_R0?AVexception@std@@@8??0exception@std@@QEAA@AEBV01@@Z24
    _TI3?AVbad_array_new_length@std@@
    _CTA3?AVbad_array_new_length@std@@
    ??_R0?AVbad_array_new_length@std@@@8
    _CT??_R0?AVbad_array_new_length@std@@@8??0bad_array_new_length@std@@QEAA@AEBV01@@Z24
    ??_R0?AVbad_alloc@std@@@8
    _CT??_R0?AVbad_alloc@std@@@8??0bad_alloc@std@@QEAA@AEBV01@@Z24
    ??_C@_0BB@FCMFBGOM@invalid?5argument@
    ??_C@_02DKCKIIND@?$CFs@
    ??_C@_0GC@KLECFGLI@C?3?2Program?5Files?2Microsoft?5Visu@
    ??_C@_0BJ@LFDBABJJ@ITERATOR?5LIST?5CORRUPTED?$CB@
    ??_7Exception@Glib@@6B@
    ??_7FileError@Glib@@6B@
    ??_C@_0BB@GCADKGJO@map?1set?5too?5long@
    ?thread_specific_instance_@DispatchNotifier@Glib@@0V?$Private@VDispatchNotifier@Glib@@@Threads@2@A
    _TI3?AVFileError@Glib@@
    _CTA3?AVFileError@Glib@@
    ??_R0?AVFileError@Glib@@@8
    _CT??_R0?AVFileError@Glib@@@8??0FileError@Glib@@QEAA@AEBV01@@Z16
    ??_R0?AVError@Glib@@@8
    _CT??_R0?AVError@Glib@@@8??0Error@Glib@@QEAA@AEBV01@@Z16
    ??_R0?AVException@Glib@@@8
    _CT??_R0?AVException@Glib@@@8??0Exception@Glib@@QEAA@AEBV01@@Z8
    ??_C@_0GD@GOKHNLI@C?3?2Program?5Files?2Microsoft?5Visu@
    ??_C@_0CB@GIIADCJH@pop_front?$CI?$CJ?5called?5on?5empty?5lis@
    ??_C@_0FP@IHALIHCI@C?3?2Program?5Files?2Microsoft?5Visu@
    ??_C@_0BN@GOIPFJJH@front?$CI?$CJ?5called?5on?5empty?5list@
    ??_C@_0CC@KEJJOMBH@list?5erase?5iterator?5outside?5ran@
    ??_C@_0O@NKNMEGII@list?5too?5long@
    ??_C@_0CE@EJBAKAEF@list?5emplace?5iterator?5outside?5r@
    ??_C@_0BP@OLDKBHLM@map?1set?5iterators?5incompatible@
    ??_C@_0GA@IINHIBAD@C?3?2Program?5Files?2Microsoft?5Visu@
    ??_C@_0BM@BALDKKHE@list?5iterators?5incompatible@
    ??_C@_0DB@ENBCPNKO@cannot?5increment?5value?9initiali@
    ??_C@_0CD@PMFMCEG@cannot?5increment?5end?5list?5itera@
    ??_C@_0DD@MBIHGLJE@cannot?5dereference?5value?9initia@
    ??_C@_0CF@JCBFHMPL@cannot?5dereference?5end?5list?5ite@
    ??_C@_0DG@KGHKKGBC@null?5pointer?5cannot?5point?5to?5a?5@
    ??_C@_0BD@FEEMDEPI@invalid?5comparator@
    ??_R4exception@std@@6B@
    ??_R3exception@std@@8
    ??_R2exception@std@@8
    ??_R1A@?0A@EA@exception@std@@8
    ??_R4bad_array_new_length@std@@6B@
    ??_R3bad_array_new_length@std@@8
    ??_R2bad_array_new_length@std@@8
    ??_R1A@?0A@EA@bad_array_new_length@std@@8
    ??_R1A@?0A@EA@bad_alloc@std@@8
    ??_R3bad_alloc@std@@8
    ??_R2bad_alloc@std@@8
    ??_R4bad_alloc@std@@6B@
    ??_R4Exception@Glib@@6B@
    ??_R3Exception@Glib@@8
    ??_R2Exception@Glib@@8
    ??_R1A@?0A@EA@Exception@Glib@@8
    ??_R4FileError@Glib@@6B@
    ??_R3FileError@Glib@@8
    ??_R2FileError@Glib@@8
    ??_R1A@?0A@EA@FileError@Glib@@8
    ??_R1A@?0A@EA@Error@Glib@@8
    ??_R3Error@Glib@@8
    ??_R2Error@Glib@@8
    ?__empty_global_delete@@YAXPEAX@Z
    ?__empty_global_delete@@YAXPEAX_K@Z
    ?__empty_global_delete@@YAXPEAX@Z
    ?__empty_global_delete@@YAXPEAX_K@Z
    ??2@YAPEAX_KPEAX@Z
    ??0exception@std@@QEAA@QEBDH@Z
    ??0exception@std@@QEAA@AEBV01@@Z
    ??1exception@std@@UEAA@XZ
    ?what@exception@std@@UEBAPEBDXZ
    ??0bad_alloc@std@@AEAA@QEBD@Z
    ??1bad_alloc@std@@UEAA@XZ
    ??0bad_alloc@std@@QEAA@AEBV01@@Z
    ??0bad_array_new_length@std@@QEAA@XZ
    ??1bad_array_new_length@std@@UEAA@XZ
    ??0bad_array_new_length@std@@QEAA@AEBV01@@Z
    ?_Throw_bad_array_new_length@std@@YAXXZ
    ?_Allocate@_Default_allocate_traits@std@@SAPEAX_K@Z
    ?_Adjust_manually_vector_aligned@std@@YAXAEAPEAXAEA_K@Z
    ??0_Container_proxy@std@@QEAA@PEAU_Container_base12@1@@Z
    ??0_Container_base12@std@@QEAA@XZ
    ?_Orphan_all@_Container_base12@std@@QEAAXXZ
    ?_Orphan_all_unlocked_v3@_Container_base12@std@@AEAAXXZ
    ?_Orphan_all_locked_v3@_Container_base12@std@@AEAAXXZ
    ??$exchange@PEAU_Iterator_base12@std@@$$T@std@@YAPEAU_Iterator_base12@0@AEAPEAU10@$$QEA$$T@Z
    ?_Release@_Basic_container_proxy_ptr12@std@@QEAAXXZ
    ??0_Basic_container_proxy_ptr12@std@@IEAA@XZ
    ??0Exception@Glib@@QEAA@XZ
    ??0Exception@Glib@@QEAA@AEBV01@@Z
    ??0Error@Glib@@QEAA@XZ
    ??0Error@Glib@@QEAA@IHAEBVustring@1@@Z
    ??0Error@Glib@@QEAA@PEAU_GError@@_N@Z
    ??0Error@Glib@@QEAA@AEBV01@@Z
    ??4Error@Glib@@QEAAAEAV01@AEBV01@@Z
    ??1Error@Glib@@UEAA@XZ
    ??BError@Glib@@QEBA_NXZ
    ?domain@Error@Glib@@QEBAIXZ
    ?code@Error@Glib@@QEBAHXZ
    ?what@Error@Glib@@UEBA?AVustring@2@XZ
    ?matches@Error@Glib@@QEBA_NIH@Z
    ?gobj@Error@Glib@@QEAAPEAU_GError@@XZ
    ?gobj@Error@Glib@@QEBAPEBU_GError@@XZ
    ?propagate@Error@Glib@@QEAAXPEAPEAU_GError@@@Z
    ?register_init@Error@Glib@@SAXXZ
    ?register_cleanup@Error@Glib@@SAXXZ
    ?register_domain@Error@Glib@@SAXIP6AXPEAU_GError@@@Z@Z
    ?throw_exception@Error@Glib@@SAXPEAU_GError@@@Z
    ?value_type@?$Value@VError@Glib@@@Glib@@SA_KXZ
    ?set@?$Value@VError@Glib@@@Glib@@QEAAXAEBVError@2@@Z
    ?get@?$Value@VError@Glib@@@Glib@@QEBA?AVError@2@XZ
    ??0?$tuple@$$V@std@@QEAA@AEBV01@@Z
    ?_Throw_tree_length_error@std@@YAXXZ
    ??0?$allocator@U?$_Tree_node@U?$pair@$$CBIP6AXPEAU_GError@@@Z@std@@PEAX@std@@@std@@QEAA@XZ
    ?deallocate@?$allocator@U?$_Tree_node@U?$pair@$$CBIP6AXPEAU_GError@@@Z@std@@PEAX@std@@@std@@QEAAXQEAU?$_Tree_node@U?$pair@$$CBIP6AXPEAU_GError@@@Z@std@@PEAX@2@_K@Z
    ?allocate@?$allocator@U?$_Tree_node@U?$pair@$$CBIP6AXPEAU_GError@@@Z@std@@PEAX@std@@@std@@QEAAPEAU?$_Tree_node@U?$pair@$$CBIP6AXPEAU_GError@@@Z@std@@PEAX@2@_K@Z
    ?deallocate@?$_Default_allocator_traits@V?$allocator@U?$_Tree_node@U?$pair@$$CBIP6AXPEAU_GError@@@Z@std@@PEAX@std@@@std@@@std@@SAXAEAV?$allocator@U?$_Tree_node@U?$pair@$$CBIP6AXPEAU_GError@@@Z@std@@PEAX@std@@@2@QEAU?$_Tree_node@U?$pair@$$CBIP6AXPEAU_GError@@@Z@std@@PEAX@2@_K@Z
    ?max_size@?$_Default_allocator_traits@V?$allocator@U?$_Tree_node@U?$pair@$$CBIP6AXPEAU_GError@@@Z@std@@PEAX@std@@@std@@@std@@SA_KAEBV?$allocator@U?$_Tree_node@U?$pair@$$CBIP6AXPEAU_GError@@@Z@std@@PEAX@std@@@2@@Z
    ??0?$_Tree@V?$_Tmap_traits@IP6AXPEAU_GError@@@ZU?$less@I@std@@V?$allocator@U?$pair@$$CBIP6AXPEAU_GError@@@Z@std@@@3@$0A@@std@@@std@@QEAA@AEBU?$less@I@1@@Z
    ??1?$_Tree@V?$_Tmap_traits@IP6AXPEAU_GError@@@ZU?$less@I@std@@V?$allocator@U?$pair@$$CBIP6AXPEAU_GError@@@Z@std@@@3@$0A@@std@@@std@@QEAA@XZ
    ?max_size@?$_Tree@V?$_Tmap_traits@IP6AXPEAU_GError@@@ZU?$less@I@std@@V?$allocator@U?$pair@$$CBIP6AXPEAU_GError@@@Z@std@@@3@$0A@@std@@@std@@QEBA_KXZ
    ?_Check_grow_by_1@?$_Tree@V?$_Tmap_traits@IP6AXPEAU_GError@@@ZU?$less@I@std@@V?$allocator@U?$pair@$$CBIP6AXPEAU_GError@@@Z@std@@@3@$0A@@std@@@std@@IEAAXXZ
    ?_Alloc_sentinel_and_proxy@?$_Tree@V?$_Tmap_traits@IP6AXPEAU_GError@@@ZU?$less@I@std@@V?$allocator@U?$pair@$$CBIP6AXPEAU_GError@@@Z@std@@@3@$0A@@std@@@std@@IEAAXXZ
    ?_Getcomp@?$_Tree@V?$_Tmap_traits@IP6AXPEAU_GError@@@ZU?$less@I@std@@V?$allocator@U?$pair@$$CBIP6AXPEAU_GError@@@Z@std@@@3@$0A@@std@@@std@@IEBAAEBU?$less@I@2@XZ
    ?_Getal@?$_Tree@V?$_Tmap_traits@IP6AXPEAU_GError@@@ZU?$less@I@std@@V?$allocator@U?$pair@$$CBIP6AXPEAU_GError@@@Z@std@@@3@$0A@@std@@@std@@IEAAAEAV?$allocator@U?$_Tree_node@U?$pair@$$CBIP6AXPEAU_GError@@@Z@std@@PEAX@std@@@2@XZ
    ?_Getal@?$_Tree@V?$_Tmap_traits@IP6AXPEAU_GError@@@ZU?$less@I@std@@V?$allocator@U?$pair@$$CBIP6AXPEAU_GError@@@Z@std@@@3@$0A@@std@@@std@@IEBAAEBV?$allocator@U?$_Tree_node@U?$pair@$$CBIP6AXPEAU_GError@@@Z@std@@PEAX@std@@@2@XZ
    ?_Get_scary@?$_Tree@V?$_Tmap_traits@IP6AXPEAU_GError@@@ZU?$less@I@std@@V?$allocator@U?$pair@$$CBIP6AXPEAU_GError@@@Z@std@@@3@$0A@@std@@@std@@IEAAPEAV?$_Tree_val@U?$_Tree_simple_types@U?$pair@$$CBIP6AXPEAU_GError@@@Z@std@@@std@@@2@XZ
    ?_Get_scary@?$_Tree@V?$_Tmap_traits@IP6AXPEAU_GError@@@ZU?$less@I@std@@V?$allocator@U?$pair@$$CBIP6AXPEAU_GError@@@Z@std@@@3@$0A@@std@@@std@@IEBAPEBV?$_Tree_val@U?$_Tree_simple_types@U?$pair@$$CBIP6AXPEAU_GError@@@Z@std@@@std@@@2@XZ
    ??R?$less@I@std@@QEBA_NAEBI0@Z
    ??0?$_Tree_val@U?$_Tree_simple_types@U?$pair@$$CBIP6AXPEAU_GError@@@Z@std@@@std@@@std@@QEAA@XZ
    ?_Lrotate@?$_Tree_val@U?$_Tree_simple_types@U?$pair@$$CBIP6AXPEAU_GError@@@Z@std@@@std@@@std@@QEAAXPEAU?$_Tree_node@U?$pair@$$CBIP6AXPEAU_GError@@@Z@std@@PEAX@2@@Z
    ?_Rrotate@?$_Tree_val@U?$_Tree_simple_types@U?$pair@$$CBIP6AXPEAU_GError@@@Z@std@@@std@@@std@@QEAAXPEAU?$_Tree_node@U?$pair@$$CBIP6AXPEAU_GError@@@Z@std@@PEAX@2@@Z
    ?_Insert_node@?$_Tree_val@U?$_Tree_simple_types@U?$pair@$$CBIP6AXPEAU_GError@@@Z@std@@@std@@@std@@QEAAPEAU?$_Tree_node@U?$pair@$$CBIP6AXPEAU_GError@@@Z@std@@PEAX@2@U?$_Tree_id@PEAU?$_Tree_node@U?$pair@$$CBIP6AXPEAU_GError@@@Z@std@@PEAX@std@@@2@QEAU32@@Z
    ?_Get_first@?$_Compressed_pair@V?$allocator@U?$_Tree_node@U?$pair@$$CBIP6AXPEAU_GError@@@Z@std@@PEAX@std@@@std@@V?$_Tree_val@U?$_Tree_simple_types@U?$pair@$$CBIP6AXPEAU_GError@@@Z@std@@@std@@@2@$00@std@@QEAAAEAV?$allocator@U?$_Tree_node@U?$pair@$$CBIP6AXPEAU_GError@@@Z@std@@PEAX@std@@@2@XZ
    ?_Get_first@?$_Compressed_pair@V?$allocator@U?$_Tree_node@U?$pair@$$CBIP6AXPEAU_GError@@@Z@std@@PEAX@std@@@std@@V?$_Tree_val@U?$_Tree_simple_types@U?$pair@$$CBIP6AXPEAU_GError@@@Z@std@@@std@@@2@$00@std@@QEBAAEBV?$allocator@U?$_Tree_node@U?$pair@$$CBIP6AXPEAU_GError@@@Z@std@@PEAX@std@@@2@XZ
    ?_Get_first@?$_Compressed_pair@U?$less@I@std@@V?$_Compressed_pair@V?$allocator@U?$_Tree_node@U?$pair@$$CBIP6AXPEAU_GError@@@Z@std@@PEAX@std@@@std@@V?$_Tree_val@U?$_Tree_simple_types@U?$pair@$$CBIP6AXPEAU_GError@@@Z@std@@@std@@@2@$00@2@$00@std@@QEBAAEBU?$less@I@2@XZ
    ??0?$map@IP6AXPEAU_GError@@@ZU?$less@I@std@@V?$allocator@U?$pair@$$CBIP6AXPEAU_GError@@@Z@std@@@3@@std@@QEAA@XZ
    ??A?$map@IP6AXPEAU_GError@@@ZU?$less@I@std@@V?$allocator@U?$pair@$$CBIP6AXPEAU_GError@@@Z@std@@@3@@std@@QEAAAEAP6AXPEAU_GError@@@ZAEBI@Z
    ??1?$map@IP6AXPEAU_GError@@@ZU?$less@I@std@@V?$allocator@U?$pair@$$CBIP6AXPEAU_GError@@@Z@std@@@3@@std@@QEAA@XZ
    ??$min@_K@std@@YAAEB_KAEB_K0@Z
    ??$_Erase_head@V?$allocator@U?$_Tree_node@U?$pair@$$CBIP6AXPEAU_GError@@@Z@std@@PEAX@std@@@std@@@?$_Tree_val@U?$_Tree_simple_types@U?$pair@$$CBIP6AXPEAU_GError@@@Z@std@@@std@@@std@@QEAAXAEAV?$allocator@U?$_Tree_node@U?$pair@$$CBIP6AXPEAU_GError@@@Z@std@@PEAX@std@@@1@@Z
    ?allocate@?$allocator@U_Container_proxy@std@@@std@@QEAAPEAU_Container_proxy@2@_K@Z
    ??$?0U?$_Tree_node@U?$pair@$$CBIP6AXPEAU_GError@@@Z@std@@PEAX@std@@@?$allocator@U_Container_proxy@std@@@std@@QEAA@AEBV?$allocator@U?$_Tree_node@U?$pair@$$CBIP6AXPEAU_GError@@@Z@std@@PEAX@std@@@1@@Z
    ??$_Delete_plain_internal@V?$allocator@U_Container_proxy@std@@@std@@@std@@YAXAEAV?$allocator@U_Container_proxy@std@@@0@QEAU_Container_proxy@0@@Z
    ??$_Try_emplace@AEBI$$V@?$map@IP6AXPEAU_GError@@@ZU?$less@I@std@@V?$allocator@U?$pair@$$CBIP6AXPEAU_GError@@@Z@std@@@3@@std@@AEAA?AU?$pair@PEAU?$_Tree_node@U?$pair@$$CBIP6AXPEAU_GError@@@Z@std@@PEAX@std@@_N@1@AEBI@Z
    ??$_Erase_tree@V?$allocator@U?$_Tree_node@U?$pair@$$CBIP6AXPEAU_GError@@@Z@std@@PEAX@std@@@std@@@?$_Tree_val@U?$_Tree_simple_types@U?$pair@$$CBIP6AXPEAU_GError@@@Z@std@@@std@@@std@@QEAAXAEAV?$allocator@U?$_Tree_node@U?$pair@$$CBIP6AXPEAU_GError@@@Z@std@@PEAX@std@@@1@PEAU?$_Tree_node@U?$pair@$$CBIP6AXPEAU_GError@@@Z@std@@PEAX@1@@Z
    ??$_Freenode0@V?$allocator@U?$_Tree_node@U?$pair@$$CBIP6AXPEAU_GError@@@Z@std@@PEAX@std@@@std@@@?$_Tree_node@U?$pair@$$CBIP6AXPEAU_GError@@@Z@std@@PEAX@std@@SAXAEAV?$allocator@U?$_Tree_node@U?$pair@$$CBIP6AXPEAU_GError@@@Z@std@@PEAX@std@@@1@PEAU01@@Z
    ??$_Deallocate_plain@V?$allocator@U_Container_proxy@std@@@std@@@std@@YAXAEAV?$allocator@U_Container_proxy@std@@@0@QEAU_Container_proxy@0@@Z
    ??$_Find_lower_bound@I@?$_Tree@V?$_Tmap_traits@IP6AXPEAU_GError@@@ZU?$less@I@std@@V?$allocator@U?$pair@$$CBIP6AXPEAU_GError@@@Z@std@@@3@$0A@@std@@@std@@IEBA?AU?$_Tree_find_result@PEAU?$_Tree_node@U?$pair@$$CBIP6AXPEAU_GError@@@Z@std@@PEAX@std@@@1@AEBI@Z
    ??$_Lower_bound_duplicate@I@?$_Tree@V?$_Tmap_traits@IP6AXPEAU_GError@@@ZU?$less@I@std@@V?$allocator@U?$pair@$$CBIP6AXPEAU_GError@@@Z@std@@@3@$0A@@std@@@std@@IEBA_NQEAU?$_Tree_node@U?$pair@$$CBIP6AXPEAU_GError@@@Z@std@@PEAX@1@AEBI@Z
    ??$?0AEBQEAU?$_Tree_node@U?$pair@$$CBIP6AXPEAU_GError@@@Z@std@@PEAX@std@@_N$0A@@?$pair@PEAU?$_Tree_node@U?$pair@$$CBIP6AXPEAU_GError@@@Z@std@@PEAX@std@@_N@std@@QEAA@AEBQEAU?$_Tree_node@U?$pair@$$CBIP6AXPEAU_GError@@@Z@std@@PEAX@1@$$QEA_N@Z
    ??$forward@AEBI@std@@YAAEBIAEBI@Z
    ??$forward_as_tuple@AEBI@std@@YA?AV?$tuple@AEBI@0@AEBI@Z
    ??0?$tuple@AEBI@std@@QEAA@$$QEAV01@@Z
    ??$forward_as_tuple@$$V@std@@YA?AV?$tuple@$$V@0@XZ
    ??0?$_Alloc_construct_ptr@V?$allocator@U?$_Tree_node@U?$pair@$$CBIP6AXPEAU_GError@@@Z@std@@PEAX@std@@@std@@@std@@QEAA@AEAV?$allocator@U?$_Tree_node@U?$pair@$$CBIP6AXPEAU_GError@@@Z@std@@PEAX@std@@@1@@Z
    ?_Release@?$_Alloc_construct_ptr@V?$allocator@U?$_Tree_node@U?$pair@$$CBIP6AXPEAU_GError@@@Z@std@@PEAX@std@@@std@@@std@@QEAAPEAU?$_Tree_node@U?$pair@$$CBIP6AXPEAU_GError@@@Z@std@@PEAX@2@XZ
    ?_Allocate@?$_Alloc_construct_ptr@V?$allocator@U?$_Tree_node@U?$pair@$$CBIP6AXPEAU_GError@@@Z@std@@PEAX@std@@@std@@@std@@QEAAXXZ
    ??1?$_Alloc_construct_ptr@V?$allocator@U?$_Tree_node@U?$pair@$$CBIP6AXPEAU_GError@@@Z@std@@PEAX@std@@@std@@@std@@QEAA@XZ
    ??0?$_Tree_temp_node_alloc@V?$allocator@U?$_Tree_node@U?$pair@$$CBIP6AXPEAU_GError@@@Z@std@@PEAX@std@@@std@@@std@@QEAA@AEAV?$allocator@U?$_Tree_node@U?$pair@$$CBIP6AXPEAU_GError@@@Z@std@@PEAX@std@@@1@@Z
    ??1?$_Tree_temp_node_alloc@V?$allocator@U?$_Tree_node@U?$pair@$$CBIP6AXPEAU_GError@@@Z@std@@PEAX@std@@@std@@@std@@QEAA@XZ
    ??1?$_Tree_temp_node@V?$allocator@U?$_Tree_node@U?$pair@$$CBIP6AXPEAU_GError@@@Z@std@@PEAX@std@@@std@@@std@@QEAA@XZ
    ??$?0AEBUpiecewise_construct_t@std@@V?$tuple@AEBI@1@V?$tuple@$$V@1@@?$_Tree_temp_node@V?$allocator@U?$_Tree_node@U?$pair@$$CBIP6AXPEAU_GError@@@Z@std@@PEAX@std@@@std@@@std@@QEAA@AEAV?$allocator@U?$_Tree_node@U?$pair@$$CBIP6AXPEAU_GError@@@Z@std@@PEAX@std@@@1@PEAU?$_Tree_node@U?$pair@$$CBIP6AXPEAU_GError@@@Z@std@@PEAX@1@AEBUpiecewise_construct_t@1@$$QEAV?$tuple@AEBI@1@$$QEAV?$tuple@$$V@1@@Z
    ??$?0PEAU?$_Tree_node@U?$pair@$$CBIP6AXPEAU_GError@@@Z@std@@PEAX@std@@_N$0A@@?$pair@PEAU?$_Tree_node@U?$pair@$$CBIP6AXPEAU_GError@@@Z@std@@PEAX@std@@_N@std@@QEAA@$$QEAPEAU?$_Tree_node@U?$pair@$$CBIP6AXPEAU_GError@@@Z@std@@PEAX@1@$$QEA_N@Z
    ??0?$_Container_proxy_ptr12@V?$allocator@U_Container_proxy@std@@@std@@@std@@QEAA@AEAV?$allocator@U_Container_proxy@std@@@1@AEAU_Container_base12@1@@Z
    ??1?$_Container_proxy_ptr12@V?$allocator@U_Container_proxy@std@@@std@@@std@@QEAA@XZ
    ??$_Unfancy@U_Container_proxy@std@@@std@@YAPEAU_Container_proxy@0@PEAU10@@Z
    ??$_Construct_in_place@U_Container_proxy@std@@PEAU_Container_base12@2@@std@@YAXAEAU_Container_proxy@0@$$QEAPEAU_Container_base12@0@@Z
    ??$addressof@V?$_Tree_val@U?$_Tree_simple_types@U?$pair@$$CBIP6AXPEAU_GError@@@Z@std@@@std@@@std@@@std@@YAPEAV?$_Tree_val@U?$_Tree_simple_types@U?$pair@$$CBIP6AXPEAU_GError@@@Z@std@@@std@@@0@AEAV10@@Z
    ??$?0AEBU?$less@I@std@@U_Zero_then_variadic_args_t@1@@?$_Compressed_pair@U?$less@I@std@@V?$_Compressed_pair@V?$allocator@U?$_Tree_node@U?$pair@$$CBIP6AXPEAU_GError@@@Z@std@@PEAX@std@@@std@@V?$_Tree_val@U?$_Tree_simple_types@U?$pair@$$CBIP6AXPEAU_GError@@@Z@std@@@std@@@2@$00@2@$00@std@@QEAA@U_One_then_variadic_args_t@1@AEBU?$less@I@1@$$QEAU_Zero_then_variadic_args_t@1@@Z
    ??$?0$$V@?$_Compressed_pair@V?$allocator@U?$_Tree_node@U?$pair@$$CBIP6AXPEAU_GError@@@Z@std@@PEAX@std@@@std@@V?$_Tree_val@U?$_Tree_simple_types@U?$pair@$$CBIP6AXPEAU_GError@@@Z@std@@@std@@@2@$00@std@@QEAA@U_Zero_then_variadic_args_t@1@@Z
    ??$_Deallocate@$0BA@@std@@YAXPEAX_K@Z
    ??$exchange@PEAU?$_Tree_node@U?$pair@$$CBIP6AXPEAU_GError@@@Z@std@@PEAX@std@@AEAPEAU12@@std@@YAPEAU?$_Tree_node@U?$pair@$$CBIP6AXPEAU_GError@@@Z@std@@PEAX@0@AEAPEAU10@0@Z
    ??$_Freenode@V?$allocator@U?$_Tree_node@U?$pair@$$CBIP6AXPEAU_GError@@@Z@std@@PEAX@std@@@std@@@?$_Tree_node@U?$pair@$$CBIP6AXPEAU_GError@@@Z@std@@PEAX@std@@SAXAEAV?$allocator@U?$_Tree_node@U?$pair@$$CBIP6AXPEAU_GError@@@Z@std@@PEAX@std@@@1@PEAU01@@Z
    ??$_Destroy_in_place@PEAU?$_Tree_node@U?$pair@$$CBIP6AXPEAU_GError@@@Z@std@@PEAX@std@@@std@@YAXAEAPEAU?$_Tree_node@U?$pair@$$CBIP6AXPEAU_GError@@@Z@std@@PEAX@0@@Z
    ?deallocate@?$_Default_allocator_traits@V?$allocator@U_Container_proxy@std@@@std@@@std@@SAXAEAV?$allocator@U_Container_proxy@std@@@2@QEAU_Container_proxy@2@_K@Z
    ??$_Kfn@$$CBIP6AXPEAU_GError@@@Z@?$_Tmap_traits@IP6AXPEAU_GError@@@ZU?$less@I@std@@V?$allocator@U?$pair@$$CBIP6AXPEAU_GError@@@Z@std@@@3@$0A@@std@@SAAEBIAEBU?$pair@$$CBIP6AXPEAU_GError@@@Z@1@@Z
    ??$_Debug_lt_pred@AEBU?$less@I@std@@AEBIAEBI@std@@YA_NAEBU?$less@I@0@AEBI1@Z
    ??$forward@AEBQEAU?$_Tree_node@U?$pair@$$CBIP6AXPEAU_GError@@@Z@std@@PEAX@std@@@std@@YAAEBQEAU?$_Tree_node@U?$pair@$$CBIP6AXPEAU_GError@@@Z@std@@PEAX@0@AEBQEAU10@@Z
    ??$forward@_N@std@@YA$$QEA_NAEA_N@Z
    ??$?0AEBI$0A@@?$tuple@AEBI@std@@QEAA@AEBI@Z
    ??$addressof@U?$pair@$$CBIP6AXPEAU_GError@@@Z@std@@@std@@YAPEAU?$pair@$$CBIP6AXPEAU_GError@@@Z@0@AEAU10@@Z
    ??$forward@AEBUpiecewise_construct_t@std@@@std@@YAAEBUpiecewise_construct_t@0@AEBU10@@Z
    ??$forward@V?$tuple@AEBI@std@@@std@@YA$$QEAV?$tuple@AEBI@0@AEAV10@@Z
    ??$forward@V?$tuple@$$V@std@@@std@@YA$$QEAV?$tuple@$$V@0@AEAV10@@Z
    ??$construct@U?$pair@$$CBIP6AXPEAU_GError@@@Z@std@@AEBUpiecewise_construct_t@2@V?$tuple@AEBI@2@V?$tuple@$$V@2@@?$_Default_allocator_traits@V?$allocator@U?$_Tree_node@U?$pair@$$CBIP6AXPEAU_GError@@@Z@std@@PEAX@std@@@std@@@std@@SAXAEAV?$allocator@U?$_Tree_node@U?$pair@$$CBIP6AXPEAU_GError@@@Z@std@@PEAX@std@@@1@QEAU?$pair@$$CBIP6AXPEAU_GError@@@Z@1@AEBUpiecewise_construct_t@1@$$QEAV?$tuple@AEBI@1@$$QEAV?$tuple@$$V@1@@Z
    ??$_Construct_in_place@PEAU?$_Tree_node@U?$pair@$$CBIP6AXPEAU_GError@@@Z@std@@PEAX@std@@AEAPEAU12@@std@@YAXAEAPEAU?$_Tree_node@U?$pair@$$CBIP6AXPEAU_GError@@@Z@std@@PEAX@0@0@Z
    ??$forward@PEAU?$_Tree_node@U?$pair@$$CBIP6AXPEAU_GError@@@Z@std@@PEAX@std@@@std@@YA$$QEAPEAU?$_Tree_node@U?$pair@$$CBIP6AXPEAU_GError@@@Z@std@@PEAX@0@AEAPEAU10@@Z
    ??$addressof@U_Container_proxy@std@@@std@@YAPEAU_Container_proxy@0@AEAU10@@Z
    ??$forward@PEAU_Container_base12@std@@@std@@YA$$QEAPEAU_Container_base12@0@AEAPEAU10@@Z
    ??$forward@AEBU?$less@I@std@@@std@@YAAEBU?$less@I@0@AEBU10@@Z
    ??$forward@U_Zero_then_variadic_args_t@std@@@std@@YA$$QEAU_Zero_then_variadic_args_t@0@AEAU10@@Z
    ??$addressof@U_Container_base12@std@@@std@@YAPEAU_Container_base12@0@AEAU10@@Z
    ??$exchange@PEAU?$_Tree_node@U?$pair@$$CBIP6AXPEAU_GError@@@Z@std@@PEAX@std@@$$T@std@@YAPEAU?$_Tree_node@U?$pair@$$CBIP6AXPEAU_GError@@@Z@std@@PEAX@0@AEAPEAU10@$$QEA$$T@Z
    ??$destroy@U?$pair@$$CBIP6AXPEAU_GError@@@Z@std@@@?$_Default_allocator_traits@V?$allocator@U?$_Tree_node@U?$pair@$$CBIP6AXPEAU_GError@@@Z@std@@PEAX@std@@@std@@@std@@SAXAEAV?$allocator@U?$_Tree_node@U?$pair@$$CBIP6AXPEAU_GError@@@Z@std@@PEAX@std@@@1@QEAU?$pair@$$CBIP6AXPEAU_GError@@@Z@1@@Z
    ??$_Get_size_of_n@$0BA@@std@@YA_K_K@Z
    ??$_Allocate@$0BA@U_Default_allocate_traits@std@@@std@@YAPEAX_K@Z
    ??$_Buyheadnode@V?$allocator@U?$_Tree_node@U?$pair@$$CBIP6AXPEAU_GError@@@Z@std@@PEAX@std@@@std@@@?$_Tree_node@U?$pair@$$CBIP6AXPEAU_GError@@@Z@std@@PEAX@std@@SAPEAU01@AEAV?$allocator@U?$_Tree_node@U?$pair@$$CBIP6AXPEAU_GError@@@Z@std@@PEAX@std@@@1@@Z
    ??$_Max_limit@_J@std@@YA_JXZ
    ??$?0U_Exact_args_t@std@@AEBI$$V$0A@@?$tuple@AEBI@std@@QEAA@U_Exact_args_t@1@AEBI@Z
    ??$?0AEBI$$Z$$V@?$pair@$$CBIP6AXPEAU_GError@@@Z@std@@QEAA@Upiecewise_construct_t@1@V?$tuple@AEBI@1@V?$tuple@$$V@1@@Z
    ??$addressof@PEAU?$_Tree_node@U?$pair@$$CBIP6AXPEAU_GError@@@Z@std@@PEAX@std@@@std@@YAPEAPEAU?$_Tree_node@U?$pair@$$CBIP6AXPEAU_GError@@@Z@std@@PEAX@0@AEAPEAU10@@Z
    ??$forward@AEAPEAU?$_Tree_node@U?$pair@$$CBIP6AXPEAU_GError@@@Z@std@@PEAX@std@@@std@@YAAEAPEAU?$_Tree_node@U?$pair@$$CBIP6AXPEAU_GError@@@Z@std@@PEAX@0@AEAPEAU10@@Z
    ??$_Allocate_manually_vector_aligned@U_Default_allocate_traits@std@@@std@@YAPEAX_K@Z
    ??$_Construct_in_place@PEAU?$_Tree_node@U?$pair@$$CBIP6AXPEAU_GError@@@Z@std@@PEAX@std@@AEBQEAU12@@std@@YAXAEAPEAU?$_Tree_node@U?$pair@$$CBIP6AXPEAU_GError@@@Z@std@@PEAX@0@AEBQEAU10@@Z
    ??$addressof@$$CBV?$_Tree_val@U?$_Tree_simple_types@U?$pair@$$CBIP6AXPEAU_GError@@@Z@std@@@std@@@std@@@std@@YAPEBV?$_Tree_val@U?$_Tree_simple_types@U?$pair@$$CBIP6AXPEAU_GError@@@Z@std@@@std@@@0@AEBV10@@Z
    ??$?0U_Exact_args_t@std@@$0A@@?$tuple@$$V@std@@QEAA@U_Exact_args_t@1@@Z
    ??$?0AEBI@?$_Tuple_val@AEBI@std@@QEAA@AEBI@Z
    ??$?0V?$tuple@AEBI@std@@V?$tuple@$$V@1@$0A@$$Z$S@?$pair@$$CBIP6AXPEAU_GError@@@Z@std@@AEAA@AEAV?$tuple@AEBI@1@AEAV?$tuple@$$V@1@U?$integer_sequence@_K$0A@@1@U?$integer_sequence@_K$S@1@@Z
    ??$_Get_size_of_n@$0DA@@std@@YA_K_K@Z
    ??$move@AEAV?$tuple@AEBI@std@@@std@@YA$$QEAV?$tuple@AEBI@0@AEAV10@@Z
    ??$_Tuple_get@$0A@AEBI@std@@YA$$QEA_P$$QEAV?$tuple@AEBI@0@@Z
    ??_7exception@std@@6B@
    ??_C@_0BC@EOODALEL@Unknown?5exception@
    ??_7bad_alloc@std@@6B@
    ??_7bad_array_new_length@std@@6B@
    ??_C@_0BF@KINCDENJ@bad?5array?5new?5length@
    ??_R0?AVexception@std@@@8
    _CT??_R0?AVexception@std@@@8??0exception@std@@QEAA@AEBV01@@Z24
    _TI3?AVbad_array_new_length@std@@
    _CTA3?AVbad_array_new_length@std@@
    ??_R0?AVbad_array_new_length@std@@@8
    _CT??_R0?AVbad_array_new_length@std@@@8??0bad_array_new_length@std@@QEAA@AEBV01@@Z24
    ??_R0?AVbad_alloc@std@@@8
    _CT??_R0?AVbad_alloc@std@@@8??0bad_alloc@std@@QEAA@AEBV01@@Z24
    ??_C@_0BB@FCMFBGOM@invalid?5argument@
    ??_C@_02DKCKIIND@?$CFs@
    ??_C@_0GC@KLECFGLI@C?3?2Program?5Files?2Microsoft?5Visu@
    ??_7Exception@Glib@@6B@
    ??_7Error@Glib@@6B@
    ??_C@_0BB@GCADKGJO@map?1set?5too?5long@
    _TI2?AVError@Glib@@
    _CTA2?AVError@Glib@@
    ??_R0?AVError@Glib@@@8
    _CT??_R0?AVError@Glib@@@8??0Error@Glib@@QEAA@AEBV01@@Z16
    ??_R0?AVException@Glib@@@8
    _CT??_R0?AVException@Glib@@@8??0Exception@Glib@@QEAA@AEBV01@@Z8
    ??_C@_0GD@GOKHNLI@C?3?2Program?5Files?2Microsoft?5Visu@
    ??_C@_0DG@KGHKKGBC@null?5pointer?5cannot?5point?5to?5a?5@
    ??_C@_0BD@FEEMDEPI@invalid?5comparator@
    ??_R4exception@std@@6B@
    ??_R3exception@std@@8
    ??_R2exception@std@@8
    ??_R1A@?0A@EA@exception@std@@8
    ??_R4bad_array_new_length@std@@6B@
    ??_R3bad_array_new_length@std@@8
    ??_R2bad_array_new_length@std@@8
    ??_R1A@?0A@EA@bad_array_new_length@std@@8
    ??_R1A@?0A@EA@bad_alloc@std@@8
    ??_R3bad_alloc@std@@8
    ??_R2bad_alloc@std@@8
    ??_R4bad_alloc@std@@6B@
    ??_R4Exception@Glib@@6B@
    ??_R3Exception@Glib@@8
    ??_R2Exception@Glib@@8
    ??_R1A@?0A@EA@Exception@Glib@@8
    ??_R4Error@Glib@@6B@
    ??_R3Error@Glib@@8
    ??_R2Error@Glib@@8
    ??_R1A@?0A@EA@Error@Glib@@8
    ?__empty_global_delete@@YAXPEAX@Z
    ?__empty_global_delete@@YAXPEAX_K@Z
    ??1Exception@Glib@@UEAA@XZ
    ?what@Exception@Glib@@UEBA?AVustring@2@XZ
    ??_7Exception@Glib@@6B@
    ??_R4Exception@Glib@@6B@
    ??_R0?AVException@Glib@@@8
    ??_R3Exception@Glib@@8
    ??_R2Exception@Glib@@8
    ??_R1A@?0A@EA@Exception@Glib@@8
    ?__empty_global_delete@@YAXPEAX@Z
    ?__empty_global_delete@@YAXPEAX_K@Z
    ??2@YAPEAX_KPEAX@Z
    ??0exception@std@@QEAA@QEBDH@Z
    ??0exception@std@@QEAA@AEBV01@@Z
    ??1exception@std@@UEAA@XZ
    ?what@exception@std@@UEBAPEBDXZ
    ??0bad_alloc@std@@AEAA@QEBD@Z
    ??1bad_alloc@std@@UEAA@XZ
    ??0bad_alloc@std@@QEAA@AEBV01@@Z
    ??0bad_array_new_length@std@@QEAA@XZ
    ??1bad_array_new_length@std@@UEAA@XZ
    ??0bad_array_new_length@std@@QEAA@AEBV01@@Z
    ?_Throw_bad_array_new_length@std@@YAXXZ
    ?_Allocate@_Default_allocate_traits@std@@SAPEAX_K@Z
    ?_Adjust_manually_vector_aligned@std@@YAXAEAPEAXAEA_K@Z
    ??0_Container_proxy@std@@QEAA@PEAU_Container_base12@1@@Z
    ??0_Container_base12@std@@QEAA@XZ
    ?_Orphan_all@_Container_base12@std@@QEAAXXZ
    ?_Orphan_all_unlocked_v3@_Container_base12@std@@AEAAXXZ
    ?_Orphan_all_locked_v3@_Container_base12@std@@AEAAXXZ
    ??0_Iterator_base12@std@@QEAA@XZ
    ??0_Iterator_base12@std@@QEAA@AEBU01@@Z
    ??4_Iterator_base12@std@@QEAAAEAU01@AEBU01@@Z
    ??1_Iterator_base12@std@@QEAA@XZ
    ?_Adopt@_Iterator_base12@std@@QEAAXPEBU_Container_base12@2@@Z
    ?_Getcont@_Iterator_base12@std@@QEBAPEBU_Container_base12@2@XZ
    ?_Assign_unlocked@_Iterator_base12@std@@AEAAXAEBU12@@Z
    ?_Assign_locked@_Iterator_base12@std@@AEAAXAEBU12@@Z
    ?_Adopt_unlocked@_Iterator_base12@std@@AEAAXPEBU_Container_base12@2@@Z
    ?_Adopt_locked@_Iterator_base12@std@@AEAAXPEBU_Container_base12@2@@Z
    ?_Orphan_me_unlocked_v3@_Iterator_base12@std@@AEAAXXZ
    ?_Orphan_me_locked_v3@_Iterator_base12@std@@AEAAXXZ
    ??$exchange@PEAU_Iterator_base12@std@@$$T@std@@YAPEAU_Iterator_base12@0@AEAPEAU10@$$QEA$$T@Z
    ?_Release@_Basic_container_proxy_ptr12@std@@QEAAXXZ
    ??0_Basic_container_proxy_ptr12@std@@IEAA@XZ
    ??$function_pointer_cast@P6AXPEAUslot_rep@internal@sigc@@@ZP6APEAXPEAX@Z@internal@sigc@@YAP6AXPEAUslot_rep@01@@ZP6APEAXPEAX@Z@Z
    ?add_exception_handler@Glib@@YA?AUconnection@sigc@@AEBV?$slot@XUnil@sigc@@U12@U12@U12@U12@U12@U12@@3@@Z
    ?exception_handlers_invoke@Glib@@YAXXZ
    ?delete_ptr@?$Private@V?$list@V?$slot@$$A6AXXZUnil@sigc@@U12@U12@U12@U12@U12@U12@@sigc@@V?$allocator@V?$slot@$$A6AXXZUnil@sigc@@U12@U12@U12@U12@U12@U12@@sigc@@@std@@@std@@@Threads@Glib@@SAXPEAX@Z
    ??0?$Private@V?$list@V?$slot@$$A6AXXZUnil@sigc@@U12@U12@U12@U12@U12@U12@@sigc@@V?$allocator@V?$slot@$$A6AXXZUnil@sigc@@U12@U12@U12@U12@U12@U12@@sigc@@@std@@@std@@@Threads@Glib@@QEAA@P6AXPEAX@Z@Z
    ?get@?$Private@V?$list@V?$slot@$$A6AXXZUnil@sigc@@U12@U12@U12@U12@U12@U12@@sigc@@V?$allocator@V?$slot@$$A6AXXZUnil@sigc@@U12@U12@U12@U12@U12@U12@@sigc@@@std@@@std@@@Threads@Glib@@QEAAPEAV?$list@V?$slot@$$A6AXXZUnil@sigc@@U12@U12@U12@U12@U12@U12@@sigc@@V?$allocator@V?$slot@$$A6AXXZUnil@sigc@@U12@U12@U12@U12@U12@U12@@sigc@@@std@@@std@@XZ
    ?set@?$Private@V?$list@V?$slot@$$A6AXXZUnil@sigc@@U12@U12@U12@U12@U12@U12@@sigc@@V?$allocator@V?$slot@$$A6AXXZUnil@sigc@@U12@U12@U12@U12@U12@U12@@sigc@@@std@@@std@@@Threads@Glib@@QEAAXPEAV?$list@V?$slot@$$A6AXXZUnil@sigc@@U12@U12@U12@U12@U12@U12@@sigc@@V?$allocator@V?$slot@$$A6AXXZUnil@sigc@@U12@U12@U12@U12@U12@U12@@sigc@@@std@@@std@@@Z
    ??0?$allocator@U?$_List_node@V?$slot@$$A6AXXZUnil@sigc@@U12@U12@U12@U12@U12@U12@@sigc@@PEAX@std@@@std@@QEAA@XZ
    ?deallocate@?$allocator@U?$_List_node@V?$slot@$$A6AXXZUnil@sigc@@U12@U12@U12@U12@U12@U12@@sigc@@PEAX@std@@@std@@QEAAXQEAU?$_List_node@V?$slot@$$A6AXXZUnil@sigc@@U12@U12@U12@U12@U12@U12@@sigc@@PEAX@2@_K@Z
    ?allocate@?$allocator@U?$_List_node@V?$slot@$$A6AXXZUnil@sigc@@U12@U12@U12@U12@U12@U12@@sigc@@PEAX@std@@@std@@QEAAPEAU?$_List_node@V?$slot@$$A6AXXZUnil@sigc@@U12@U12@U12@U12@U12@U12@@sigc@@PEAX@2@_K@Z
    ?deallocate@?$_Default_allocator_traits@V?$allocator@U?$_List_node@V?$slot@$$A6AXXZUnil@sigc@@U12@U12@U12@U12@U12@U12@@sigc@@PEAX@std@@@std@@@std@@SAXAEAV?$allocator@U?$_List_node@V?$slot@$$A6AXXZUnil@sigc@@U12@U12@U12@U12@U12@U12@@sigc@@PEAX@std@@@2@QEAU?$_List_node@V?$slot@$$A6AXXZUnil@sigc@@U12@U12@U12@U12@U12@U12@@sigc@@PEAX@2@_K@Z
    ?max_size@?$_Default_allocator_traits@V?$allocator@U?$_List_node@V?$slot@$$A6AXXZUnil@sigc@@U12@U12@U12@U12@U12@U12@@sigc@@PEAX@std@@@std@@@std@@SA_KAEBV?$allocator@U?$_List_node@V?$slot@$$A6AXXZUnil@sigc@@U12@U12@U12@U12@U12@U12@@sigc@@PEAX@std@@@2@@Z
    ??0?$list@V?$slot@$$A6AXXZUnil@sigc@@U12@U12@U12@U12@U12@U12@@sigc@@V?$allocator@V?$slot@$$A6AXXZUnil@sigc@@U12@U12@U12@U12@U12@U12@@sigc@@@std@@@std@@QEAA@XZ
    ??1?$list@V?$slot@$$A6AXXZUnil@sigc@@U12@U12@U12@U12@U12@U12@@sigc@@V?$allocator@V?$slot@$$A6AXXZUnil@sigc@@U12@U12@U12@U12@U12@U12@@sigc@@@std@@@std@@QEAA@XZ
    ?begin@?$list@V?$slot@$$A6AXXZUnil@sigc@@U12@U12@U12@U12@U12@U12@@sigc@@V?$allocator@V?$slot@$$A6AXXZUnil@sigc@@U12@U12@U12@U12@U12@U12@@sigc@@@std@@@std@@QEAA?AV?$_List_iterator@V?$_List_val@U?$_List_simple_types@V?$slot@$$A6AXXZUnil@sigc@@U12@U12@U12@U12@U12@U12@@sigc@@@std@@@std@@@2@XZ
    ?end@?$list@V?$slot@$$A6AXXZUnil@sigc@@U12@U12@U12@U12@U12@U12@@sigc@@V?$allocator@V?$slot@$$A6AXXZUnil@sigc@@U12@U12@U12@U12@U12@U12@@sigc@@@std@@@std@@QEAA?AV?$_List_iterator@V?$_List_val@U?$_List_simple_types@V?$slot@$$A6AXXZUnil@sigc@@U12@U12@U12@U12@U12@U12@@sigc@@@std@@@std@@@2@XZ
    ?_Make_iter@?$list@V?$slot@$$A6AXXZUnil@sigc@@U12@U12@U12@U12@U12@U12@@sigc@@V?$allocator@V?$slot@$$A6AXXZUnil@sigc@@U12@U12@U12@U12@U12@U12@@sigc@@@std@@@std@@QEBA?AV?$_List_iterator@V?$_List_val@U?$_List_simple_types@V?$slot@$$A6AXXZUnil@sigc@@U12@U12@U12@U12@U12@U12@@sigc@@@std@@@std@@@2@PEAU?$_List_node@V?$slot@$$A6AXXZUnil@sigc@@U12@U12@U12@U12@U12@U12@@sigc@@PEAX@2@@Z
    ?max_size@?$list@V?$slot@$$A6AXXZUnil@sigc@@U12@U12@U12@U12@U12@U12@@sigc@@V?$allocator@V?$slot@$$A6AXXZUnil@sigc@@U12@U12@U12@U12@U12@U12@@sigc@@@std@@@std@@QEBA_KXZ
    ?back@?$list@V?$slot@$$A6AXXZUnil@sigc@@U12@U12@U12@U12@U12@U12@@sigc@@V?$allocator@V?$slot@$$A6AXXZUnil@sigc@@U12@U12@U12@U12@U12@U12@@sigc@@@std@@@std@@QEAAAEAV?$slot@$$A6AXXZUnil@sigc@@U12@U12@U12@U12@U12@U12@@sigc@@XZ
    ?erase@?$list@V?$slot@$$A6AXXZUnil@sigc@@U12@U12@U12@U12@U12@U12@@sigc@@V?$allocator@V?$slot@$$A6AXXZUnil@sigc@@U12@U12@U12@U12@U12@U12@@sigc@@@std@@@std@@QEAA?AV?$_List_iterator@V?$_List_val@U?$_List_simple_types@V?$slot@$$A6AXXZUnil@sigc@@U12@U12@U12@U12@U12@U12@@sigc@@@std@@@std@@@2@V?$_List_const_iterator@V?$_List_val@U?$_List_simple_types@V?$slot@$$A6AXXZUnil@sigc@@U12@U12@U12@U12@U12@U12@@sigc@@@std@@@std@@@2@@Z
    ?_Tidy@?$list@V?$slot@$$A6AXXZUnil@sigc@@U12@U12@U12@U12@U12@U12@@sigc@@V?$allocator@V?$slot@$$A6AXXZUnil@sigc@@U12@U12@U12@U12@U12@U12@@sigc@@@std@@@std@@AEAAXXZ
    ?_Alloc_sentinel_and_proxy@?$list@V?$slot@$$A6AXXZUnil@sigc@@U12@U12@U12@U12@U12@U12@@sigc@@V?$allocator@V?$slot@$$A6AXXZUnil@sigc@@U12@U12@U12@U12@U12@U12@@sigc@@@std@@@std@@AEAAXXZ
    ?_Getal@?$list@V?$slot@$$A6AXXZUnil@sigc@@U12@U12@U12@U12@U12@U12@@sigc@@V?$allocator@V?$slot@$$A6AXXZUnil@sigc@@U12@U12@U12@U12@U12@U12@@sigc@@@std@@@std@@AEAAAEAV?$allocator@U?$_List_node@V?$slot@$$A6AXXZUnil@sigc@@U12@U12@U12@U12@U12@U12@@sigc@@PEAX@std@@@2@XZ
    ?_Getal@?$list@V?$slot@$$A6AXXZUnil@sigc@@U12@U12@U12@U12@U12@U12@@sigc@@V?$allocator@V?$slot@$$A6AXXZUnil@sigc@@U12@U12@U12@U12@U12@U12@@sigc@@@std@@@std@@AEBAAEBV?$allocator@U?$_List_node@V?$slot@$$A6AXXZUnil@sigc@@U12@U12@U12@U12@U12@U12@@sigc@@PEAX@std@@@2@XZ
    ??0?$_List_val@U?$_List_simple_types@V?$slot@$$A6AXXZUnil@sigc@@U12@U12@U12@U12@U12@U12@@sigc@@@std@@@std@@QEAA@XZ
    ?_Orphan_ptr2@?$_List_val@U?$_List_simple_types@V?$slot@$$A6AXXZUnil@sigc@@U12@U12@U12@U12@U12@U12@@sigc@@@std@@@std@@QEAAXPEAU?$_List_node@V?$slot@$$A6AXXZUnil@sigc@@U12@U12@U12@U12@U12@U12@@sigc@@PEAX@2@@Z
    ?_Unlinknode@?$_List_val@U?$_List_simple_types@V?$slot@$$A6AXXZUnil@sigc@@U12@U12@U12@U12@U12@U12@@sigc@@@std@@@std@@QEAAPEAU?$_List_node@V?$slot@$$A6AXXZUnil@sigc@@U12@U12@U12@U12@U12@U12@@sigc@@PEAX@2@PEAU32@@Z
    ?_Get_first@?$_Compressed_pair@V?$allocator@U?$_List_node@V?$slot@$$A6AXXZUnil@sigc@@U12@U12@U12@U12@U12@U12@@sigc@@PEAX@std@@@std@@V?$_List_val@U?$_List_simple_types@V?$slot@$$A6AXXZUnil@sigc@@U12@U12@U12@U12@U12@U12@@sigc@@@std@@@2@$00@std@@QEAAAEAV?$allocator@U?$_List_node@V?$slot@$$A6AXXZUnil@sigc@@U12@U12@U12@U12@U12@U12@@sigc@@PEAX@std@@@2@XZ
    ?_Get_first@?$_Compressed_pair@V?$allocator@U?$_List_node@V?$slot@$$A6AXXZUnil@sigc@@U12@U12@U12@U12@U12@U12@@sigc@@PEAX@std@@@std@@V?$_List_val@U?$_List_simple_types@V?$slot@$$A6AXXZUnil@sigc@@U12@U12@U12@U12@U12@U12@@sigc@@@std@@@2@$00@std@@QEBAAEBV?$allocator@U?$_List_node@V?$slot@$$A6AXXZUnil@sigc@@U12@U12@U12@U12@U12@U12@@sigc@@PEAX@std@@@2@XZ
    ??$emplace_back@AEBV?$slot@XUnil@sigc@@U12@U12@U12@U12@U12@U12@@sigc@@@?$list@V?$slot@$$A6AXXZUnil@sigc@@U12@U12@U12@U12@U12@U12@@sigc@@V?$allocator@V?$slot@$$A6AXXZUnil@sigc@@U12@U12@U12@U12@U12@U12@@sigc@@@std@@@std@@QEAAXAEBV?$slot@XUnil@sigc@@U12@U12@U12@U12@U12@U12@@sigc@@@Z
    ??R?$slot@$$A6AXXZUnil@sigc@@U12@U12@U12@U12@U12@U12@@sigc@@QEBAXXZ
    ??1?$slot@$$A6AXXZUnil@sigc@@U12@U12@U12@U12@U12@U12@@sigc@@QEAA@XZ
    ??0?$_List_unchecked_const_iterator@V?$_List_val@U?$_List_simple_types@V?$slot@$$A6AXXZUnil@sigc@@U12@U12@U12@U12@U12@U12@@sigc@@@std@@@std@@U_Iterator_base12@2@@std@@QEAA@PEAU?$_List_node@V?$slot@$$A6AXXZUnil@sigc@@U12@U12@U12@U12@U12@U12@@sigc@@PEAX@1@PEBV?$_List_val@U?$_List_simple_types@V?$slot@$$A6AXXZUnil@sigc@@U12@U12@U12@U12@U12@U12@@sigc@@@std@@@1@@Z
    ??1?$_List_unchecked_const_iterator@V?$_List_val@U?$_List_simple_types@V?$slot@$$A6AXXZUnil@sigc@@U12@U12@U12@U12@U12@U12@@sigc@@@std@@@std@@U_Iterator_base12@2@@std@@QEAA@XZ
    ??0?$_List_unchecked_const_iterator@V?$_List_val@U?$_List_simple_types@V?$slot@$$A6AXXZUnil@sigc@@U12@U12@U12@U12@U12@U12@@sigc@@@std@@@std@@U_Iterator_base12@2@@std@@QEAA@AEBV01@@Z
    ??4?$_List_unchecked_const_iterator@V?$_List_val@U?$_List_simple_types@V?$slot@$$A6AXXZUnil@sigc@@U12@U12@U12@U12@U12@U12@@sigc@@@std@@@std@@U_Iterator_base12@2@@std@@QEAAAEAV01@$$QEAV01@@Z
    ??D?$_List_const_iterator@V?$_List_val@U?$_List_simple_types@V?$slot@$$A6AXXZUnil@sigc@@U12@U12@U12@U12@U12@U12@@sigc@@@std@@@std@@@std@@QEBAAEBV?$slot@$$A6AXXZUnil@sigc@@U12@U12@U12@U12@U12@U12@@sigc@@XZ
    ??E?$_List_const_iterator@V?$_List_val@U?$_List_simple_types@V?$slot@$$A6AXXZUnil@sigc@@U12@U12@U12@U12@U12@U12@@sigc@@@std@@@std@@@std@@QEAAAEAV01@XZ
    ??8?$_List_const_iterator@V?$_List_val@U?$_List_simple_types@V?$slot@$$A6AXXZUnil@sigc@@U12@U12@U12@U12@U12@U12@@sigc@@@std@@@std@@@std@@QEBA_NAEBV01@@Z
    ??9?$_List_const_iterator@V?$_List_val@U?$_List_simple_types@V?$slot@$$A6AXXZUnil@sigc@@U12@U12@U12@U12@U12@U12@@sigc@@@std@@@std@@@std@@QEBA_NAEBV01@@Z
    ??1?$_List_const_iterator@V?$_List_val@U?$_List_simple_types@V?$slot@$$A6AXXZUnil@sigc@@U12@U12@U12@U12@U12@U12@@sigc@@@std@@@std@@@std@@QEAA@XZ
    ??0?$_List_const_iterator@V?$_List_val@U?$_List_simple_types@V?$slot@$$A6AXXZUnil@sigc@@U12@U12@U12@U12@U12@U12@@sigc@@@std@@@std@@@std@@QEAA@AEBV01@@Z
    ??4?$_List_const_iterator@V?$_List_val@U?$_List_simple_types@V?$slot@$$A6AXXZUnil@sigc@@U12@U12@U12@U12@U12@U12@@sigc@@@std@@@std@@@std@@QEAAAEAV01@$$QEAV01@@Z
    ??0?$_List_const_iterator@V?$_List_val@U?$_List_simple_types@V?$slot@$$A6AXXZUnil@sigc@@U12@U12@U12@U12@U12@U12@@sigc@@@std@@@std@@@std@@QEAA@PEAU?$_List_node@V?$slot@$$A6AXXZUnil@sigc@@U12@U12@U12@U12@U12@U12@@sigc@@PEAX@1@PEBV?$_List_val@U?$_List_simple_types@V?$slot@$$A6AXXZUnil@sigc@@U12@U12@U12@U12@U12@U12@@sigc@@@std@@@1@@Z
    ??D?$_List_iterator@V?$_List_val@U?$_List_simple_types@V?$slot@$$A6AXXZUnil@sigc@@U12@U12@U12@U12@U12@U12@@sigc@@@std@@@std@@@std@@QEBAAEAV?$slot@$$A6AXXZUnil@sigc@@U12@U12@U12@U12@U12@U12@@sigc@@XZ
    ??C?$_List_iterator@V?$_List_val@U?$_List_simple_types@V?$slot@$$A6AXXZUnil@sigc@@U12@U12@U12@U12@U12@U12@@sigc@@@std@@@std@@@std@@QEBAPEAV?$slot@$$A6AXXZUnil@sigc@@U12@U12@U12@U12@U12@U12@@sigc@@XZ
    ??E?$_List_iterator@V?$_List_val@U?$_List_simple_types@V?$slot@$$A6AXXZUnil@sigc@@U12@U12@U12@U12@U12@U12@@sigc@@@std@@@std@@@std@@QEAAAEAV01@XZ
    ??1?$_List_iterator@V?$_List_val@U?$_List_simple_types@V?$slot@$$A6AXXZUnil@sigc@@U12@U12@U12@U12@U12@U12@@sigc@@@std@@@std@@@std@@QEAA@XZ
    ??4?$_List_iterator@V?$_List_val@U?$_List_simple_types@V?$slot@$$A6AXXZUnil@sigc@@U12@U12@U12@U12@U12@U12@@sigc@@@std@@@std@@@std@@QEAAAEAV01@$$QEAV01@@Z
    ??0?$_List_iterator@V?$_List_val@U?$_List_simple_types@V?$slot@$$A6AXXZUnil@sigc@@U12@U12@U12@U12@U12@U12@@sigc@@@std@@@std@@@std@@QEAA@PEAU?$_List_node@V?$slot@$$A6AXXZUnil@sigc@@U12@U12@U12@U12@U12@U12@@sigc@@PEAX@1@PEBV?$_List_val@U?$_List_simple_types@V?$slot@$$A6AXXZUnil@sigc@@U12@U12@U12@U12@U12@U12@@sigc@@@std@@@1@@Z
    ??$min@_K@std@@YAAEB_KAEB_K0@Z
    ??$forward@AEBV?$slot@XUnil@sigc@@U12@U12@U12@U12@U12@U12@@sigc@@@std@@YAAEBV?$slot@XUnil@sigc@@U12@U12@U12@U12@U12@U12@@sigc@@AEBV12@@Z
    ??$_Emplace@AEBV?$slot@XUnil@sigc@@U12@U12@U12@U12@U12@U12@@sigc@@@?$list@V?$slot@$$A6AXXZUnil@sigc@@U12@U12@U12@U12@U12@U12@@sigc@@V?$allocator@V?$slot@$$A6AXXZUnil@sigc@@U12@U12@U12@U12@U12@U12@@sigc@@@std@@@std@@QEAAPEAU?$_List_node@V?$slot@$$A6AXXZUnil@sigc@@U12@U12@U12@U12@U12@U12@@sigc@@PEAX@1@QEAU21@AEBV?$slot@XUnil@sigc@@U12@U12@U12@U12@U12@U12@@sigc@@@Z
    ?pointer_to@?$pointer_traits@PEAV?$slot@$$A6AXXZUnil@sigc@@U12@U12@U12@U12@U12@U12@@sigc@@@std@@SAPEAV?$slot@$$A6AXXZUnil@sigc@@U12@U12@U12@U12@U12@U12@@sigc@@AEAV34@@Z
    ??$addressof@V?$_List_val@U?$_List_simple_types@V?$slot@$$A6AXXZUnil@sigc@@U12@U12@U12@U12@U12@U12@@sigc@@@std@@@std@@@std@@YAPEAV?$_List_val@U?$_List_simple_types@V?$slot@$$A6AXXZUnil@sigc@@U12@U12@U12@U12@U12@U12@@sigc@@@std@@@0@AEAV10@@Z
    ??$_Freenode@V?$allocator@U?$_List_node@V?$slot@$$A6AXXZUnil@sigc@@U12@U12@U12@U12@U12@U12@@sigc@@PEAX@std@@@std@@@?$_List_node@V?$slot@$$A6AXXZUnil@sigc@@U12@U12@U12@U12@U12@U12@@sigc@@PEAX@std@@SAXAEAV?$allocator@U?$_List_node@V?$slot@$$A6AXXZUnil@sigc@@U12@U12@U12@U12@U12@U12@@sigc@@PEAX@std@@@1@PEAU01@@Z
    ??$?0$$V@?$_Compressed_pair@V?$allocator@U?$_List_node@V?$slot@$$A6AXXZUnil@sigc@@U12@U12@U12@U12@U12@U12@@sigc@@PEAX@std@@@std@@V?$_List_val@U?$_List_simple_types@V?$slot@$$A6AXXZUnil@sigc@@U12@U12@U12@U12@U12@U12@@sigc@@@std@@@2@$00@std@@QEAA@U_Zero_then_variadic_args_t@1@@Z
    ?allocate@?$allocator@U_Container_proxy@std@@@std@@QEAAPEAU_Container_proxy@2@_K@Z
    ??$_Delete_plain_internal@V?$allocator@U_Container_proxy@std@@@std@@@std@@YAXAEAV?$allocator@U_Container_proxy@std@@@0@QEAU_Container_proxy@0@@Z
    ??0?$_Alloc_construct_ptr@V?$allocator@U?$_List_node@V?$slot@$$A6AXXZUnil@sigc@@U12@U12@U12@U12@U12@U12@@sigc@@PEAX@std@@@std@@@std@@QEAA@AEAV?$allocator@U?$_List_node@V?$slot@$$A6AXXZUnil@sigc@@U12@U12@U12@U12@U12@U12@@sigc@@PEAX@std@@@1@@Z
    ?_Allocate@?$_Alloc_construct_ptr@V?$allocator@U?$_List_node@V?$slot@$$A6AXXZUnil@sigc@@U12@U12@U12@U12@U12@U12@@sigc@@PEAX@std@@@std@@@std@@QEAAXXZ
    ??1?$_Alloc_construct_ptr@V?$allocator@U?$_List_node@V?$slot@$$A6AXXZUnil@sigc@@U12@U12@U12@U12@U12@U12@@sigc@@PEAX@std@@@std@@@std@@QEAA@XZ
    ??1?$_List_node_emplace_op2@V?$allocator@U?$_List_node@V?$slot@$$A6AXXZUnil@sigc@@U12@U12@U12@U12@U12@U12@@sigc@@PEAX@std@@@std@@@std@@QEAA@XZ
    ?_Transfer_before@?$_List_node_emplace_op2@V?$allocator@U?$_List_node@V?$slot@$$A6AXXZUnil@sigc@@U12@U12@U12@U12@U12@U12@@sigc@@PEAX@std@@@std@@@std@@QEAAPEAU?$_List_node@V?$slot@$$A6AXXZUnil@sigc@@U12@U12@U12@U12@U12@U12@@sigc@@PEAX@2@QEAU32@@Z
    ??$?0AEBV?$slot@XUnil@sigc@@U12@U12@U12@U12@U12@U12@@sigc@@@?$_List_node_emplace_op2@V?$allocator@U?$_List_node@V?$slot@$$A6AXXZUnil@sigc@@U12@U12@U12@U12@U12@U12@@sigc@@PEAX@std@@@std@@@std@@QEAA@AEAV?$allocator@U?$_List_node@V?$slot@$$A6AXXZUnil@sigc@@U12@U12@U12@U12@U12@U12@@sigc@@PEAX@std@@@1@AEBV?$slot@XUnil@sigc@@U12@U12@U12@U12@U12@U12@@sigc@@@Z
    ??$addressof@V?$slot@$$A6AXXZUnil@sigc@@U12@U12@U12@U12@U12@U12@@sigc@@@std@@YAPEAV?$slot@$$A6AXXZUnil@sigc@@U12@U12@U12@U12@U12@U12@@sigc@@AEAV12@@Z
    ??$destroy@V?$slot@$$A6AXXZUnil@sigc@@U12@U12@U12@U12@U12@U12@@sigc@@@?$_Default_allocator_traits@V?$allocator@U?$_List_node@V?$slot@$$A6AXXZUnil@sigc@@U12@U12@U12@U12@U12@U12@@sigc@@PEAX@std@@@std@@@std@@SAXAEAV?$allocator@U?$_List_node@V?$slot@$$A6AXXZUnil@sigc@@U12@U12@U12@U12@U12@U12@@sigc@@PEAX@std@@@1@QEAV?$slot@$$A6AXXZUnil@sigc@@U12@U12@U12@U12@U12@U12@@sigc@@@Z
    ??$_Freenode0@V?$allocator@U?$_List_node@V?$slot@$$A6AXXZUnil@sigc@@U12@U12@U12@U12@U12@U12@@sigc@@PEAX@std@@@std@@@?$_List_node@V?$slot@$$A6AXXZUnil@sigc@@U12@U12@U12@U12@U12@U12@@sigc@@PEAX@std@@SAXAEAV?$allocator@U?$_List_node@V?$slot@$$A6AXXZUnil@sigc@@U12@U12@U12@U12@U12@U12@@sigc@@PEAX@std@@@1@PEAU01@@Z
    ??$_Deallocate_plain@V?$allocator@U_Container_proxy@std@@@std@@@std@@YAXAEAV?$allocator@U_Container_proxy@std@@@0@QEAU_Container_proxy@0@@Z
    ??0?$_Container_proxy_ptr12@V?$allocator@U_Container_proxy@std@@@std@@@std@@QEAA@AEAV?$allocator@U_Container_proxy@std@@@1@AEAU_Container_base12@1@@Z
    ??1?$_Container_proxy_ptr12@V?$allocator@U_Container_proxy@std@@@std@@@std@@QEAA@XZ
    ??$_Unfancy@U_Container_proxy@std@@@std@@YAPEAU_Container_proxy@0@PEAU10@@Z
    ??$_Construct_in_place@U_Container_proxy@std@@PEAU_Container_base12@2@@std@@YAXAEAU_Container_proxy@0@$$QEAPEAU_Container_base12@0@@Z
    ??$?0U?$_List_node@V?$slot@$$A6AXXZUnil@sigc@@U12@U12@U12@U12@U12@U12@@sigc@@PEAX@std@@@?$allocator@U_Container_proxy@std@@@std@@QEAA@AEBV?$allocator@U?$_List_node@V?$slot@$$A6AXXZUnil@sigc@@U12@U12@U12@U12@U12@U12@@sigc@@PEAX@std@@@1@@Z
    ??$_Construct_in_place@PEAU?$_List_node@V?$slot@$$A6AXXZUnil@sigc@@U12@U12@U12@U12@U12@U12@@sigc@@PEAX@std@@AEAPEAU12@@std@@YAXAEAPEAU?$_List_node@V?$slot@$$A6AXXZUnil@sigc@@U12@U12@U12@U12@U12@U12@@sigc@@PEAX@0@0@Z
    ??$addressof@$$CBV?$_List_val@U?$_List_simple_types@V?$slot@$$A6AXXZUnil@sigc@@U12@U12@U12@U12@U12@U12@@sigc@@@std@@@std@@@std@@YAPEBV?$_List_val@U?$_List_simple_types@V?$slot@$$A6AXXZUnil@sigc@@U12@U12@U12@U12@U12@U12@@sigc@@@std@@@0@AEBV10@@Z
    ??$_Deallocate@$0BA@@std@@YAXPEAX_K@Z
    ??$construct@V?$slot@$$A6AXXZUnil@sigc@@U12@U12@U12@U12@U12@U12@@sigc@@AEBV?$slot@XUnil@sigc@@U12@U12@U12@U12@U12@U12@@2@@?$_Default_allocator_traits@V?$allocator@U?$_List_node@V?$slot@$$A6AXXZUnil@sigc@@U12@U12@U12@U12@U12@U12@@sigc@@PEAX@std@@@std@@@std@@SAXAEAV?$allocator@U?$_List_node@V?$slot@$$A6AXXZUnil@sigc@@U12@U12@U12@U12@U12@U12@@sigc@@PEAX@std@@@1@QEAV?$slot@$$A6AXXZUnil@sigc@@U12@U12@U12@U12@U12@U12@@sigc@@AEBV?$slot@XUnil@sigc@@U12@U12@U12@U12@U12@U12@@4@@Z
    ??$_Destroy_in_place@PEAU?$_List_node@V?$slot@$$A6AXXZUnil@sigc@@U12@U12@U12@U12@U12@U12@@sigc@@PEAX@std@@@std@@YAXAEAPEAU?$_List_node@V?$slot@$$A6AXXZUnil@sigc@@U12@U12@U12@U12@U12@U12@@sigc@@PEAX@0@@Z
    ?deallocate@?$_Default_allocator_traits@V?$allocator@U_Container_proxy@std@@@std@@@std@@SAXAEAV?$allocator@U_Container_proxy@std@@@2@QEAU_Container_proxy@2@_K@Z
    ??$addressof@U_Container_proxy@std@@@std@@YAPEAU_Container_proxy@0@AEAU10@@Z
    ??$forward@PEAU_Container_base12@std@@@std@@YA$$QEAPEAU_Container_base12@0@AEAPEAU10@@Z
    ??$addressof@PEAU?$_List_node@V?$slot@$$A6AXXZUnil@sigc@@U12@U12@U12@U12@U12@U12@@sigc@@PEAX@std@@@std@@YAPEAPEAU?$_List_node@V?$slot@$$A6AXXZUnil@sigc@@U12@U12@U12@U12@U12@U12@@sigc@@PEAX@0@AEAPEAU10@@Z
    ??$forward@AEAPEAU?$_List_node@V?$slot@$$A6AXXZUnil@sigc@@U12@U12@U12@U12@U12@U12@@sigc@@PEAX@std@@@std@@YAAEAPEAU?$_List_node@V?$slot@$$A6AXXZUnil@sigc@@U12@U12@U12@U12@U12@U12@@sigc@@PEAX@0@AEAPEAU10@@Z
    ??$addressof@U_Container_base12@std@@@std@@YAPEAU_Container_base12@0@AEAU10@@Z
    ??$_Construct_in_place@PEAU?$_List_node@V?$slot@$$A6AXXZUnil@sigc@@U12@U12@U12@U12@U12@U12@@sigc@@PEAX@std@@AEBQEAU12@@std@@YAXAEAPEAU?$_List_node@V?$slot@$$A6AXXZUnil@sigc@@U12@U12@U12@U12@U12@U12@@sigc@@PEAX@0@AEBQEAU10@@Z
    ??$_Get_size_of_n@$0BA@@std@@YA_K_K@Z
    ??$_Allocate@$0BA@U_Default_allocate_traits@std@@@std@@YAPEAX_K@Z
    ??$_Get_size_of_n@$0CA@@std@@YA_K_K@Z
    ??$_Free_non_head@V?$allocator@U?$_List_node@V?$slot@$$A6AXXZUnil@sigc@@U12@U12@U12@U12@U12@U12@@sigc@@PEAX@std@@@std@@@?$_List_node@V?$slot@$$A6AXXZUnil@sigc@@U12@U12@U12@U12@U12@U12@@sigc@@PEAX@std@@SAXAEAV?$allocator@U?$_List_node@V?$slot@$$A6AXXZUnil@sigc@@U12@U12@U12@U12@U12@U12@@sigc@@PEAX@std@@@1@PEAU01@@Z
    ??$_Max_limit@_J@std@@YA_JXZ
    ??R?$slot0@X@sigc@@QEBAXXZ
    ??0?$slot0@X@sigc@@QEAA@AEBV01@@Z
    ??1?$slot0@X@sigc@@QEAA@XZ
    ??0?$slot@XUnil@sigc@@U12@U12@U12@U12@U12@U12@@sigc@@QEAA@AEBV01@@Z
    ??1?$slot@XUnil@sigc@@U12@U12@U12@U12@U12@U12@@sigc@@QEAA@XZ
    ??$?0V?$slot@XUnil@sigc@@U12@U12@U12@U12@U12@U12@@sigc@@@?$slot@$$A6AXXZUnil@sigc@@U12@U12@U12@U12@U12@U12@@sigc@@QEAA@AEBV?$slot@XUnil@sigc@@U12@U12@U12@U12@U12@U12@@1@@Z
    ??$forward@AEBQEAU?$_List_node@V?$slot@$$A6AXXZUnil@sigc@@U12@U12@U12@U12@U12@U12@@sigc@@PEAX@std@@@std@@YAAEBQEAU?$_List_node@V?$slot@$$A6AXXZUnil@sigc@@U12@U12@U12@U12@U12@U12@@sigc@@PEAX@0@AEBQEAU10@@Z
    ??$_Allocate_manually_vector_aligned@U_Default_allocate_traits@std@@@std@@YAPEAX_K@Z
    ??R?$adaptor_functor@V?$slot@XUnil@sigc@@U12@U12@U12@U12@U12@U12@@sigc@@@sigc@@QEBAXXZ
    ??0?$adaptor_functor@V?$slot@XUnil@sigc@@U12@U12@U12@U12@U12@U12@@sigc@@@sigc@@QEAA@AEBV?$slot@XUnil@sigc@@U12@U12@U12@U12@U12@U12@@1@@Z
    ??1?$adaptor_functor@V?$slot@XUnil@sigc@@U12@U12@U12@U12@U12@U12@@sigc@@@sigc@@QEAA@XZ
    ??0?$adaptor_functor@V?$slot@XUnil@sigc@@U12@U12@U12@U12@U12@U12@@sigc@@@sigc@@QEAA@AEBU01@@Z
    ??0?$typed_slot_rep@V?$slot@XUnil@sigc@@U12@U12@U12@U12@U12@U12@@sigc@@@internal@sigc@@QEAA@AEBV?$slot@XUnil@sigc@@U12@U12@U12@U12@U12@U12@@2@@Z
    ??0?$typed_slot_rep@V?$slot@XUnil@sigc@@U12@U12@U12@U12@U12@U12@@sigc@@@internal@sigc@@QEAA@AEBU012@@Z
    ?destroy@?$typed_slot_rep@V?$slot@XUnil@sigc@@U12@U12@U12@U12@U12@U12@@sigc@@@internal@sigc@@SAPEAXPEAX@Z
    ?dup@?$typed_slot_rep@V?$slot@XUnil@sigc@@U12@U12@U12@U12@U12@U12@@sigc@@@internal@sigc@@SAPEAXPEAX@Z
    ?call_it@?$slot_call@V?$slot@XUnil@sigc@@U12@U12@U12@U12@U12@U12@@sigc@@X$$V@internal@sigc@@SAXPEAUslot_rep@23@@Z
    ?address@?$slot_call@V?$slot@XUnil@sigc@@U12@U12@U12@U12@U12@U12@@sigc@@X$$V@internal@sigc@@SAP6APEAXPEAX@ZXZ
    ??$function_pointer_cast@P6APEAXPEAX@ZP6AXPEAUslot_rep@internal@sigc@@@Z@internal@sigc@@YAP6APEAXPEAX@ZP6AXPEAUslot_rep@01@@Z@Z
    ??$visit_each_type@PEAUtrackable@sigc@@Uslot_do_bind@internal@2@U?$adaptor_functor@V?$slot@XUnil@sigc@@U12@U12@U12@U12@U12@U12@@sigc@@@2@@sigc@@YAXAEBUslot_do_bind@internal@0@AEBU?$adaptor_functor@V?$slot@XUnil@sigc@@U12@U12@U12@U12@U12@U12@@sigc@@@0@@Z
    ??0?$limit_derived_target@PEAUtrackable@sigc@@Uslot_do_bind@internal@2@@internal@sigc@@QEAA@AEBUslot_do_bind@12@@Z
    ??$visit_each@U?$limit_derived_target@PEAUtrackable@sigc@@Uslot_do_bind@internal@2@@internal@sigc@@U?$adaptor_functor@V?$slot@XUnil@sigc@@U12@U12@U12@U12@U12@U12@@sigc@@@3@@sigc@@YAXAEBU?$limit_derived_target@PEAUtrackable@sigc@@Uslot_do_bind@internal@2@@internal@0@AEBU?$adaptor_functor@V?$slot@XUnil@sigc@@U12@U12@U12@U12@U12@U12@@sigc@@@0@@Z
    ??$visit_each_type@PEAUtrackable@sigc@@Uslot_do_unbind@internal@2@U?$adaptor_functor@V?$slot@XUnil@sigc@@U12@U12@U12@U12@U12@U12@@sigc@@@2@@sigc@@YAXAEBUslot_do_unbind@internal@0@AEBU?$adaptor_functor@V?$slot@XUnil@sigc@@U12@U12@U12@U12@U12@U12@@sigc@@@0@@Z
    ??$do_visit_each@U?$limit_derived_target@PEAUtrackable@sigc@@Uslot_do_bind@internal@2@@internal@sigc@@@?$visitor@U?$adaptor_functor@V?$slot@XUnil@sigc@@U12@U12@U12@U12@U12@U12@@sigc@@@sigc@@@sigc@@SAXAEBU?$limit_derived_target@PEAUtrackable@sigc@@Uslot_do_bind@internal@2@@internal@1@AEBU?$adaptor_functor@V?$slot@XUnil@sigc@@U12@U12@U12@U12@U12@U12@@sigc@@@1@@Z
    ??0?$limit_derived_target@PEAUtrackable@sigc@@Uslot_do_unbind@internal@2@@internal@sigc@@QEAA@AEBUslot_do_unbind@12@@Z
    ??$visit_each@U?$limit_derived_target@PEAUtrackable@sigc@@Uslot_do_unbind@internal@2@@internal@sigc@@U?$adaptor_functor@V?$slot@XUnil@sigc@@U12@U12@U12@U12@U12@U12@@sigc@@@3@@sigc@@YAXAEBU?$limit_derived_target@PEAUtrackable@sigc@@Uslot_do_unbind@internal@2@@internal@0@AEBU?$adaptor_functor@V?$slot@XUnil@sigc@@U12@U12@U12@U12@U12@U12@@sigc@@@0@@Z
    ??$visit_each@U?$limit_derived_target@PEAUtrackable@sigc@@Uslot_do_bind@internal@2@@internal@sigc@@V?$slot@XUnil@sigc@@U12@U12@U12@U12@U12@U12@@3@@sigc@@YAXAEBU?$limit_derived_target@PEAUtrackable@sigc@@Uslot_do_bind@internal@2@@internal@0@AEBV?$slot@XUnil@sigc@@U12@U12@U12@U12@U12@U12@@0@@Z
    ??$do_visit_each@U?$limit_derived_target@PEAUtrackable@sigc@@Uslot_do_unbind@internal@2@@internal@sigc@@@?$visitor@U?$adaptor_functor@V?$slot@XUnil@sigc@@U12@U12@U12@U12@U12@U12@@sigc@@@sigc@@@sigc@@SAXAEBU?$limit_derived_target@PEAUtrackable@sigc@@Uslot_do_unbind@internal@2@@internal@1@AEBU?$adaptor_functor@V?$slot@XUnil@sigc@@U12@U12@U12@U12@U12@U12@@sigc@@@1@@Z
    ?do_visit_each@?$visitor@V?$slot@XUnil@sigc@@U12@U12@U12@U12@U12@U12@@sigc@@@sigc@@SAXAEBU?$limit_derived_target@PEAUtrackable@sigc@@Uslot_do_bind@internal@2@@internal@2@AEBV?$slot@XUnil@sigc@@U12@U12@U12@U12@U12@U12@@2@@Z
    ?do_visit_each@?$visitor@V?$slot@XUnil@sigc@@U12@U12@U12@U12@U12@U12@@sigc@@@sigc@@SAXAEBU?$limit_derived_target@PEAUtrackable@sigc@@Uslot_do_unbind@internal@2@@internal@2@AEBV?$slot@XUnil@sigc@@U12@U12@U12@U12@U12@U12@@2@@Z
    ??$visit_each@U?$limit_derived_target@PEAUtrackable@sigc@@Uslot_do_unbind@internal@2@@internal@sigc@@V?$slot@XUnil@sigc@@U12@U12@U12@U12@U12@U12@@3@@sigc@@YAXAEBU?$limit_derived_target@PEAUtrackable@sigc@@Uslot_do_unbind@internal@2@@internal@0@AEBV?$slot@XUnil@sigc@@U12@U12@U12@U12@U12@U12@@0@@Z
    ??_7exception@std@@6B@
    ??_C@_0BC@EOODALEL@Unknown?5exception@
    ??_7bad_alloc@std@@6B@
    ??_7bad_array_new_length@std@@6B@
    ??_C@_0BF@KINCDENJ@bad?5array?5new?5length@
    ??_R0?AVexception@std@@@8
    _CT??_R0?AVexception@std@@@8??0exception@std@@QEAA@AEBV01@@Z24
    _TI3?AVbad_array_new_length@std@@
    _CTA3?AVbad_array_new_length@std@@
    ??_R0?AVbad_array_new_length@std@@@8
    _CT??_R0?AVbad_array_new_length@std@@@8??0bad_array_new_length@std@@QEAA@AEBV01@@Z24
    ??_R0?AVbad_alloc@std@@@8
    _CT??_R0?AVbad_alloc@std@@@8??0bad_alloc@std@@QEAA@AEBV01@@Z24
    ??_C@_0BB@FCMFBGOM@invalid?5argument@
    ??_C@_02DKCKIIND@?$CFs@
    ??_C@_0GC@KLECFGLI@C?3?2Program?5Files?2Microsoft?5Visu@
    ??_C@_0BJ@LFDBABJJ@ITERATOR?5LIST?5CORRUPTED?$CB@
    ??_R0?AVError@Glib@@@8
    ??_C@_0CC@KEJJOMBH@list?5erase?5iterator?5outside?5ran@
    ??_C@_0FP@IHALIHCI@C?3?2Program?5Files?2Microsoft?5Visu@
    ??_C@_0BM@JDPDBGEE@back?$CI?$CJ?5called?5on?5empty?5list@
    ??_C@_0O@NKNMEGII@list?5too?5long@
    ??_C@_0BM@BALDKKHE@list?5iterators?5incompatible@
    ??_C@_0DB@ENBCPNKO@cannot?5increment?5value?9initiali@
    ??_C@_0CD@PMFMCEG@cannot?5increment?5end?5list?5itera@
    ??_C@_0DD@MBIHGLJE@cannot?5dereference?5value?9initia@
    ??_C@_0CF@JCBFHMPL@cannot?5dereference?5end?5list?5ite@
    ??_C@_0DG@KGHKKGBC@null?5pointer?5cannot?5point?5to?5a?5@
    ??_R4exception@std@@6B@
    ??_R3exception@std@@8
    ??_R2exception@std@@8
    ??_R1A@?0A@EA@exception@std@@8
    ??_R4bad_array_new_length@std@@6B@
    ??_R3bad_array_new_length@std@@8
    ??_R2bad_array_new_length@std@@8
    ??_R1A@?0A@EA@bad_array_new_length@std@@8
    ??_R1A@?0A@EA@bad_alloc@std@@8
    ??_R3bad_alloc@std@@8
    ??_R2bad_alloc@std@@8
    ??_R4bad_alloc@std@@6B@
    ?__empty_global_delete@@YAXPEAX@Z
    ?__empty_global_delete@@YAXPEAX_K@Z
    ??0ExtraClassInit@Glib@@IEAA@P6AXPEAX0@Z0P6AXPEAU_GTypeInstance@@0@Z@Z
    ??1ExtraClassInit@Glib@@UEAA@XZ
    ??_DExtraClassInit@Glib@@QEAAXXZ
    ??_7ExtraClassInit@Glib@@6B@
    ??_8ExtraClassInit@Glib@@7B01@@
    ??_8ExtraClassInit@Glib@@7BObjectBase@1@@
    ??_R4ExtraClassInit@Glib@@6B@
    ??_R0?AVExtraClassInit@Glib@@@8
    ??_R3ExtraClassInit@Glib@@8
    ??_R2ExtraClassInit@Glib@@8
    ??_R1A@?0A@EA@ExtraClassInit@Glib@@8
    ??_R1A@A@7FA@ObjectBase@Glib@@8
    ??_R0?AVObjectBase@Glib@@@8
    ??_R3ObjectBase@Glib@@8
    ??_R2ObjectBase@Glib@@8
    ??_R1A@?0A@EA@ObjectBase@Glib@@8
    ??_R1A@73FA@trackable@sigc@@8
    ??_R0?AUtrackable@sigc@@@8
    ??_R3trackable@sigc@@8
    ??_R2trackable@sigc@@8
    ??_R1A@?0A@EA@trackable@sigc@@8
    ??_R1A@A@3FA@trackable@sigc@@8
    ?__empty_global_delete@@YAXPEAX@Z
    ?__empty_global_delete@@YAXPEAX_K@Z
    ??2@YAPEAX_KPEAX@Z
    ??0exception@std@@QEAA@QEBDH@Z
    ??0exception@std@@QEAA@AEBV01@@Z
    ??1exception@std@@UEAA@XZ
    ?what@exception@std@@UEBAPEBDXZ
    ??0bad_alloc@std@@AEAA@QEBD@Z
    ??1bad_alloc@std@@UEAA@XZ
    ??0bad_alloc@std@@QEAA@AEBV01@@Z
    ??0bad_array_new_length@std@@QEAA@XZ
    ??1bad_array_new_length@std@@UEAA@XZ
    ??0bad_array_new_length@std@@QEAA@AEBV01@@Z
    ?copy@?$_Char_traits@DH@std@@SAPEADQEADQEBD_K@Z
    ?move@?$_Char_traits@DH@std@@SAPEADQEADQEBD_K@Z
    ?length@?$_Narrow_char_traits@DH@std@@SA_KQEBD@Z
    ?assign@?$_Narrow_char_traits@DH@std@@SAXAEADAEBD@Z
    ?_Throw_bad_array_new_length@std@@YAXXZ
    ?_Allocate@_Default_allocate_traits@std@@SAPEAX_K@Z
    ?_Adjust_manually_vector_aligned@std@@YAXAEAPEAXAEA_K@Z
    ??0_Container_proxy@std@@QEAA@PEAU_Container_base12@1@@Z
    ??0_Container_base12@std@@QEAA@XZ
    ?_Orphan_all@_Container_base12@std@@QEAAXXZ
    ?_Swap_proxy_and_iterators@_Container_base12@std@@QEAAXAEAU12@@Z
    ?_Orphan_all_unlocked_v3@_Container_base12@std@@AEAAXXZ
    ?_Swap_proxy_and_iterators_unlocked@_Container_base12@std@@AEAAXAEAU12@@Z
    ?_Orphan_all_locked_v3@_Container_base12@std@@AEAAXXZ
    ?_Swap_proxy_and_iterators_locked@_Container_base12@std@@AEAAXAEAU12@@Z
    ??$exchange@PEAU_Iterator_base12@std@@$$T@std@@YAPEAU_Iterator_base12@0@AEAPEAU10@$$QEA$$T@Z
    ?_Release@_Basic_container_proxy_ptr12@std@@QEAAXXZ
    ??0_Basic_container_proxy_ptr12@std@@IEAA@XZ
    ?_Xlen_string@std@@YAXXZ
    ??0?$allocator@D@std@@QEAA@XZ
    ?deallocate@?$allocator@D@std@@QEAAXQEAD_K@Z
    ?allocate@?$allocator@D@std@@QEAAPEAD_K@Z
    ?max_size@?$_Default_allocator_traits@V?$allocator@D@std@@@std@@SA_KAEBV?$allocator@D@2@@Z
    ?select_on_container_copy_construction@?$_Default_allocator_traits@V?$allocator@D@std@@@std@@SA?AV?$allocator@D@2@AEBV32@@Z
    ??0?$_String_val@U?$_Simple_types@D@std@@@std@@QEAA@XZ
    ?_Myptr@?$_String_val@U?$_Simple_types@D@std@@@std@@QEAAPEADXZ
    ?_Myptr@?$_String_val@U?$_Simple_types@D@std@@@std@@QEBAPEBDXZ
    ?_Large_mode_engaged@?$_String_val@U?$_Simple_types@D@std@@@std@@QEBA_NXZ
    ?_Activate_SSO_buffer@?$_String_val@U?$_Simple_types@D@std@@@std@@QEAAXXZ
    ??0_Bxty@?$_String_val@U?$_Simple_types@D@std@@@std@@QEAA@XZ
    ??1_Bxty@?$_String_val@U?$_Simple_types@D@std@@@std@@QEAA@XZ
    ?_Switch_to_buf@_Bxty@?$_String_val@U?$_Simple_types@D@std@@@std@@QEAAXXZ
    ??1?$_String_val@U?$_Simple_types@D@std@@@std@@QEAA@XZ
    ??0?$basic_string@DU?$char_traits@D@std@@V?$allocator@D@2@@std@@QEAA@XZ
    ??0?$basic_string@DU?$char_traits@D@std@@V?$allocator@D@2@@std@@QEAA@AEBV01@@Z
    ??0?$basic_string@DU?$char_traits@D@std@@V?$allocator@D@2@@std@@QEAA@QEBD_K@Z
    ??0?$basic_string@DU?$char_traits@D@std@@V?$allocator@D@2@@std@@QEAA@QEBD@Z
    ?_Deallocate_for_capacity@?$basic_string@DU?$char_traits@D@std@@V?$allocator@D@2@@std@@CAXAEAV?$allocator@D@2@QEAD_K@Z
    ?_Construct_empty@?$basic_string@DU?$char_traits@D@std@@V?$allocator@D@2@@std@@AEAAXXZ
    ??0?$basic_string@DU?$char_traits@D@std@@V?$allocator@D@2@@std@@QEAA@$$QEAV01@@Z
    ?_Take_contents@?$basic_string@DU?$char_traits@D@std@@V?$allocator@D@2@@std@@AEAAXAEAV12@@Z
    ??1?$basic_string@DU?$char_traits@D@std@@V?$allocator@D@2@@std@@QEAA@XZ
    ??4?$basic_string@DU?$char_traits@D@std@@V?$allocator@D@2@@std@@QEAAAEAV01@QEBD@Z
    ??Y?$basic_string@DU?$char_traits@D@std@@V?$allocator@D@2@@std@@QEAAAEAV01@QEBD@Z
    ?append@?$basic_string@DU?$char_traits@D@std@@V?$allocator@D@2@@std@@QEAAAEAV12@QEBD_K@Z
    ?append@?$basic_string@DU?$char_traits@D@std@@V?$allocator@D@2@@std@@QEAAAEAV12@QEBD@Z
    ?assign@?$basic_string@DU?$char_traits@D@std@@V?$allocator@D@2@@std@@QEAAAEAV12@QEBD_K@Z
    ?assign@?$basic_string@DU?$char_traits@D@std@@V?$allocator@D@2@@std@@QEAAAEAV12@QEBD@Z
    ?c_str@?$basic_string@DU?$char_traits@D@std@@V?$allocator@D@2@@std@@QEBAPEBDXZ
    ?data@?$basic_string@DU?$char_traits@D@std@@V?$allocator@D@2@@std@@QEBAPEBDXZ
    ?size@?$basic_string@DU?$char_traits@D@std@@V?$allocator@D@2@@std@@QEBA_KXZ
    ?max_size@?$basic_string@DU?$char_traits@D@std@@V?$allocator@D@2@@std@@QEBA_KXZ
    ?_Calculate_growth@?$basic_string@DU?$char_traits@D@std@@V?$allocator@D@2@@std@@CA_K_K00@Z
    ?_Calculate_growth@?$basic_string@DU?$char_traits@D@std@@V?$allocator@D@2@@std@@AEBA_K_K@Z
    ?_Tidy_deallocate@?$basic_string@DU?$char_traits@D@std@@V?$allocator@D@2@@std@@AEAAXXZ
    ?_Swap_proxy_and_iterators@?$basic_string@DU?$char_traits@D@std@@V?$allocator@D@2@@std@@AEAAXAEAV12@@Z
    ?_Getal@?$basic_string@DU?$char_traits@D@std@@V?$allocator@D@2@@std@@AEAAAEAV?$allocator@D@2@XZ
    ?_Getal@?$basic_string@DU?$char_traits@D@std@@V?$allocator@D@2@@std@@AEBAAEBV?$allocator@D@2@XZ
    ?_Get_first@?$_Compressed_pair@V?$allocator@D@std@@V?$_String_val@U?$_Simple_types@D@std@@@2@$00@std@@QEAAAEAV?$allocator@D@2@XZ
    ?_Get_first@?$_Compressed_pair@V?$allocator@D@std@@V?$_String_val@U?$_Simple_types@D@std@@@2@$00@std@@QEBAAEBV?$allocator@D@2@XZ
    ??1?$_Compressed_pair@V?$allocator@D@std@@V?$_String_val@U?$_Simple_types@D@std@@@2@$00@std@@QEAA@XZ
    ??0Exception@Glib@@QEAA@AEBV01@@Z
    ?convert_const_gchar_ptr_to_stdstring@Glib@@YA?AV?$basic_string@DU?$char_traits@D@std@@V?$allocator@D@2@@std@@PEBD@Z
    ??$make_unique_ptr_gfree@D@Glib@@YA?AV?$unique_ptr@$$BY0A@DP6AXPEAX@Z@std@@PEAD@Z
    ??1?$unique_ptr@$$BY0A@DP6AXPEAX@Z@std@@QEAA@XZ
    ?get_deleter@?$unique_ptr@$$BY0A@DP6AXPEAX@Z@std@@QEAAAEAP6AXPEAX@ZXZ
    ?get@?$unique_ptr@$$BY0A@DP6AXPEAX@Z@std@@QEBAPEADXZ
    ?release@?$unique_ptr@$$BY0A@DP6AXPEAX@Z@std@@QEAAPEADXZ
    ?_Get_first@?$_Compressed_pair@P6AXPEAX@ZPEAD$0A@@std@@QEAAAEAP6AXPEAX@ZXZ
    ??0FileError@Glib@@QEAA@W4Code@01@AEBVustring@1@@Z
    ??0FileError@Glib@@QEAA@PEAU_GError@@@Z
    ?code@FileError@Glib@@QEBA?AW4Code@12@XZ
    ?throw_func@FileError@Glib@@CAXPEAU_GError@@@Z
    ??1FileError@Glib@@UEAA@XZ
    ??0FileError@Glib@@QEAA@AEBV01@@Z
    ??0DirIterator@Glib@@QEAA@XZ
    ??0DirIterator@Glib@@QEAA@PEAU_GDir@@PEBD@Z
    ??DDirIterator@Glib@@QEBA?AV?$basic_string@DU?$char_traits@D@std@@V?$allocator@D@2@@std@@XZ
    ??EDirIterator@Glib@@QEAAAEAV01@XZ
    ??EDirIterator@Glib@@QEAAXH@Z
    ??8DirIterator@Glib@@QEBA_NAEBV01@@Z
    ??9DirIterator@Glib@@QEBA_NAEBV01@@Z
    ??0Dir@Glib@@QEAA@AEBV?$basic_string@DU?$char_traits@D@std@@V?$allocator@D@2@@std@@@Z
    ??0Dir@Glib@@QEAA@PEAU_GDir@@@Z
    ??1Dir@Glib@@QEAA@XZ
    ?read_name@Dir@Glib@@QEAA?AV?$basic_string@DU?$char_traits@D@std@@V?$allocator@D@2@@std@@XZ
    ?rewind@Dir@Glib@@QEAAXXZ
    ?close@Dir@Glib@@QEAAXXZ
    ?begin@Dir@Glib@@QEAA?AVDirIterator@2@XZ
    ?end@Dir@Glib@@QEAA?AVDirIterator@2@XZ
    ?file_test@Glib@@YA_NAEBV?$basic_string@DU?$char_traits@D@std@@V?$allocator@D@2@@std@@W4FileTest@1@@Z
    ?mkstemp@Glib@@YAHAEAV?$basic_string@DU?$char_traits@D@std@@V?$allocator@D@2@@std@@@Z
    ?file_open_tmp@Glib@@YAHAEAV?$basic_string@DU?$char_traits@D@std@@V?$allocator@D@2@@std@@AEBV23@@Z
    ?file_open_tmp@Glib@@YAHAEAV?$basic_string@DU?$char_traits@D@std@@V?$allocator@D@2@@std@@@Z
    ?file_get_contents@Glib@@YA?AV?$basic_string@DU?$char_traits@D@std@@V?$allocator@D@2@@std@@AEBV23@@Z
    ?file_set_contents@Glib@@YAXAEBV?$basic_string@DU?$char_traits@D@std@@V?$allocator@D@2@@std@@PEBD_J@Z
    ?file_set_contents@Glib@@YAXAEBV?$basic_string@DU?$char_traits@D@std@@V?$allocator@D@2@@std@@0@Z
    ??$?0P6AXPEAX@Z$0A@@?$unique_ptr@$$BY0A@DP6AXPEAX@Z@std@@QEAA@$$QEAV01@@Z
    ??$min@_K@std@@YAAEB_KAEB_K0@Z
    ??$?0PEADP6AXPEAX@Z$0A@$0A@@?$unique_ptr@$$BY0A@DP6AXPEAX@Z@std@@QEAA@PEAD$$QEAP6AXPEAX@Z@Z
    ??$forward@P6AXPEAX@Z@std@@YA$$QEAP6AXPEAX@ZAEAP6AX0@Z@Z
    ??$?0P6AXPEAX@ZPEAD@?$_Compressed_pair@P6AXPEAX@ZPEAD$0A@@std@@QEAA@U_One_then_variadic_args_t@1@$$QEAP6AXPEAX@Z$$QEAPEAD@Z
    ?allocate@?$allocator@U_Container_proxy@std@@@std@@QEAAPEAU_Container_proxy@2@_K@Z
    ??$_Delete_plain_internal@V?$allocator@U_Container_proxy@std@@@std@@@std@@YAXAEAV?$allocator@U_Container_proxy@std@@@0@QEAU_Container_proxy@0@@Z
    ??$_Alloc_proxy@V?$allocator@U_Container_proxy@std@@@std@@@_Container_base12@std@@QEAAX$$QEAV?$allocator@U_Container_proxy@std@@@1@@Z
    ??$_Convert_size@_K_K@std@@YA_K_K@Z
    ??$?0D@?$allocator@U_Container_proxy@std@@@std@@QEAA@AEBV?$allocator@D@1@@Z
    ??$move@AEAV?$allocator@D@std@@@std@@YA$$QEAV?$allocator@D@0@AEAV10@@Z
    ??$?0V?$allocator@D@std@@$$V@?$_Compressed_pair@V?$allocator@D@std@@V?$_String_val@U?$_Simple_types@D@std@@@2@$00@std@@QEAA@U_One_then_variadic_args_t@1@$$QEAV?$allocator@D@1@@Z
    ??$?0$$V@?$_Compressed_pair@V?$allocator@D@std@@V?$_String_val@U?$_Simple_types@D@std@@@2@$00@std@@QEAA@U_Zero_then_variadic_args_t@1@@Z
    ??$_Construct@$00PEBD@?$basic_string@DU?$char_traits@D@std@@V?$allocator@D@2@@std@@AEAAXQEBD_K@Z
    ??$_Construct@$01PEBD@?$basic_string@DU?$char_traits@D@std@@V?$allocator@D@2@@std@@AEAAXQEBD_K@Z
    ??$move@AEAP6AXPEAX@Z@std@@YA$$QEAP6AXPEAX@ZAEAP6AX0@Z@Z
    ??$?0P6AXPEAX@ZAEAPEAD@?$_Compressed_pair@P6AXPEAX@ZPEAD$0A@@std@@QEAA@U_One_then_variadic_args_t@1@$$QEAP6AXPEAX@ZAEAPEAD@Z
    ??$forward@PEAD@std@@YA$$QEAPEADAEAPEAD@Z
    ??$_Deallocate_plain@V?$allocator@U_Container_proxy@std@@@std@@@std@@YAXAEAV?$allocator@U_Container_proxy@std@@@0@QEAU_Container_proxy@0@@Z
    ??0?$_Container_proxy_ptr12@V?$allocator@U_Container_proxy@std@@@std@@@std@@QEAA@AEAV?$allocator@U_Container_proxy@std@@@1@AEAU_Container_base12@1@@Z
    ??1?$_Container_proxy_ptr12@V?$allocator@U_Container_proxy@std@@@std@@@std@@QEAA@XZ
    ??$_Unfancy@U_Container_proxy@std@@@std@@YAPEAU_Container_proxy@0@PEAU10@@Z
    ??$_Construct_in_place@U_Container_proxy@std@@PEAU_Container_base12@2@@std@@YAXAEAU_Container_proxy@0@$$QEAPEAU_Container_base12@0@@Z
    ??$forward@V?$allocator@D@std@@@std@@YA$$QEAV?$allocator@D@0@AEAV10@@Z
    ??$_Allocate_for_capacity@$0A@@?$basic_string@DU?$char_traits@D@std@@V?$allocator@D@2@@std@@CAPEADAEAV?$allocator@D@1@AEA_K@Z
    ??$_Construct_in_place@PEADAEBQEAD@std@@YAXAEAPEADAEBQEAD@Z
    ??$_Unfancy@D@std@@YAPEADPEAD@Z
    ??$exchange@PEAD$$T@std@@YAPEADAEAPEAD$$QEA$$T@Z
    ??R<lambda_65e615be2a453ca0576c979606f46740>@@QEBA@QEADQEBD_K12@Z
    ??$_Reallocate_grow_by@V<lambda_65e615be2a453ca0576c979606f46740>@@PEBD_K@?$basic_string@DU?$char_traits@D@std@@V?$allocator@D@2@@std@@AEAAAEAV01@_KV<lambda_65e615be2a453ca0576c979606f46740>@@PEBD_K@Z
    ??$addressof@V?$_String_val@U?$_Simple_types@D@std@@@std@@@std@@YAPEAV?$_String_val@U?$_Simple_types@D@std@@@0@AEAV10@@Z
    ??$_Construct_in_place@PEADAEAPEAD@std@@YAXAEAPEAD0@Z
    ??$max@_K@std@@YAAEB_KAEB_K0@Z
    ??$_Deallocate@$0BA@@std@@YAXPEAX_K@Z
    ??$forward@AEAPEAD@std@@YAAEAPEADAEAPEAD@Z
    ?deallocate@?$_Default_allocator_traits@V?$allocator@U_Container_proxy@std@@@std@@@std@@SAXAEAV?$allocator@U_Container_proxy@std@@@2@QEAU_Container_proxy@2@_K@Z
    ??$addressof@U_Container_proxy@std@@@std@@YAPEAU_Container_proxy@0@AEAU10@@Z
    ??$forward@PEAU_Container_base12@std@@@std@@YA$$QEAPEAU_Container_base12@0@AEAPEAU10@@Z
    ??$_Allocate_at_least_helper@V?$allocator@D@std@@@std@@YAPEADAEAV?$allocator@D@0@AEA_K@Z
    ??$addressof@PEAD@std@@YAPEAPEADAEAPEAD@Z
    ??$forward@AEBQEAD@std@@YAAEBQEADAEBQEAD@Z
    ??$addressof@U_Container_base12@std@@@std@@YAPEAU_Container_base12@0@AEAU10@@Z
    ??$_Get_size_of_n@$0BA@@std@@YA_K_K@Z
    ??$_Allocate@$0BA@U_Default_allocate_traits@std@@@std@@YAPEAX_K@Z
    ??$_Destroy_in_place@PEAD@std@@YAXAEAPEAD@Z
    ??$_Max_limit@_J@std@@YA_JXZ
    ??R<lambda_66f57f934f28d61049862f64df852ff0>@@QEBA@QEAD_KQEBD@Z
    ??$_Reallocate_for@V<lambda_66f57f934f28d61049862f64df852ff0>@@PEBD@?$basic_string@DU?$char_traits@D@std@@V?$allocator@D@2@@std@@AEAAAEAV01@_KV<lambda_66f57f934f28d61049862f64df852ff0>@@PEBD@Z
    ??$_Allocate_manually_vector_aligned@U_Default_allocate_traits@std@@@std@@YAPEAX_K@Z
    ??$_Get_size_of_n@$00@std@@YA_K_K@Z
    ??_7exception@std@@6B@
    ??_C@_0BC@EOODALEL@Unknown?5exception@
    ??_7bad_alloc@std@@6B@
    ??_7bad_array_new_length@std@@6B@
    ??_C@_0BF@KINCDENJ@bad?5array?5new?5length@
    ??_R0?AVexception@std@@@8
    _CT??_R0?AVexception@std@@@8??0exception@std@@QEAA@AEBV01@@Z24
    _TI3?AVbad_array_new_length@std@@
    _CTA3?AVbad_array_new_length@std@@
    ??_R0?AVbad_array_new_length@std@@@8
    _CT??_R0?AVbad_array_new_length@std@@@8??0bad_array_new_length@std@@QEAA@AEBV01@@Z24
    ??_R0?AVbad_alloc@std@@@8
    _CT??_R0?AVbad_alloc@std@@@8??0bad_alloc@std@@QEAA@AEBV01@@Z24
    ??_C@_0BB@FCMFBGOM@invalid?5argument@
    ??_C@_02DKCKIIND@?$CFs@
    ??_C@_0GC@KLECFGLI@C?3?2Program?5Files?2Microsoft?5Visu@
    ??_C@_0BA@JFNIOLAK@string?5too?5long@
    ??_7Exception@Glib@@6B@
    ??_7FileError@Glib@@6B@
    _TI3?AVFileError@Glib@@
    _CTA3?AVFileError@Glib@@
    ??_R0?AVFileError@Glib@@@8
    _CT??_R0?AVFileError@Glib@@@8??0FileError@Glib@@QEAA@AEBV01@@Z16
    ??_R0?AVError@Glib@@@8
    _CT??_R0?AVError@Glib@@@8??0Error@Glib@@QEAA@AEBV01@@Z16
    ??_R0?AVException@Glib@@@8
    _CT??_R0?AVException@Glib@@@8??0Exception@Glib@@QEAA@AEBV01@@Z8
    ??_C@_0DG@KGHKKGBC@null?5pointer?5cannot?5point?5to?5a?5@
    ??_R4exception@std@@6B@
    ??_R3exception@std@@8
    ??_R2exception@std@@8
    ??_R1A@?0A@EA@exception@std@@8
    ??_R4bad_array_new_length@std@@6B@
    ??_R3bad_array_new_length@std@@8
    ??_R2bad_array_new_length@std@@8
    ??_R1A@?0A@EA@bad_array_new_length@std@@8
    ??_R1A@?0A@EA@bad_alloc@std@@8
    ??_R3bad_alloc@std@@8
    ??_R2bad_alloc@std@@8
    ??_R4bad_alloc@std@@6B@
    ??_R4Exception@Glib@@6B@
    ??_R3Exception@Glib@@8
    ??_R2Exception@Glib@@8
    ??_R1A@?0A@EA@Exception@Glib@@8
    ??_R4FileError@Glib@@6B@
    ??_R3FileError@Glib@@8
    ??_R2FileError@Glib@@8
    ??_R1A@?0A@EA@FileError@Glib@@8
    ??_R1A@?0A@EA@Error@Glib@@8
    ??_R3Error@Glib@@8
    ??_R2Error@Glib@@8
    ?__empty_global_delete@@YAXPEAX@Z
    ?__empty_global_delete@@YAXPEAX_K@Z
    ?init@Glib@@YAXXZ
    ?__empty_global_delete@@YAXPEAX@Z
    ?__empty_global_delete@@YAXPEAX_K@Z
    ??2@YAPEAX_KPEAX@Z
    ??0exception@std@@QEAA@QEBDH@Z
    ??0exception@std@@QEAA@AEBV01@@Z
    ??1exception@std@@UEAA@XZ
    ?what@exception@std@@UEBAPEBDXZ
    ??0bad_alloc@std@@AEAA@QEBD@Z
    ??1bad_alloc@std@@UEAA@XZ
    ??0bad_alloc@std@@QEAA@AEBV01@@Z
    ??0bad_array_new_length@std@@QEAA@XZ
    ??1bad_array_new_length@std@@UEAA@XZ
    ??0bad_array_new_length@std@@QEAA@AEBV01@@Z
    ?_Throw_bad_array_new_length@std@@YAXXZ
    ?_Allocate@_Default_allocate_traits@std@@SAPEAX_K@Z
    ?_Adjust_manually_vector_aligned@std@@YAXAEAPEAXAEA_K@Z
    ??0_Container_proxy@std@@QEAA@PEAU_Container_base12@1@@Z
    ??0_Container_base12@std@@QEAA@XZ
    ?_Orphan_all@_Container_base12@std@@QEAAXXZ
    ?_Orphan_all_unlocked_v3@_Container_base12@std@@AEAAXXZ
    ?_Orphan_all_locked_v3@_Container_base12@std@@AEAAXXZ
    ??$exchange@PEAU_Iterator_base12@std@@$$T@std@@YAPEAU_Iterator_base12@0@AEAPEAU10@$$QEA$$T@Z
    ?get_type@Class@Glib@@QEBA_KXZ
    ??0Interface@Glib@@QEAA@XZ
    ??0Interface@Glib@@QEAA@$$QEAV01@@Z
    ??4Interface@Glib@@QEAAAEAV01@$$QEAV01@@Z
    ??0Interface@Glib@@QEAA@AEBVInterface_Class@1@@Z
    ??0Interface@Glib@@QEAA@PEAU_GObject@@@Z
    ??1Interface@Glib@@UEAA@XZ
    ?get_type@Interface@Glib@@SA_KXZ
    ?get_base_type@Interface@Glib@@SA_KXZ
    ??_DInterface@Glib@@QEAAXXZ
    ?wrap_interface@Glib@@YA?AV?$RefPtr@VObjectBase@Glib@@@1@PEAU_GObject@@_N@Z
    ?add_interface@Interface_Class@Glib@@QEBAX_K@Z
    ??0?$allocator@PEAU_GValue@@@std@@QEAA@XZ
    ?deallocate@?$allocator@PEAU_GValue@@@std@@QEAAXQEAPEAU_GValue@@_K@Z
    ?allocate@?$allocator@PEAU_GValue@@@std@@QEAAPEAPEAU_GValue@@_K@Z
    ?max_size@?$_Default_allocator_traits@V?$allocator@PEAU_GValue@@@std@@@std@@SA_KAEBV?$allocator@PEAU_GValue@@@2@@Z
    ??0?$vector@PEAU_GValue@@V?$allocator@PEAU_GValue@@@std@@@std@@QEAA@XZ
    ?size@?$vector@PEAU_GValue@@V?$allocator@PEAU_GValue@@@std@@@std@@QEBA_KXZ
    ?max_size@?$vector@PEAU_GValue@@V?$allocator@PEAU_GValue@@@std@@@std@@QEBA_KXZ
    ?capacity@?$vector@PEAU_GValue@@V?$allocator@PEAU_GValue@@@std@@@std@@QEBA_KXZ
    ?_Calculate_growth@?$vector@PEAU_GValue@@V?$allocator@PEAU_GValue@@@std@@@std@@AEBA_K_K@Z
    ?_Change_array@?$vector@PEAU_GValue@@V?$allocator@PEAU_GValue@@@std@@@std@@AEAAXQEAPEAU_GValue@@_K1@Z
    ?_Xlength@?$vector@PEAU_GValue@@V?$allocator@PEAU_GValue@@@std@@@std@@CAXXZ
    ?_Orphan_range_unlocked@?$vector@PEAU_GValue@@V?$allocator@PEAU_GValue@@@std@@@std@@AEBAXPEAPEAU_GValue@@0@Z
    ?_Orphan_range_locked@?$vector@PEAU_GValue@@V?$allocator@PEAU_GValue@@@std@@@std@@AEBAXPEAPEAU_GValue@@0@Z
    ?_Orphan_range@?$vector@PEAU_GValue@@V?$allocator@PEAU_GValue@@@std@@@std@@AEBAXPEAPEAU_GValue@@0@Z
    ?_Getal@?$vector@PEAU_GValue@@V?$allocator@PEAU_GValue@@@std@@@std@@AEAAAEAV?$allocator@PEAU_GValue@@@2@XZ
    ?_Getal@?$vector@PEAU_GValue@@V?$allocator@PEAU_GValue@@@std@@@std@@AEBAAEBV?$allocator@PEAU_GValue@@@2@XZ
    ??0?$_Vector_val@U?$_Simple_types@PEAU_GValue@@@std@@@std@@QEAA@XZ
    ?_Get_first@?$_Compressed_pair@V?$allocator@PEAU_GValue@@@std@@V?$_Vector_val@U?$_Simple_types@PEAU_GValue@@@std@@@2@$00@std@@QEAAAEAV?$allocator@PEAU_GValue@@@2@XZ
    ?_Get_first@?$_Compressed_pair@V?$allocator@PEAU_GValue@@@std@@V?$_Vector_val@U?$_Simple_types@PEAU_GValue@@@std@@@2@$00@std@@QEBAAEBV?$allocator@PEAU_GValue@@@2@XZ
    ??$emplace_back@AEAPEAU_GValue@@@?$vector@PEAU_GValue@@V?$allocator@PEAU_GValue@@@std@@@std@@QEAAXAEAPEAU_GValue@@@Z
    ??$move@AEAVInterface@Glib@@@std@@YA$$QEAVInterface@Glib@@AEAV12@@Z
    ??0?$RefPtr@VObjectBase@Glib@@@Glib@@QEAA@PEAVObjectBase@1@@Z
    ??$min@_K@std@@YAAEB_KAEB_K0@Z
    ??$forward@AEAPEAU_GValue@@@std@@YAAEAPEAU_GValue@@AEAPEAU1@@Z
    ??$_Emplace_one_at_back@AEAPEAU_GValue@@@?$vector@PEAU_GValue@@V?$allocator@PEAU_GValue@@@std@@@std@@AEAAAEAPEAU_GValue@@AEAPEAU2@@Z
    ?allocate@?$allocator@U_Container_proxy@std@@@std@@QEAAPEAU_Container_proxy@2@_K@Z
    ??$_Alloc_proxy@V?$allocator@U_Container_proxy@std@@@std@@@_Container_base12@std@@QEAAX$$QEAV?$allocator@U_Container_proxy@std@@@1@@Z
    ??$?0$$V@?$_Compressed_pair@V?$allocator@PEAU_GValue@@@std@@V?$_Vector_val@U?$_Simple_types@PEAU_GValue@@@std@@@2@$00@std@@QEAA@U_Zero_then_variadic_args_t@1@@Z
    ??$?0PEAU_GValue@@@?$allocator@U_Container_proxy@std@@@std@@QEAA@AEBV?$allocator@PEAU_GValue@@@1@@Z
    ??$_Emplace_back_with_unused_capacity@AEAPEAU_GValue@@@?$vector@PEAU_GValue@@V?$allocator@PEAU_GValue@@@std@@@std@@AEAAAEAPEAU_GValue@@AEAPEAU2@@Z
    ??$_Emplace_reallocate@AEAPEAU_GValue@@@?$vector@PEAU_GValue@@V?$allocator@PEAU_GValue@@@std@@@std@@AEAAPEAPEAU_GValue@@QEAPEAU2@AEAPEAU2@@Z
    ??$_Unfancy@U_Container_proxy@std@@@std@@YAPEAU_Container_proxy@0@PEAU10@@Z
    ??$_Construct_in_place@U_Container_proxy@std@@PEAU_Container_base12@2@@std@@YAXAEAU_Container_proxy@0@$$QEAPEAU_Container_base12@0@@Z
    ??$_Deallocate@$0BA@@std@@YAXPEAX_K@Z
    ??$_Construct_in_place@PEAU_GValue@@AEAPEAU1@@std@@YAXAEAPEAU_GValue@@0@Z
    ??$_Allocate_at_least_helper@V?$allocator@PEAU_GValue@@@std@@@std@@YAPEAPEAU_GValue@@AEAV?$allocator@PEAU_GValue@@@0@AEA_K@Z
    ??1_Reallocation_guard@?$vector@PEAU_GValue@@V?$allocator@PEAU_GValue@@@std@@@std@@QEAA@XZ
    ??$_Unfancy@PEAU_GValue@@@std@@YAPEAPEAU_GValue@@PEAPEAU1@@Z
    ??$construct@PEAU_GValue@@AEAPEAU1@@?$_Default_allocator_traits@V?$allocator@PEAU_GValue@@@std@@@std@@SAXAEAV?$allocator@PEAU_GValue@@@1@QEAPEAU_GValue@@AEAPEAU3@@Z
    ??$_Uninitialized_move@PEAPEAU_GValue@@V?$allocator@PEAU_GValue@@@std@@@std@@YAPEAPEAU_GValue@@QEAPEAU1@0PEAPEAU1@AEAV?$allocator@PEAU_GValue@@@0@@Z
    ??$addressof@U_Container_proxy@std@@@std@@YAPEAU_Container_proxy@0@AEAU10@@Z
    ??$forward@PEAU_Container_base12@std@@@std@@YA$$QEAPEAU_Container_base12@0@AEAPEAU10@@Z
    ??$_Get_size_of_n@$0BA@@std@@YA_K_K@Z
    ??$_Allocate@$0BA@U_Default_allocate_traits@std@@@std@@YAPEAX_K@Z
    ??$_Max_limit@_J@std@@YA_JXZ
    ??$addressof@PEAU_GValue@@@std@@YAPEAPEAU_GValue@@AEAPEAU1@@Z
    ??$_Get_unwrapped@AEBQEAPEAU_GValue@@@std@@YA?A_TAEBQEAPEAU_GValue@@@Z
    ??$move@AEAPEAU_GValue@@@std@@YA$$QEAPEAU_GValue@@AEAPEAU1@@Z
    ??$_Copy_memmove@PEAPEAU_GValue@@PEAPEAU1@@std@@YAPEAPEAU_GValue@@PEAPEAU1@00@Z
    ??0?$_Uninitialized_backout_al@V?$allocator@PEAU_GValue@@@std@@@std@@QEAA@PEAPEAU_GValue@@AEAV?$allocator@PEAU_GValue@@@1@@Z
    ??1?$_Uninitialized_backout_al@V?$allocator@PEAU_GValue@@@std@@@std@@QEAA@XZ
    ?_Release@?$_Uninitialized_backout_al@V?$allocator@PEAU_GValue@@@std@@@std@@QEAAPEAPEAU_GValue@@XZ
    ??$_Emplace_back@PEAU_GValue@@@?$_Uninitialized_backout_al@V?$allocator@PEAU_GValue@@@std@@@std@@QEAAX$$QEAPEAU_GValue@@@Z
    ??$_Allocate_manually_vector_aligned@U_Default_allocate_traits@std@@@std@@YAPEAX_K@Z
    ??$_Destroy_range@V?$allocator@PEAU_GValue@@@std@@@std@@YAXPEAPEAU_GValue@@QEAPEAU1@AEAV?$allocator@PEAU_GValue@@@0@@Z
    ??$_To_address@PEAPEAU_GValue@@@std@@YA?A_PAEBQEAPEAU_GValue@@@Z
    ??$move@AEAPEAPEAU_GValue@@@std@@YA$$QEAPEAPEAU_GValue@@AEAPEAPEAU1@@Z
    ??$_Copy_memmove_tail@PEAPEAU_GValue@@@std@@YAPEAPEAU_GValue@@QEBDQEAPEAU1@_K2@Z
    ??$forward@PEAU_GValue@@@std@@YA$$QEAPEAU_GValue@@AEAPEAU1@@Z
    ??$construct@PEAU_GValue@@PEAU1@@?$_Default_allocator_traits@V?$allocator@PEAU_GValue@@@std@@@std@@SAXAEAV?$allocator@PEAU_GValue@@@1@QEAPEAU_GValue@@$$QEAPEAU3@@Z
    ??$_Get_size_of_n@$07@std@@YA_K_K@Z
    ??_7exception@std@@6B@
    ??_C@_0BC@EOODALEL@Unknown?5exception@
    ??_7bad_alloc@std@@6B@
    ??_7bad_array_new_length@std@@6B@
    ??_C@_0BF@KINCDENJ@bad?5array?5new?5length@
    ??_R0?AVexception@std@@@8
    _CT??_R0?AVexception@std@@@8??0exception@std@@QEAA@AEBV01@@Z24
    _TI3?AVbad_array_new_length@std@@
    _CTA3?AVbad_array_new_length@std@@
    ??_R0?AVbad_array_new_length@std@@@8
    _CT??_R0?AVbad_array_new_length@std@@@8??0bad_array_new_length@std@@QEAA@AEBV01@@Z24
    ??_R0?AVbad_alloc@std@@@8
    _CT??_R0?AVbad_alloc@std@@@8??0bad_alloc@std@@QEAA@AEBV01@@Z24
    ??_C@_0BB@FCMFBGOM@invalid?5argument@
    ??_C@_02DKCKIIND@?$CFs@
    ??_C@_0GC@KLECFGLI@C?3?2Program?5Files?2Microsoft?5Visu@
    ??_7Interface@Glib@@6B@
    ??_8Interface@Glib@@7B01@@
    ??_8Interface@Glib@@7BObjectBase@1@@
    ??_C@_0DG@KGHKKGBC@null?5pointer?5cannot?5point?5to?5a?5@
    ??_C@_0BA@FOIKENOD@vector?5too?5long@
    ??_R4exception@std@@6B@
    ??_R3exception@std@@8
    ??_R2exception@std@@8
    ??_R1A@?0A@EA@exception@std@@8
    ??_R4bad_array_new_length@std@@6B@
    ??_R3bad_array_new_length@std@@8
    ??_R2bad_array_new_length@std@@8
    ??_R1A@?0A@EA@bad_array_new_length@std@@8
    ??_R1A@?0A@EA@bad_alloc@std@@8
    ??_R3bad_alloc@std@@8
    ??_R2bad_alloc@std@@8
    ??_R4bad_alloc@std@@6B@
    ??_R4Interface@Glib@@6B@
    ??_R0?AVInterface@Glib@@@8
    ??_R3Interface@Glib@@8
    ??_R2Interface@Glib@@8
    ??_R1A@?0A@EA@Interface@Glib@@8
    ??_R1A@A@7FA@ObjectBase@Glib@@8
    ??_R0?AVObjectBase@Glib@@@8
    ??_R3ObjectBase@Glib@@8
    ??_R2ObjectBase@Glib@@8
    ??_R1A@?0A@EA@ObjectBase@Glib@@8
    ??_R1A@73FA@trackable@sigc@@8
    ??_R0?AUtrackable@sigc@@@8
    ??_R3trackable@sigc@@8
    ??_R2trackable@sigc@@8
    ??_R1A@?0A@EA@trackable@sigc@@8
    ??_R1A@A@3FA@trackable@sigc@@8
    ?vfunc_table@GlibmmIOChannel@Glib@@2U_GIOFuncs@@B
    ?io_read@GlibmmIOChannel@Glib@@SA?AW4GIOStatus@@PEAU_GIOChannel@@PEAD_KPEA_KPEAPEAU_GError@@@Z
    ?io_write@GlibmmIOChannel@Glib@@SA?AW4GIOStatus@@PEAU_GIOChannel@@PEBD_KPEA_KPEAPEAU_GError@@@Z
    ?io_seek@GlibmmIOChannel@Glib@@SA?AW4GIOStatus@@PEAU_GIOChannel@@_JW4GSeekType@@PEAPEAU_GError@@@Z
    ?io_close@GlibmmIOChannel@Glib@@SA?AW4GIOStatus@@PEAU_GIOChannel@@PEAPEAU_GError@@@Z
    ?io_create_watch@GlibmmIOChannel@Glib@@SAPEAU_GSource@@PEAU_GIOChannel@@W4GIOCondition@@@Z
    ?io_free@GlibmmIOChannel@Glib@@SAXPEAU_GIOChannel@@@Z
    ?io_set_flags@GlibmmIOChannel@Glib@@SA?AW4GIOStatus@@PEAU_GIOChannel@@W4GIOFlags@@PEAPEAU_GError@@@Z
    ?io_get_flags@GlibmmIOChannel@Glib@@SA?AW4GIOFlags@@PEAU_GIOChannel@@@Z
    ?__empty_global_delete@@YAXPEAX@Z
    ?__empty_global_delete@@YAXPEAX_K@Z
    ??2@YAPEAX_KPEAX@Z
    ??0exception@std@@QEAA@QEBDH@Z
    ??0exception@std@@QEAA@AEBV01@@Z
    ??1exception@std@@UEAA@XZ
    ?what@exception@std@@UEBAPEBDXZ
    ??0bad_alloc@std@@AEAA@QEBD@Z
    ??1bad_alloc@std@@UEAA@XZ
    ??0bad_alloc@std@@QEAA@AEBV01@@Z
    ??0bad_array_new_length@std@@QEAA@XZ
    ??1bad_array_new_length@std@@UEAA@XZ
    ??0bad_array_new_length@std@@QEAA@AEBV01@@Z
    ?copy@?$_Char_traits@DH@std@@SAPEADQEADQEBD_K@Z
    ?length@?$_Narrow_char_traits@DH@std@@SA_KQEBD@Z
    ?assign@?$_Narrow_char_traits@DH@std@@SAXAEADAEBD@Z
    ?_Throw_bad_array_new_length@std@@YAXXZ
    ?_Allocate@_Default_allocate_traits@std@@SAPEAX_K@Z
    ?_Adjust_manually_vector_aligned@std@@YAXAEAPEAXAEA_K@Z
    ??0_Container_proxy@std@@QEAA@PEAU_Container_base12@1@@Z
    ??0_Container_base12@std@@QEAA@XZ
    ?_Orphan_all@_Container_base12@std@@QEAAXXZ
    ?_Swap_proxy_and_iterators@_Container_base12@std@@QEAAXAEAU12@@Z
    ?_Orphan_all_unlocked_v3@_Container_base12@std@@AEAAXXZ
    ?_Swap_proxy_and_iterators_unlocked@_Container_base12@std@@AEAAXAEAU12@@Z
    ?_Orphan_all_locked_v3@_Container_base12@std@@AEAAXXZ
    ?_Swap_proxy_and_iterators_locked@_Container_base12@std@@AEAAXAEAU12@@Z
    ??$exchange@PEAU_Iterator_base12@std@@$$T@std@@YAPEAU_Iterator_base12@0@AEAPEAU10@$$QEA$$T@Z
    ?_Release@_Basic_container_proxy_ptr12@std@@QEAAXXZ
    ??0_Basic_container_proxy_ptr12@std@@IEAA@XZ
    ?_Xlen_string@std@@YAXXZ
    ??0?$allocator@D@std@@QEAA@XZ
    ?deallocate@?$allocator@D@std@@QEAAXQEAD_K@Z
    ?allocate@?$allocator@D@std@@QEAAPEAD_K@Z
    ?max_size@?$_Default_allocator_traits@V?$allocator@D@std@@@std@@SA_KAEBV?$allocator@D@2@@Z
    ??0?$_String_val@U?$_Simple_types@D@std@@@std@@QEAA@XZ
    ?_Myptr@?$_String_val@U?$_Simple_types@D@std@@@std@@QEBAPEBDXZ
    ?_Large_mode_engaged@?$_String_val@U?$_Simple_types@D@std@@@std@@QEBA_NXZ
    ?_Activate_SSO_buffer@?$_String_val@U?$_Simple_types@D@std@@@std@@QEAAXXZ
    ??0_Bxty@?$_String_val@U?$_Simple_types@D@std@@@std@@QEAA@XZ
    ??1_Bxty@?$_String_val@U?$_Simple_types@D@std@@@std@@QEAA@XZ
    ?_Switch_to_buf@_Bxty@?$_String_val@U?$_Simple_types@D@std@@@std@@QEAAXXZ
    ??1?$_String_val@U?$_Simple_types@D@std@@@std@@QEAA@XZ
    ??0?$basic_string@DU?$char_traits@D@std@@V?$allocator@D@2@@std@@QEAA@XZ
    ??0?$basic_string@DU?$char_traits@D@std@@V?$allocator@D@2@@std@@QEAA@QEBD_K@Z
    ??0?$basic_string@DU?$char_traits@D@std@@V?$allocator@D@2@@std@@QEAA@QEBD@Z
    ?_Deallocate_for_capacity@?$basic_string@DU?$char_traits@D@std@@V?$allocator@D@2@@std@@CAXAEAV?$allocator@D@2@QEAD_K@Z
    ?_Construct_empty@?$basic_string@DU?$char_traits@D@std@@V?$allocator@D@2@@std@@AEAAXXZ
    ??0?$basic_string@DU?$char_traits@D@std@@V?$allocator@D@2@@std@@QEAA@$$QEAV01@@Z
    ?_Take_contents@?$basic_string@DU?$char_traits@D@std@@V?$allocator@D@2@@std@@AEAAXAEAV12@@Z
    ??1?$basic_string@DU?$char_traits@D@std@@V?$allocator@D@2@@std@@QEAA@XZ
    ?c_str@?$basic_string@DU?$char_traits@D@std@@V?$allocator@D@2@@std@@QEBAPEBDXZ
    ?data@?$basic_string@DU?$char_traits@D@std@@V?$allocator@D@2@@std@@QEBAPEBDXZ
    ?size@?$basic_string@DU?$char_traits@D@std@@V?$allocator@D@2@@std@@QEBA_KXZ
    ?max_size@?$basic_string@DU?$char_traits@D@std@@V?$allocator@D@2@@std@@QEBA_KXZ
    ?empty@?$basic_string@DU?$char_traits@D@std@@V?$allocator@D@2@@std@@QEBA_NXZ
    ?_Swap_bx_large_with_small@?$basic_string@DU?$char_traits@D@std@@V?$allocator@D@2@@std@@SAXAEAV?$_String_val@U?$_Simple_types@D@std@@@2@0@Z
    ?_Swap_data@?$basic_string@DU?$char_traits@D@std@@V?$allocator@D@2@@std@@QEAAXAEAV12@@Z
    ?swap@?$basic_string@DU?$char_traits@D@std@@V?$allocator@D@2@@std@@QEAAXAEAV12@@Z
    ?_Calculate_growth@?$basic_string@DU?$char_traits@D@std@@V?$allocator@D@2@@std@@CA_K_K00@Z
    ?_Tidy_deallocate@?$basic_string@DU?$char_traits@D@std@@V?$allocator@D@2@@std@@AEAAXXZ
    ?_Swap_proxy_and_iterators@?$basic_string@DU?$char_traits@D@std@@V?$allocator@D@2@@std@@AEAAXAEAV12@@Z
    ?_Getal@?$basic_string@DU?$char_traits@D@std@@V?$allocator@D@2@@std@@AEAAAEAV?$allocator@D@2@XZ
    ?_Getal@?$basic_string@DU?$char_traits@D@std@@V?$allocator@D@2@@std@@AEBAAEBV?$allocator@D@2@XZ
    ?_Get_first@?$_Compressed_pair@V?$allocator@D@std@@V?$_String_val@U?$_Simple_types@D@std@@@2@$00@std@@QEAAAEAV?$allocator@D@2@XZ
    ?_Get_first@?$_Compressed_pair@V?$allocator@D@std@@V?$_String_val@U?$_Simple_types@D@std@@@2@$00@std@@QEBAAEBV?$allocator@D@2@XZ
    ??1?$_Compressed_pair@V?$allocator@D@std@@V?$_String_val@U?$_Simple_types@D@std@@@2@$00@std@@QEAA@XZ
    ??$_Adl_verify_range@PEADPEAD@std@@YAXAEBQEAD0@Z
    ??0Exception@Glib@@QEAA@AEBV01@@Z
    ?convert_const_gchar_ptr_to_stdstring@Glib@@YA?AV?$basic_string@DU?$char_traits@D@std@@V?$allocator@D@2@@std@@PEBD@Z
    ??$make_unique_ptr_gfree@D@Glib@@YA?AV?$unique_ptr@$$BY0A@DP6AXPEAX@Z@std@@PEAD@Z
    ??1?$unique_ptr@$$BY0A@DP6AXPEAX@Z@std@@QEAA@XZ
    ?get_deleter@?$unique_ptr@$$BY0A@DP6AXPEAX@Z@std@@QEAAAEAP6AXPEAX@ZXZ
    ?get@?$unique_ptr@$$BY0A@DP6AXPEAX@Z@std@@QEBAPEADXZ
    ?release@?$unique_ptr@$$BY0A@DP6AXPEAX@Z@std@@QEAAPEADXZ
    ?_Get_first@?$_Compressed_pair@P6AXPEAX@ZPEAD$0A@@std@@QEAAAEAP6AXPEAX@ZXZ
    ??0IOChannelError@Glib@@QEAA@W4Code@01@AEBVustring@1@@Z
    ??0IOChannelError@Glib@@QEAA@PEAU_GError@@@Z
    ?code@IOChannelError@Glib@@QEBA?AW4Code@12@XZ
    ?throw_func@IOChannelError@Glib@@CAXPEAU_GError@@@Z
    ??1IOChannelError@Glib@@UEAA@XZ
    ??0IOChannelError@Glib@@QEAA@AEBV01@@Z
    ??0IOChannel@Glib@@AEAA@$$QEAV01@@Z
    ??4IOChannel@Glib@@AEAAAEAV01@$$QEAV01@@Z
    ??1IOChannel@Glib@@UEAA@XZ
    ?create_from_file@IOChannel@Glib@@SA?AV?$RefPtr@VIOChannel@Glib@@@2@AEBV?$basic_string@DU?$char_traits@D@std@@V?$allocator@D@2@@std@@0@Z
    ?create_from_fd@IOChannel@Glib@@SA?AV?$RefPtr@VIOChannel@Glib@@@2@H@Z
    ?create_from_win32_fd@IOChannel@Glib@@SA?AV?$RefPtr@VIOChannel@Glib@@@2@H@Z
    ?create_from_win32_socket@IOChannel@Glib@@SA?AV?$RefPtr@VIOChannel@Glib@@@2@H@Z
    ?read@IOChannel@Glib@@QEAA?AW4IOStatus@2@AEAI@Z
    ?read@IOChannel@Glib@@QEAA?AW4IOStatus@2@PEAD_KAEA_K@Z
    ?read@IOChannel@Glib@@QEAA?AW4IOStatus@2@AEAVustring@2@_K@Z
    ?read_line@IOChannel@Glib@@QEAA?AW4IOStatus@2@AEAVustring@2@@Z
    ?read_to_end@IOChannel@Glib@@QEAA?AW4IOStatus@2@AEAVustring@2@@Z
    ?write@IOChannel@Glib@@QEAA?AW4IOStatus@2@AEBVustring@2@@Z
    ?write@IOChannel@Glib@@QEAA?AW4IOStatus@2@PEBD_JAEA_K@Z
    ?write@IOChannel@Glib@@QEAA?AW4IOStatus@2@I@Z
    ?seek@IOChannel@Glib@@QEAA?AW4IOStatus@2@_JW4SeekType@2@@Z
    ?flush@IOChannel@Glib@@QEAA?AW4IOStatus@2@XZ
    ?close@IOChannel@Glib@@QEAA?AW4IOStatus@2@_N@Z
    ?get_buffer_size@IOChannel@Glib@@QEBA_KXZ
    ?set_buffer_size@IOChannel@Glib@@QEAAX_K@Z
    ?get_flags@IOChannel@Glib@@QEBA?AW4IOFlags@2@XZ
    ?set_flags@IOChannel@Glib@@QEAA?AW4IOStatus@2@W4IOFlags@2@@Z
    ?set_buffered@IOChannel@Glib@@QEAAX_N@Z
    ?get_buffered@IOChannel@Glib@@QEBA_NXZ
    ?get_buffer_condition@IOChannel@Glib@@QEBA?AW4IOCondition@2@XZ
    ?get_close_on_unref@IOChannel@Glib@@QEBA_NXZ
    ?set_close_on_unref@IOChannel@Glib@@QEAAX_N@Z
    ?set_encoding@IOChannel@Glib@@QEAA?AW4IOStatus@2@AEBV?$basic_string@DU?$char_traits@D@std@@V?$allocator@D@2@@std@@@Z
    ?get_encoding@IOChannel@Glib@@QEBA?AV?$basic_string@DU?$char_traits@D@std@@V?$allocator@D@2@@std@@XZ
    ?set_line_term@IOChannel@Glib@@QEAAXAEBV?$basic_string@DU?$char_traits@D@std@@V?$allocator@D@2@@std@@@Z
    ?get_line_term@IOChannel@Glib@@QEBA?AV?$basic_string@DU?$char_traits@D@std@@V?$allocator@D@2@@std@@XZ
    ?create_watch@IOChannel@Glib@@QEAA?AV?$RefPtr@VIOSource@Glib@@@2@W4IOCondition@2@@Z
    ?reference@IOChannel@Glib@@UEBAXXZ
    ?unreference@IOChannel@Glib@@UEBAXXZ
    ?gobj@IOChannel@Glib@@QEAAPEAU_GIOChannel@@XZ
    ?gobj@IOChannel@Glib@@QEBAPEBU_GIOChannel@@XZ
    ??0IOChannel@Glib@@IEAA@XZ
    ??0IOChannel@Glib@@IEAA@PEAU_GIOChannel@@_N@Z
    ?read_vfunc@IOChannel@Glib@@MEAA?AW4IOStatus@2@PEAD_KAEA_K@Z
    ?write_vfunc@IOChannel@Glib@@MEAA?AW4IOStatus@2@PEBD_KAEA_K@Z
    ?seek_vfunc@IOChannel@Glib@@MEAA?AW4IOStatus@2@_JW4SeekType@2@@Z
    ?close_vfunc@IOChannel@Glib@@MEAA?AW4IOStatus@2@XZ
    ?set_flags_vfunc@IOChannel@Glib@@MEAA?AW4IOStatus@2@W4IOFlags@2@@Z
    ?get_flags_vfunc@IOChannel@Glib@@MEAA?AW4IOFlags@2@XZ
    ?create_watch_vfunc@IOChannel@Glib@@MEAA?AV?$RefPtr@VSource@Glib@@@2@W4IOCondition@2@@Z
    ?release_gobject@IOChannel@Glib@@AEAAXXZ
    ?wrap@Glib@@YA?AV?$RefPtr@VIOChannel@Glib@@@1@PEAU_GIOChannel@@_N@Z
    ??$move@AEAVIOChannel@Glib@@@std@@YA$$QEAVIOChannel@Glib@@AEAV12@@Z
    ??$move@AEAPEAU_GIOChannel@@@std@@YA$$QEAPEAU_GIOChannel@@AEAPEAU1@@Z
    ??1?$RefPtr@VIOChannel@Glib@@@Glib@@QEAA@XZ
    ??0?$RefPtr@VIOChannel@Glib@@@Glib@@QEAA@PEAVIOChannel@1@@Z
    ??$?0P6AXPEAX@Z$0A@@?$unique_ptr@$$BY0A@DP6AXPEAX@Z@std@@QEAA@$$QEAV01@@Z
    ??$assign@PEAD@ustring@Glib@@QEAAAEAV01@PEAD0@Z
    ??$c_str_or_nullptr@V?$basic_string@DU?$char_traits@D@std@@V?$allocator@D@2@@std@@@Glib@@YAPEBDAEBV?$basic_string@DU?$char_traits@D@std@@V?$allocator@D@2@@std@@@Z
    ??0?$RefPtr@VSource@Glib@@@Glib@@QEAA@XZ
    ??1?$RefPtr@VSource@Glib@@@Glib@@QEAA@XZ
    ??C?$RefPtr@VSource@Glib@@@Glib@@QEBAPEAVSource@1@XZ
    ??B?$RefPtr@VSource@Glib@@@Glib@@QEBA_NXZ
    ??$min@_K@std@@YAAEB_KAEB_K0@Z
    ??$?0PEAD$0A@@?$basic_string@DU?$char_traits@D@std@@V?$allocator@D@2@@std@@QEAA@PEAD0AEBV?$allocator@D@1@@Z
    ??$?0PEADP6AXPEAX@Z$0A@$0A@@?$unique_ptr@$$BY0A@DP6AXPEAX@Z@std@@QEAA@PEAD$$QEAP6AXPEAX@Z@Z
    ??$forward@P6AXPEAX@Z@std@@YA$$QEAP6AXPEAX@ZAEAP6AX0@Z@Z
    ??$?0P6AXPEAX@ZPEAD@?$_Compressed_pair@P6AXPEAX@ZPEAD$0A@@std@@QEAA@U_One_then_variadic_args_t@1@$$QEAP6AXPEAX@Z$$QEAPEAD@Z
    ??0?$SequenceToString@PEADD@ustring@Glib@@QEAA@PEAD0@Z
    ??1?$SequenceToString@PEADD@ustring@Glib@@QEAA@XZ
    ?allocate@?$allocator@U_Container_proxy@std@@@std@@QEAAPEAU_Container_proxy@2@_K@Z
    ??$_Delete_plain_internal@V?$allocator@U_Container_proxy@std@@@std@@@std@@YAXAEAV?$allocator@U_Container_proxy@std@@@0@QEAU_Container_proxy@0@@Z
    ??$_Alloc_proxy@V?$allocator@U_Container_proxy@std@@@std@@@_Container_base12@std@@QEAAX$$QEAV?$allocator@U_Container_proxy@std@@@1@@Z
    ??$_Convert_size@_K_K@std@@YA_K_K@Z
    ??$?0D@?$allocator@U_Container_proxy@std@@@std@@QEAA@AEBV?$allocator@D@1@@Z
    ??$move@AEAV?$allocator@D@std@@@std@@YA$$QEAV?$allocator@D@0@AEAV10@@Z
    ??$?0V?$allocator@D@std@@$$V@?$_Compressed_pair@V?$allocator@D@std@@V?$_String_val@U?$_Simple_types@D@std@@@2@$00@std@@QEAA@U_One_then_variadic_args_t@1@$$QEAV?$allocator@D@1@@Z
    ??$?0$$V@?$_Compressed_pair@V?$allocator@D@std@@V?$_String_val@U?$_Simple_types@D@std@@@2@$00@std@@QEAA@U_Zero_then_variadic_args_t@1@@Z
    ??$_Construct@$00PEBD@?$basic_string@DU?$char_traits@D@std@@V?$allocator@D@2@@std@@AEAAXQEBD_K@Z
    ??$?0AEBV?$allocator@D@std@@$$V@?$_Compressed_pair@V?$allocator@D@std@@V?$_String_val@U?$_Simple_types@D@std@@@2@$00@std@@QEAA@U_One_then_variadic_args_t@1@AEBV?$allocator@D@1@@Z
    ??$_Get_unwrapped@AEAPEAD@std@@YA?A_TAEAPEAD@Z
    ??$_Construct@$00PEAD@?$basic_string@DU?$char_traits@D@std@@V?$allocator@D@2@@std@@AEAAXQEAD_K@Z
    ??$move@AEAP6AXPEAX@Z@std@@YA$$QEAP6AXPEAX@ZAEAP6AX0@Z@Z
    ??$?0P6AXPEAX@ZAEAPEAD@?$_Compressed_pair@P6AXPEAX@ZPEAD$0A@@std@@QEAA@U_One_then_variadic_args_t@1@$$QEAP6AXPEAX@ZAEAPEAD@Z
    ??$forward@PEAD@std@@YA$$QEAPEADAEAPEAD@Z
    ??$_Deallocate_plain@V?$allocator@U_Container_proxy@std@@@std@@@std@@YAXAEAV?$allocator@U_Container_proxy@std@@@0@QEAU_Container_proxy@0@@Z
    ??0?$_Container_proxy_ptr12@V?$allocator@U_Container_proxy@std@@@std@@@std@@QEAA@AEAV?$allocator@U_Container_proxy@std@@@1@AEAU_Container_base12@1@@Z
    ??1?$_Container_proxy_ptr12@V?$allocator@U_Container_proxy@std@@@std@@@std@@QEAA@XZ
    ??$_Unfancy@U_Container_proxy@std@@@std@@YAPEAU_Container_proxy@0@PEAU10@@Z
    ??$_Construct_in_place@U_Container_proxy@std@@PEAU_Container_base12@2@@std@@YAXAEAU_Container_proxy@0@$$QEAPEAU_Container_base12@0@@Z
    ??$forward@V?$allocator@D@std@@@std@@YA$$QEAV?$allocator@D@0@AEAV10@@Z
    ??$_Allocate_for_capacity@$0A@@?$basic_string@DU?$char_traits@D@std@@V?$allocator@D@2@@std@@CAPEADAEAV?$allocator@D@1@AEA_K@Z
    ??$_Construct_in_place@PEADAEBQEAD@std@@YAXAEAPEADAEBQEAD@Z
    ??$_Unfancy@D@std@@YAPEADPEAD@Z
    ??$exchange@PEAD$$T@std@@YAPEADAEAPEAD$$QEA$$T@Z
    ??$addressof@V?$basic_string@DU?$char_traits@D@std@@V?$allocator@D@2@@std@@@std@@YAPEAV?$basic_string@DU?$char_traits@D@std@@V?$allocator@D@2@@0@AEAV10@@Z
    ??$_Pocs@V?$allocator@D@std@@@std@@YAXAEAV?$allocator@D@0@0@Z
    ??$addressof@V?$_String_val@U?$_Simple_types@D@std@@@std@@@std@@YAPEAV?$_String_val@U?$_Simple_types@D@std@@@0@AEAV10@@Z
    ??$_Construct_in_place@PEADAEAPEAD@std@@YAXAEAPEAD0@Z
    ??$max@_K@std@@YAAEB_KAEB_K0@Z
    ??$_Deallocate@$0BA@@std@@YAXPEAX_K@Z
    ??$forward@AEBV?$allocator@D@std@@@std@@YAAEBV?$allocator@D@0@AEBV10@@Z
    ??$forward@AEAPEAD@std@@YAAEAPEADAEAPEAD@Z
    ?deallocate@?$_Default_allocator_traits@V?$allocator@U_Container_proxy@std@@@std@@@std@@SAXAEAV?$allocator@U_Container_proxy@std@@@2@QEAU_Container_proxy@2@_K@Z
    ??$addressof@U_Container_proxy@std@@@std@@YAPEAU_Container_proxy@0@AEAU10@@Z
    ??$forward@PEAU_Container_base12@std@@@std@@YA$$QEAPEAU_Container_base12@0@AEAPEAU10@@Z
    ??$_Allocate_at_least_helper@V?$allocator@D@std@@@std@@YAPEADAEAV?$allocator@D@0@AEA_K@Z
    ??$addressof@PEAD@std@@YAPEAPEADAEAPEAD@Z
    ??$forward@AEBQEAD@std@@YAAEBQEADAEBQEAD@Z
    ??$?8DD@std@@YA_NAEBV?$allocator@D@0@0@Z
    ??$addressof@U_Container_base12@std@@@std@@YAPEAU_Container_base12@0@AEAU10@@Z
    ??$_Get_size_of_n@$0BA@@std@@YA_K_K@Z
    ??$_Allocate@$0BA@U_Default_allocate_traits@std@@@std@@YAPEAX_K@Z
    ??$_Destroy_in_place@PEAD@std@@YAXAEAPEAD@Z
    ??$_Max_limit@_J@std@@YA_JXZ
    ??$swap@PEAD$0A@@std@@YAXAEAPEAD0@Z
    ??$swap@_K$0A@@std@@YAXAEA_K0@Z
    ??$_Allocate_manually_vector_aligned@U_Default_allocate_traits@std@@@std@@YAPEAX_K@Z
    ??$move@AEAPEAD@std@@YA$$QEAPEADAEAPEAD@Z
    ??$move@AEA_K@std@@YA$$QEA_KAEA_K@Z
    ??$_Get_size_of_n@$00@std@@YA_K_K@Z
    ??_7exception@std@@6B@
    ??_C@_0BC@EOODALEL@Unknown?5exception@
    ??_7bad_alloc@std@@6B@
    ??_7bad_array_new_length@std@@6B@
    ??_C@_0BF@KINCDENJ@bad?5array?5new?5length@
    ??_R0?AVexception@std@@@8
    _CT??_R0?AVexception@std@@@8??0exception@std@@QEAA@AEBV01@@Z24
    _TI3?AVbad_array_new_length@std@@
    _CTA3?AVbad_array_new_length@std@@
    ??_R0?AVbad_array_new_length@std@@@8
    _CT??_R0?AVbad_array_new_length@std@@@8??0bad_array_new_length@std@@QEAA@AEBV01@@Z24
    ??_R0?AVbad_alloc@std@@@8
    _CT??_R0?AVbad_alloc@std@@@8??0bad_alloc@std@@QEAA@AEBV01@@Z24
    ??_C@_0BB@FCMFBGOM@invalid?5argument@
    ??_C@_02DKCKIIND@?$CFs@
    ??_C@_0GC@KLECFGLI@C?3?2Program?5Files?2Microsoft?5Visu@
    ??_C@_0BA@JFNIOLAK@string?5too?5long@
    ??_7Exception@Glib@@6B@
    ??_7IOChannelError@Glib@@6B@
    ??_7IOChannel@Glib@@6B@
    ??_R0?AVError@Glib@@@8
    _TI3?AVIOChannelError@Glib@@
    _CTA3?AVIOChannelError@Glib@@
    ??_R0?AVIOChannelError@Glib@@@8
    _CT??_R0?AVIOChannelError@Glib@@@8??0IOChannelError@Glib@@QEAA@AEBV01@@Z16
    _CT??_R0?AVError@Glib@@@8??0Error@Glib@@QEAA@AEBV01@@Z16
    ??_R0?AVException@Glib@@@8
    _CT??_R0?AVException@Glib@@@8??0Exception@Glib@@QEAA@AEBV01@@Z8
    ??_C@_0BJ@HAJGEHKO@transposed?5pointer?5range@
    ??_C@_0GD@GOKHNLI@C?3?2Program?5Files?2Microsoft?5Visu@
    ??_C@_0DG@KGHKKGBC@null?5pointer?5cannot?5point?5to?5a?5@
    ??_C@_0CB@PKNBJHCN@containers?5incompatible?5for?5swa@
    ??_R4exception@std@@6B@
    ??_R3exception@std@@8
    ??_R2exception@std@@8
    ??_R1A@?0A@EA@exception@std@@8
    ??_R4bad_array_new_length@std@@6B@
    ??_R3bad_array_new_length@std@@8
    ??_R2bad_array_new_length@std@@8
    ??_R1A@?0A@EA@bad_array_new_length@std@@8
    ??_R1A@?0A@EA@bad_alloc@std@@8
    ??_R3bad_alloc@std@@8
    ??_R2bad_alloc@std@@8
    ??_R4bad_alloc@std@@6B@
    ??_R4Exception@Glib@@6B@
    ??_R3Exception@Glib@@8
    ??_R2Exception@Glib@@8
    ??_R1A@?0A@EA@Exception@Glib@@8
    ??_R4IOChannelError@Glib@@6B@
    ??_R3IOChannelError@Glib@@8
    ??_R2IOChannelError@Glib@@8
    ??_R1A@?0A@EA@IOChannelError@Glib@@8
    ??_R1A@?0A@EA@Error@Glib@@8
    ??_R3Error@Glib@@8
    ??_R2Error@Glib@@8
    ??_R4IOChannel@Glib@@6B@
    ??_R0?AVIOChannel@Glib@@@8
    ??_R3IOChannel@Glib@@8
    ??_R2IOChannel@Glib@@8
    ??_R1A@?0A@EA@IOChannel@Glib@@8
    ??_R17?0A@EA@trackable@sigc@@8
    ??_R0?AUtrackable@sigc@@@8
    ??_R3trackable@sigc@@8
    ??_R2trackable@sigc@@8
    ??_R1A@?0A@EA@trackable@sigc@@8
    ?__empty_global_delete@@YAXPEAX@Z
    ?__empty_global_delete@@YAXPEAX_K@Z
    ??2@YAPEAX_KPEAX@Z
    ??0exception@std@@QEAA@QEBDH@Z
    ??0exception@std@@QEAA@AEBV01@@Z
    ??1exception@std@@UEAA@XZ
    ?what@exception@std@@UEBAPEBDXZ
    ??0bad_alloc@std@@AEAA@QEBD@Z
    ??1bad_alloc@std@@UEAA@XZ
    ??0bad_alloc@std@@QEAA@AEBV01@@Z
    ??0bad_array_new_length@std@@QEAA@XZ
    ??1bad_array_new_length@std@@UEAA@XZ
    ??0bad_array_new_length@std@@QEAA@AEBV01@@Z
    ?copy@?$_Char_traits@DH@std@@SAPEADQEADQEBD_K@Z
    ?move@?$_Char_traits@DH@std@@SAPEADQEADQEBD_K@Z
    ?length@?$_Narrow_char_traits@DH@std@@SA_KQEBD@Z
    ?assign@?$_Narrow_char_traits@DH@std@@SAXAEADAEBD@Z
    ?_Throw_bad_array_new_length@std@@YAXXZ
    ?_Allocate@_Default_allocate_traits@std@@SAPEAX_K@Z
    ?_Adjust_manually_vector_aligned@std@@YAXAEAPEAXAEA_K@Z
    ?_Orphan_all@_Container_base12@std@@QEAAXXZ
    ?_Orphan_all_unlocked_v3@_Container_base12@std@@AEAAXXZ
    ?_Orphan_all_locked_v3@_Container_base12@std@@AEAAXXZ
    ??$exchange@PEAU_Iterator_base12@std@@$$T@std@@YAPEAU_Iterator_base12@0@AEAPEAU10@$$QEA$$T@Z
    ?_Xlen_string@std@@YAXXZ
    ?deallocate@?$allocator@D@std@@QEAAXQEAD_K@Z
    ?allocate@?$allocator@D@std@@QEAAPEAD_K@Z
    ?max_size@?$_Default_allocator_traits@V?$allocator@D@std@@@std@@SA_KAEBV?$allocator@D@2@@Z
    ?_Myptr@?$_String_val@U?$_Simple_types@D@std@@@std@@QEAAPEADXZ
    ?_Myptr@?$_String_val@U?$_Simple_types@D@std@@@std@@QEBAPEBDXZ
    ?_Large_mode_engaged@?$_String_val@U?$_Simple_types@D@std@@@std@@QEBA_NXZ
    ?_Check_offset@?$_String_val@U?$_Simple_types@D@std@@@std@@QEBAX_K@Z
    ?_Xran@?$_String_val@U?$_Simple_types@D@std@@@std@@SAXXZ
    ?_Deallocate_for_capacity@?$basic_string@DU?$char_traits@D@std@@V?$allocator@D@2@@std@@CAXAEAV?$allocator@D@2@QEAD_K@Z
    ??4?$basic_string@DU?$char_traits@D@std@@V?$allocator@D@2@@std@@QEAAAEAV01@QEBD@Z
    ?assign@?$basic_string@DU?$char_traits@D@std@@V?$allocator@D@2@@std@@QEAAAEAV12@QEBD_K@Z
    ?assign@?$basic_string@DU?$char_traits@D@std@@V?$allocator@D@2@@std@@QEAAAEAV12@QEBD@Z
    ?erase@?$basic_string@DU?$char_traits@D@std@@V?$allocator@D@2@@std@@QEAAAEAV12@_K@Z
    ?c_str@?$basic_string@DU?$char_traits@D@std@@V?$allocator@D@2@@std@@QEBAPEBDXZ
    ?max_size@?$basic_string@DU?$char_traits@D@std@@V?$allocator@D@2@@std@@QEBA_KXZ
    ?_Calculate_growth@?$basic_string@DU?$char_traits@D@std@@V?$allocator@D@2@@std@@CA_K_K00@Z
    ?_Calculate_growth@?$basic_string@DU?$char_traits@D@std@@V?$allocator@D@2@@std@@AEBA_K_K@Z
    ?_Eos@?$basic_string@DU?$char_traits@D@std@@V?$allocator@D@2@@std@@AEAAX_K@Z
    ?_Getal@?$basic_string@DU?$char_traits@D@std@@V?$allocator@D@2@@std@@AEAAAEAV?$allocator@D@2@XZ
    ?_Getal@?$basic_string@DU?$char_traits@D@std@@V?$allocator@D@2@@std@@AEBAAEBV?$allocator@D@2@XZ
    ?_Get_first@?$_Compressed_pair@V?$allocator@D@std@@V?$_String_val@U?$_Simple_types@D@std@@@2@$00@std@@QEAAAEAV?$allocator@D@2@XZ
    ?_Get_first@?$_Compressed_pair@V?$allocator@D@std@@V?$_String_val@U?$_Simple_types@D@std@@@2@$00@std@@QEBAAEBV?$allocator@D@2@XZ
    ??0Exception@Glib@@QEAA@AEBV01@@Z
    ??0?$ArrayHandle@_NU?$TypeTraits@_N@Container_Helpers@Glib@@@Glib@@QEAA@PEBH_KW4OwnershipType@1@@Z
    ?data@?$ArrayHandle@_NU?$TypeTraits@_N@Container_Helpers@Glib@@@Glib@@QEBAPEBHXZ
    ?size@?$ArrayHandle@_NU?$TypeTraits@_N@Container_Helpers@Glib@@@Glib@@QEBA_KXZ
    ?convert_return_gchar_ptr_to_ustring@Glib@@YA?AVustring@1@PEAD@Z
    ??$make_unique_ptr_gfree@D@Glib@@YA?AV?$unique_ptr@$$BY0A@DP6AXPEAX@Z@std@@PEAD@Z
    ??1?$unique_ptr@$$BY0A@DP6AXPEAX@Z@std@@QEAA@XZ
    ?get_deleter@?$unique_ptr@$$BY0A@DP6AXPEAX@Z@std@@QEAAAEAP6AXPEAX@ZXZ
    ?get@?$unique_ptr@$$BY0A@DP6AXPEAX@Z@std@@QEBAPEADXZ
    ?release@?$unique_ptr@$$BY0A@DP6AXPEAX@Z@std@@QEAAPEADXZ
    ?_Get_first@?$_Compressed_pair@P6AXPEAX@ZPEAD$0A@@std@@QEAAAEAP6AXPEAX@ZXZ
    ??0KeyFileError@Glib@@QEAA@W4Code@01@AEBVustring@1@@Z
    ??0KeyFileError@Glib@@QEAA@PEAU_GError@@@Z
    ?code@KeyFileError@Glib@@QEBA?AW4Code@12@XZ
    ?throw_func@KeyFileError@Glib@@CAXPEAU_GError@@@Z
    ??1KeyFileError@Glib@@UEAA@XZ
    ??0KeyFileError@Glib@@QEAA@AEBV01@@Z
    ??0KeyFile@Glib@@QEAA@XZ
    ??0KeyFile@Glib@@QEAA@$$QEAV01@@Z
    ??4KeyFile@Glib@@QEAAAEAV01@$$QEAV01@@Z
    ??1KeyFile@Glib@@QEAA@XZ
    ??0KeyFile@Glib@@QEAA@PEAU_GKeyFile@@_N@Z
    ?load_from_file@KeyFile@Glib@@QEAA_NAEBV?$basic_string@DU?$char_traits@D@std@@V?$allocator@D@2@@std@@W4KeyFileFlags@2@@Z
    ?load_from_data@KeyFile@Glib@@QEAA_NAEBVustring@2@W4KeyFileFlags@2@@Z
    ?load_from_dirs@KeyFile@Glib@@QEAA_NAEBV?$basic_string@DU?$char_traits@D@std@@V?$allocator@D@2@@std@@AEBV?$ArrayHandle@V?$basic_string@DU?$char_traits@D@std@@V?$allocator@D@2@@std@@U?$TypeTraits@V?$basic_string@DU?$char_traits@D@std@@V?$allocator@D@2@@std@@@Container_Helpers@Glib@@@2@AEAV52@W4KeyFileFlags@2@@Z
    ?load_from_dirs@KeyFile@Glib@@QEAA_NAEBV?$basic_string@DU?$char_traits@D@std@@V?$allocator@D@2@@std@@AEBV?$ArrayHandle@V?$basic_string@DU?$char_traits@D@std@@V?$allocator@D@2@@std@@U?$TypeTraits@V?$basic_string@DU?$char_traits@D@std@@V?$allocator@D@2@@std@@@Container_Helpers@Glib@@@2@AEAV34@W4KeyFileFlags@2@@Z
    ?load_from_data_dirs@KeyFile@Glib@@QEAA_NAEBV?$basic_string@DU?$char_traits@D@std@@V?$allocator@D@2@@std@@AEAV34@W4KeyFileFlags@2@@Z
    ?to_data@KeyFile@Glib@@QEAA?AVustring@2@XZ
    ?save_to_file@KeyFile@Glib@@QEAA_NAEBV?$basic_string@DU?$char_traits@D@std@@V?$allocator@D@2@@std@@@Z
    ?get_start_group@KeyFile@Glib@@QEBA?AVustring@2@XZ
    ?get_groups@KeyFile@Glib@@QEBA?AV?$ArrayHandle@Vustring@Glib@@U?$TypeTraits@Vustring@Glib@@@Container_Helpers@2@@2@XZ
    ?get_keys@KeyFile@Glib@@QEBA?AV?$ArrayHandle@Vustring@Glib@@U?$TypeTraits@Vustring@Glib@@@Container_Helpers@2@@2@AEBVustring@2@@Z
    ?has_group@KeyFile@Glib@@QEBA_NAEBVustring@2@@Z
    ?has_key@KeyFile@Glib@@QEBA_NAEBVustring@2@0@Z
    ?get_value@KeyFile@Glib@@QEBA?AVustring@2@AEBV32@0@Z
    ?get_string@KeyFile@Glib@@QEBA?AVustring@2@AEBV32@0@Z
    ?get_locale_for_key@KeyFile@Glib@@QEBA?AVustring@2@AEBV32@00@Z
    ?get_locale_string@KeyFile@Glib@@QEBA?AVustring@2@AEBV32@0@Z
    ?get_locale_string@KeyFile@Glib@@QEBA?AVustring@2@AEBV32@00@Z
    ?get_boolean@KeyFile@Glib@@QEBA_NAEBVustring@2@@Z
    ?get_boolean@KeyFile@Glib@@QEBA_NAEBVustring@2@0@Z
    ?get_integer@KeyFile@Glib@@QEBAHAEBVustring@2@@Z
    ?get_integer@KeyFile@Glib@@QEBAHAEBVustring@2@0@Z
    ?get_int64@KeyFile@Glib@@QEBA_JAEBVustring@2@@Z
    ?get_int64@KeyFile@Glib@@QEBA_JAEBVustring@2@0@Z
    ?get_uint64@KeyFile@Glib@@QEBA_KAEBVustring@2@@Z
    ?get_uint64@KeyFile@Glib@@QEBA_KAEBVustring@2@0@Z
    ?get_double@KeyFile@Glib@@QEBANAEBVustring@2@@Z
    ?get_double@KeyFile@Glib@@QEBANAEBVustring@2@0@Z
    ?set_double@KeyFile@Glib@@QEAAXAEBVustring@2@0N@Z
    ?set_double@KeyFile@Glib@@QEAAXAEBVustring@2@N@Z
    ?get_string_list@KeyFile@Glib@@QEBA?AV?$ArrayHandle@Vustring@Glib@@U?$TypeTraits@Vustring@Glib@@@Container_Helpers@2@@2@AEBVustring@2@0@Z
    ?get_locale_string_list@KeyFile@Glib@@QEBA?AV?$ArrayHandle@Vustring@Glib@@U?$TypeTraits@Vustring@Glib@@@Container_Helpers@2@@2@AEBVustring@2@00@Z
    ?get_boolean_list@KeyFile@Glib@@QEBA?AV?$ArrayHandle@_NU?$TypeTraits@_N@Container_Helpers@Glib@@@2@AEBVustring@2@0@Z
    ?get_integer_list@KeyFile@Glib@@QEBA?AV?$ArrayHandle@HU?$TypeTraits@H@Container_Helpers@Glib@@@2@AEBVustring@2@0@Z
    ?get_double_list@KeyFile@Glib@@QEBA?AV?$ArrayHandle@NU?$TypeTraits@N@Container_Helpers@Glib@@@2@AEBVustring@2@0@Z
    ?get_comment@KeyFile@Glib@@QEBA?AVustring@2@XZ
    ?get_comment@KeyFile@Glib@@QEBA?AVustring@2@AEBV32@@Z
    ?get_comment@KeyFile@Glib@@QEBA?AVustring@2@AEBV32@0@Z
    ?set_list_separator@KeyFile@Glib@@QEAAXD@Z
    ?set_value@KeyFile@Glib@@QEAAXAEBVustring@2@00@Z
    ?set_string@KeyFile@Glib@@QEAAXAEBVustring@2@00@Z
    ?set_locale_string@KeyFile@Glib@@QEAAXAEBVustring@2@000@Z
    ?set_boolean@KeyFile@Glib@@QEAAXAEBVustring@2@0_N@Z
    ?set_integer@KeyFile@Glib@@QEAAXAEBVustring@2@0H@Z
    ?set_int64@KeyFile@Glib@@QEAAXAEBVustring@2@0_J@Z
    ?set_uint64@KeyFile@Glib@@QEAAXAEBVustring@2@0_K@Z
    ?set_string_list@KeyFile@Glib@@QEAAXAEBVustring@2@0AEBV?$ArrayHandle@Vustring@Glib@@U?$TypeTraits@Vustring@Glib@@@Container_Helpers@2@@2@@Z
    ?set_locale_string_list@KeyFile@Glib@@QEAAXAEBVustring@2@00AEBV?$ArrayHandle@Vustring@Glib@@U?$TypeTraits@Vustring@Glib@@@Container_Helpers@2@@2@@Z
    ?set_boolean_list@KeyFile@Glib@@QEAAXAEBVustring@2@0AEBV?$ArrayHandle@_NU?$TypeTraits@_N@Container_Helpers@Glib@@@2@@Z
    ?set_integer_list@KeyFile@Glib@@QEAAXAEBVustring@2@0AEBV?$ArrayHandle@HU?$TypeTraits@H@Container_Helpers@Glib@@@2@@Z
    ?set_double_list@KeyFile@Glib@@QEAAXAEBVustring@2@0AEBV?$ArrayHandle@NU?$TypeTraits@N@Container_Helpers@Glib@@@2@@Z
    ?set_comment@KeyFile@Glib@@QEAAXAEBVustring@2@@Z
    ?set_comment@KeyFile@Glib@@QEAAXAEBVustring@2@0@Z
    ?set_comment@KeyFile@Glib@@QEAAXAEBVustring@2@00@Z
    ?remove_comment@KeyFile@Glib@@QEAAXAEBVustring@2@0@Z
    ?remove_key@KeyFile@Glib@@QEAAXAEBVustring@2@0@Z
    ?remove_group@KeyFile@Glib@@QEAAXAEBVustring@2@@Z
    ?gobj@KeyFile@Glib@@QEAAPEAU_GKeyFile@@XZ
    ?gobj@KeyFile@Glib@@QEBAPEBU_GKeyFile@@XZ
    ??$move@AEAPEAU_GKeyFile@@@std@@YA$$QEAPEAU_GKeyFile@@AEAPEAU1@@Z
    ??$move@AEA_N@std@@YA$$QEA_NAEA_N@Z
    ?data@?$ArrayHandle@V?$basic_string@DU?$char_traits@D@std@@V?$allocator@D@2@@std@@U?$TypeTraits@V?$basic_string@DU?$char_traits@D@std@@V?$allocator@D@2@@std@@@Container_Helpers@Glib@@@Glib@@QEBAPEBQEBDXZ
    ??0?$ArrayHandle@Vustring@Glib@@U?$TypeTraits@Vustring@Glib@@@Container_Helpers@2@@Glib@@QEAA@PEBQEBD_KW4OwnershipType@1@@Z
    ?data@?$ArrayHandle@Vustring@Glib@@U?$TypeTraits@Vustring@Glib@@@Container_Helpers@2@@Glib@@QEBAPEBQEBDXZ
    ?size@?$ArrayHandle@Vustring@Glib@@U?$TypeTraits@Vustring@Glib@@@Container_Helpers@2@@Glib@@QEBA_KXZ
    ??$c_str_or_nullptr@Vustring@Glib@@@Glib@@YAPEBDAEBVustring@0@@Z
    ??0?$ArrayHandle@HU?$TypeTraits@H@Container_Helpers@Glib@@@Glib@@QEAA@PEBH_KW4OwnershipType@1@@Z
    ?data@?$ArrayHandle@HU?$TypeTraits@H@Container_Helpers@Glib@@@Glib@@QEBAPEBHXZ
    ?size@?$ArrayHandle@HU?$TypeTraits@H@Container_Helpers@Glib@@@Glib@@QEBA_KXZ
    ??0?$ArrayHandle@NU?$TypeTraits@N@Container_Helpers@Glib@@@Glib@@QEAA@PEBN_KW4OwnershipType@1@@Z
    ?data@?$ArrayHandle@NU?$TypeTraits@N@Container_Helpers@Glib@@@Glib@@QEBAPEBNXZ
    ?size@?$ArrayHandle@NU?$TypeTraits@N@Container_Helpers@Glib@@@Glib@@QEBA_KXZ
    ??$min@_K@std@@YAAEB_KAEB_K0@Z
    ??$?0PEADP6AXPEAX@Z$0A@$0A@@?$unique_ptr@$$BY0A@DP6AXPEAX@Z@std@@QEAA@PEAD$$QEAP6AXPEAX@Z@Z
    ??$?0P6AXPEAX@Z$0A@@?$unique_ptr@$$BY0A@DP6AXPEAX@Z@std@@QEAA@$$QEAV01@@Z
    ??$_Convert_size@_K_K@std@@YA_K_K@Z
    ??$move@AEAP6AXPEAX@Z@std@@YA$$QEAP6AXPEAX@ZAEAP6AX0@Z@Z
    ??$?0P6AXPEAX@ZAEAPEAD@?$_Compressed_pair@P6AXPEAX@ZPEAD$0A@@std@@QEAA@U_One_then_variadic_args_t@1@$$QEAP6AXPEAX@ZAEAPEAD@Z
    ??$forward@P6AXPEAX@Z@std@@YA$$QEAP6AXPEAX@ZAEAP6AX0@Z@Z
    ??$?0P6AXPEAX@ZPEAD@?$_Compressed_pair@P6AXPEAX@ZPEAD$0A@@std@@QEAA@U_One_then_variadic_args_t@1@$$QEAP6AXPEAX@Z$$QEAPEAD@Z
    ??$_Allocate_for_capacity@$0A@@?$basic_string@DU?$char_traits@D@std@@V?$allocator@D@2@@std@@CAPEADAEAV?$allocator@D@1@AEA_K@Z
    ??$_Construct_in_place@PEADAEBQEAD@std@@YAXAEAPEADAEBQEAD@Z
    ??$_Unfancy@D@std@@YAPEADPEAD@Z
    ??$max@_K@std@@YAAEB_KAEB_K0@Z
    ??$_Deallocate@$0BA@@std@@YAXPEAX_K@Z
    ??$forward@AEAPEAD@std@@YAAEAPEADAEAPEAD@Z
    ??$forward@PEAD@std@@YA$$QEAPEADAEAPEAD@Z
    ??$_Allocate_at_least_helper@V?$allocator@D@std@@@std@@YAPEADAEAV?$allocator@D@0@AEA_K@Z
    ??$addressof@PEAD@std@@YAPEAPEADAEAPEAD@Z
    ??$forward@AEBQEAD@std@@YAAEBQEADAEBQEAD@Z
    ??$_Allocate@$0BA@U_Default_allocate_traits@std@@@std@@YAPEAX_K@Z
    ??$exchange@PEAD$$T@std@@YAPEADAEAPEAD$$QEA$$T@Z
    ??$_Max_limit@_J@std@@YA_JXZ
    ??R<lambda_66f57f934f28d61049862f64df852ff0>@@QEBA@QEAD_KQEBD@Z
    ??$_Reallocate_for@V<lambda_66f57f934f28d61049862f64df852ff0>@@PEBD@?$basic_string@DU?$char_traits@D@std@@V?$allocator@D@2@@std@@AEAAAEAV01@_KV<lambda_66f57f934f28d61049862f64df852ff0>@@PEBD@Z
    ??$_Allocate_manually_vector_aligned@U_Default_allocate_traits@std@@@std@@YAPEAX_K@Z
    ??$_Get_size_of_n@$00@std@@YA_K_K@Z
    ??_7exception@std@@6B@
    ??_C@_0BC@EOODALEL@Unknown?5exception@
    ??_7bad_alloc@std@@6B@
    ??_7bad_array_new_length@std@@6B@
    ??_C@_0BF@KINCDENJ@bad?5array?5new?5length@
    ??_R0?AVexception@std@@@8
    _CT??_R0?AVexception@std@@@8??0exception@std@@QEAA@AEBV01@@Z24
    _TI3?AVbad_array_new_length@std@@
    _CTA3?AVbad_array_new_length@std@@
    ??_R0?AVbad_array_new_length@std@@@8
    _CT??_R0?AVbad_array_new_length@std@@@8??0bad_array_new_length@std@@QEAA@AEBV01@@Z24
    ??_R0?AVbad_alloc@std@@@8
    _CT??_R0?AVbad_alloc@std@@@8??0bad_alloc@std@@QEAA@AEBV01@@Z24
    ??_C@_0BB@FCMFBGOM@invalid?5argument@
    ??_C@_02DKCKIIND@?$CFs@
    ??_C@_0GC@KLECFGLI@C?3?2Program?5Files?2Microsoft?5Visu@
    ??_C@_0BA@JFNIOLAK@string?5too?5long@
    ??_7Exception@Glib@@6B@
    ??_7KeyFileError@Glib@@6B@
    _TI3?AVKeyFileError@Glib@@
    _CTA3?AVKeyFileError@Glib@@
    ??_R0?AVKeyFileError@Glib@@@8
    _CT??_R0?AVKeyFileError@Glib@@@8??0KeyFileError@Glib@@QEAA@AEBV01@@Z16
    ??_R0?AVError@Glib@@@8
    _CT??_R0?AVError@Glib@@@8??0Error@Glib@@QEAA@AEBV01@@Z16
    ??_R0?AVException@Glib@@@8
    _CT??_R0?AVException@Glib@@@8??0Exception@Glib@@QEAA@AEBV01@@Z8
    ??_C@_0DG@KGHKKGBC@null?5pointer?5cannot?5point?5to?5a?5@
    ??_C@_0BI@CFPLBAOH@invalid?5string?5position@
    ??_R4exception@std@@6B@
    ??_R3exception@std@@8
    ??_R2exception@std@@8
    ??_R1A@?0A@EA@exception@std@@8
    ??_R4bad_array_new_length@std@@6B@
    ??_R3bad_array_new_length@std@@8
    ??_R2bad_array_new_length@std@@8
    ??_R1A@?0A@EA@bad_array_new_length@std@@8
    ??_R1A@?0A@EA@bad_alloc@std@@8
    ??_R3bad_alloc@std@@8
    ??_R2bad_alloc@std@@8
    ??_R4bad_alloc@std@@6B@
    ??_R4Exception@Glib@@6B@
    ??_R3Exception@Glib@@8
    ??_R2Exception@Glib@@8
    ??_R1A@?0A@EA@Exception@Glib@@8
    ??_R4KeyFileError@Glib@@6B@
    ??_R3KeyFileError@Glib@@8
    ??_R2KeyFileError@Glib@@8
    ??_R1A@?0A@EA@KeyFileError@Glib@@8
    ??_R1A@?0A@EA@Error@Glib@@8
    ??_R3Error@Glib@@8
    ??_R2Error@Glib@@8
    ?vfunc_table_@Source@Glib@@0U_GSourceFuncs@@B
    ?prepare_vfunc@Source@Glib@@CAHPEAU_GSource@@PEAH@Z
    ?check_vfunc@Source@Glib@@CAHPEAU_GSource@@@Z
    ?dispatch_vfunc@Source@Glib@@CAHPEAU_GSource@@P6AHPEAX@Z1@Z
    ?__empty_global_delete@@YAXPEAX@Z
    ?__empty_global_delete@@YAXPEAX_K@Z
    ??2@YAPEAX_KPEAX@Z
    ??0exception@std@@QEAA@QEBD@Z
    ??0exception@std@@QEAA@QEBDH@Z
    ??0exception@std@@QEAA@AEBV01@@Z
    ??1exception@std@@UEAA@XZ
    ?what@exception@std@@UEBAPEBDXZ
    ??0bad_alloc@std@@AEAA@QEBD@Z
    ??1bad_alloc@std@@UEAA@XZ
    ??0bad_alloc@std@@QEAA@AEBV01@@Z
    ??0bad_array_new_length@std@@QEAA@XZ
    ??1bad_array_new_length@std@@UEAA@XZ
    ??0bad_array_new_length@std@@QEAA@AEBV01@@Z
    ?copy@?$_Char_traits@DH@std@@SAPEADQEADQEBD_K@Z
    ?length@?$_Narrow_char_traits@DH@std@@SA_KQEBD@Z
    ?assign@?$_Narrow_char_traits@DH@std@@SAXAEADAEBD@Z
    ?_Throw_bad_array_new_length@std@@YAXXZ
    ?_Allocate@_Default_allocate_traits@std@@SAPEAX_K@Z
    ?_Adjust_manually_vector_aligned@std@@YAXAEAPEAXAEA_K@Z
    ?_Adopt@_Iterator_base0@std@@QEAAXPEBX@Z
    ??0_Container_proxy@std@@QEAA@PEAU_Container_base12@1@@Z
    ??0_Container_base12@std@@QEAA@XZ
    ?_Orphan_all@_Container_base12@std@@QEAAXXZ
    ?_Orphan_all_unlocked_v3@_Container_base12@std@@AEAAXXZ
    ?_Orphan_all_locked_v3@_Container_base12@std@@AEAAXXZ
    ??$exchange@PEAU_Iterator_base12@std@@$$T@std@@YAPEAU_Iterator_base12@0@AEAPEAU10@$$QEA$$T@Z
    ?_Release@_Basic_container_proxy_ptr12@std@@QEAAXXZ
    ??0_Basic_container_proxy_ptr12@std@@IEAA@XZ
    ?_Xlen_string@std@@YAXXZ
    ??0?$allocator@D@std@@QEAA@XZ
    ?deallocate@?$allocator@D@std@@QEAAXQEAD_K@Z
    ?allocate@?$allocator@D@std@@QEAAPEAD_K@Z
    ?max_size@?$_Default_allocator_traits@V?$allocator@D@std@@@std@@SA_KAEBV?$allocator@D@2@@Z
    ??0?$_String_val@U?$_Simple_types@D@std@@@std@@QEAA@XZ
    ?_Myptr@?$_String_val@U?$_Simple_types@D@std@@@std@@QEBAPEBDXZ
    ?_Large_mode_engaged@?$_String_val@U?$_Simple_types@D@std@@@std@@QEBA_NXZ
    ??0_Bxty@?$_String_val@U?$_Simple_types@D@std@@@std@@QEAA@XZ
    ??1_Bxty@?$_String_val@U?$_Simple_types@D@std@@@std@@QEAA@XZ
    ?_Switch_to_buf@_Bxty@?$_String_val@U?$_Simple_types@D@std@@@std@@QEAAXXZ
    ??1?$_String_val@U?$_Simple_types@D@std@@@std@@QEAA@XZ
    ??0?$basic_string@DU?$char_traits@D@std@@V?$allocator@D@2@@std@@QEAA@QEBD@Z
    ?_Deallocate_for_capacity@?$basic_string@DU?$char_traits@D@std@@V?$allocator@D@2@@std@@CAXAEAV?$allocator@D@2@QEAD_K@Z
    ??1?$basic_string@DU?$char_traits@D@std@@V?$allocator@D@2@@std@@QEAA@XZ
    ?c_str@?$basic_string@DU?$char_traits@D@std@@V?$allocator@D@2@@std@@QEBAPEBDXZ
    ?max_size@?$basic_string@DU?$char_traits@D@std@@V?$allocator@D@2@@std@@QEBA_KXZ
    ?_Calculate_growth@?$basic_string@DU?$char_traits@D@std@@V?$allocator@D@2@@std@@CA_K_K00@Z
    ?_Tidy_deallocate@?$basic_string@DU?$char_traits@D@std@@V?$allocator@D@2@@std@@AEAAXXZ
    ?_Getal@?$basic_string@DU?$char_traits@D@std@@V?$allocator@D@2@@std@@AEAAAEAV?$allocator@D@2@XZ
    ?_Getal@?$basic_string@DU?$char_traits@D@std@@V?$allocator@D@2@@std@@AEBAAEBV?$allocator@D@2@XZ
    ?_Get_first@?$_Compressed_pair@V?$allocator@D@std@@V?$_String_val@U?$_Simple_types@D@std@@@2@$00@std@@QEAAAEAV?$allocator@D@2@XZ
    ?_Get_first@?$_Compressed_pair@V?$allocator@D@std@@V?$_String_val@U?$_Simple_types@D@std@@@2@$00@std@@QEBAAEBV?$allocator@D@2@XZ
    ??1?$_Compressed_pair@V?$allocator@D@std@@V?$_String_val@U?$_Simple_types@D@std@@@2@$00@std@@QEAA@XZ
    ??0runtime_error@std@@QEAA@AEBV?$basic_string@DU?$char_traits@D@std@@V?$allocator@D@2@@1@@Z
    ??1runtime_error@std@@UEAA@XZ
    ??0runtime_error@std@@QEAA@AEBV01@@Z
    ?generic_category@std@@YAAEBVerror_category@1@XZ
    ??1error_category@std@@UEAA@XZ
    ?default_error_condition@error_category@std@@UEBA?AVerror_condition@2@H@Z
    ?equivalent@error_category@std@@UEBA_NHAEBVerror_condition@2@@Z
    ?equivalent@error_category@std@@UEBA_NAEBVerror_code@2@H@Z
    ??8error_category@std@@QEBA_NAEBV01@@Z
    ??$_Bit_cast@_KT_Addr_storage@error_category@std@@$0A@@std@@YA_KAEBT_Addr_storage@error_category@0@@Z
    ??0error_code@std@@QEAA@HAEBVerror_category@1@@Z
    ?value@error_code@std@@QEBAHXZ
    ?category@error_code@std@@QEBAAEBVerror_category@2@XZ
    ?message@error_code@std@@QEBA?AV?$basic_string@DU?$char_traits@D@std@@V?$allocator@D@2@@2@XZ
    ??0error_condition@std@@QEAA@HAEBVerror_category@1@@Z
    ?value@error_condition@std@@QEBAHXZ
    ?category@error_condition@std@@QEBAAEBVerror_category@2@XZ
    ??8std@@YA_NAEBVerror_condition@0@0@Z
    ?make_error_code@std@@YA?AVerror_code@1@W4errc@1@@Z
    ??0_System_error@std@@IEAA@Verror_code@1@@Z
    ??1_System_error@std@@UEAA@XZ
    ??0_System_error@std@@QEAA@AEBV01@@Z
    ??0system_error@std@@QEAA@Verror_code@1@@Z
    ??1system_error@std@@UEAA@XZ
    ??0system_error@std@@QEAA@AEBV01@@Z
    ?_Throw_system_error@std@@YAXW4errc@1@@Z
    ?name@_Generic_error_category@std@@UEBAPEBDXZ
    ?message@_Generic_error_category@std@@UEBA?AV?$basic_string@DU?$char_traits@D@std@@V?$allocator@D@2@@2@H@Z
    ??1_Generic_error_category@std@@UEAA@XZ
    ??$_Immortalize_memcpy_image@V_Generic_error_category@std@@@std@@YAAEBV_Generic_error_category@0@XZ
    ??0TimeVal@Glib@@QEAA@XZ
    ??0TimeVal@Glib@@QEAA@JJ@Z
    ?negative@TimeVal@Glib@@QEBA_NXZ
    ??NGlib@@YA_NAEBUTimeVal@0@0@Z
    ??$function_pointer_cast@P6AXPEAUslot_rep@internal@sigc@@@ZP6APEAXPEAX@Z@internal@sigc@@YAP6AXPEAUslot_rep@01@@ZP6APEAXPEAX@Z@Z
    ??0?$tuple@$$V@std@@QEAA@AEBV01@@Z
    ?gobj@Mutex@Glib@@QEAAPEAT_GMutex@@XZ
    ?gobj@Cond@Glib@@QEAAPEAU_GCond@@XZ
    ?gobj@Mutex@Threads@Glib@@QEAAPEAT_GMutex@@XZ
    ?gobj@Cond@Threads@Glib@@QEAAPEAU_GCond@@XZ
    ??IGlib@@YA?AW4IOCondition@0@W410@0@Z
    ?gobj@IOChannel@Glib@@QEAAPEAU_GIOChannel@@XZ
    ??0PollFD@Glib@@QEAA@XZ
    ??0PollFD@Glib@@QEAA@_J@Z
    ??0PollFD@Glib@@QEAA@_JW4IOCondition@1@@Z
    ?get_events@PollFD@Glib@@QEBA?AW4IOCondition@2@XZ
    ?get_revents@PollFD@Glib@@QEBA?AW4IOCondition@2@XZ
    ?gobj@PollFD@Glib@@QEAAPEAU_GPollFD@@XZ
    ??0SignalTimeout@Glib@@QEAA@PEAU_GMainContext@@@Z
    ?connect@SignalTimeout@Glib@@QEAA?AUconnection@sigc@@AEBV?$slot@_NUnil@sigc@@U12@U12@U12@U12@U12@U12@@4@IH@Z
    ?connect_once@SignalTimeout@Glib@@QEAAXAEBV?$slot@XUnil@sigc@@U12@U12@U12@U12@U12@U12@@sigc@@IH@Z
    ?connect_seconds@SignalTimeout@Glib@@QEAA?AUconnection@sigc@@AEBV?$slot@_NUnil@sigc@@U12@U12@U12@U12@U12@U12@@4@IH@Z
    ?connect_seconds_once@SignalTimeout@Glib@@QEAAXAEBV?$slot@XUnil@sigc@@U12@U12@U12@U12@U12@U12@@sigc@@IH@Z
    ??0SignalIdle@Glib@@QEAA@PEAU_GMainContext@@@Z
    ?connect@SignalIdle@Glib@@QEAA?AUconnection@sigc@@AEBV?$slot@_NUnil@sigc@@U12@U12@U12@U12@U12@U12@@4@H@Z
    ?connect_once@SignalIdle@Glib@@QEAAXAEBV?$slot@XUnil@sigc@@U12@U12@U12@U12@U12@U12@@sigc@@H@Z
    ??0SignalIO@Glib@@QEAA@PEAU_GMainContext@@@Z
    ?connect@SignalIO@Glib@@QEAA?AUconnection@sigc@@AEBV?$slot@_NW4IOCondition@Glib@@Unil@sigc@@U34@U34@U34@U34@U34@@4@_JW4IOCondition@2@H@Z
    ?connect@SignalIO@Glib@@QEAA?AUconnection@sigc@@AEBV?$slot@_NW4IOCondition@Glib@@Unil@sigc@@U34@U34@U34@U34@U34@@4@AEBV?$RefPtr@VIOChannel@Glib@@@2@W4IOCondition@2@H@Z
    ??0SignalChildWatch@Glib@@QEAA@PEAU_GMainContext@@@Z
    ?connect@SignalChildWatch@Glib@@QEAA?AUconnection@sigc@@AEBV?$slot@XPEAXHUnil@sigc@@U12@U12@U12@U12@@4@PEAXH@Z
    ?signal_timeout@Glib@@YA?AVSignalTimeout@1@XZ
    ?signal_idle@Glib@@YA?AVSignalIdle@1@XZ
    ?signal_io@Glib@@YA?AVSignalIO@1@XZ
    ?signal_child_watch@Glib@@YA?AVSignalChildWatch@1@XZ
    ?create@MainContext@Glib@@SA?AV?$RefPtr@VMainContext@Glib@@@2@XZ
    ?get_default@MainContext@Glib@@SA?AV?$RefPtr@VMainContext@Glib@@@2@XZ
    ?iteration@MainContext@Glib@@QEAA_N_N@Z
    ?pending@MainContext@Glib@@QEAA_NXZ
    ?wakeup@MainContext@Glib@@QEAAXXZ
    ?acquire@MainContext@Glib@@QEAA_NXZ
    ?wait@MainContext@Glib@@QEAA_NAEAVCond@2@AEAVMutex@2@@Z
    ?wait@MainContext@Glib@@QEAA_NAEAVCond@Threads@2@AEAVMutex@42@@Z
    ?release@MainContext@Glib@@QEAAXXZ
    ?prepare@MainContext@Glib@@QEAA_NAEAH@Z
    ?prepare@MainContext@Glib@@QEAA_NXZ
    ?query@MainContext@Glib@@QEAAXHAEAHAEAV?$vector@VPollFD@Glib@@V?$allocator@VPollFD@Glib@@@std@@@std@@@Z
    ?check@MainContext@Glib@@QEAA_NHAEAV?$vector@VPollFD@Glib@@V?$allocator@VPollFD@Glib@@@std@@@std@@@Z
    ?dispatch@MainContext@Glib@@QEAAXXZ
    ?set_poll_func@MainContext@Glib@@QEAAXP6AHPEAU_GPollFD@@IH@Z@Z
    ?get_poll_func@MainContext@Glib@@QEAAP6AHPEAU_GPollFD@@IH@ZXZ
    ?add_poll@MainContext@Glib@@QEAAXAEAVPollFD@2@H@Z
    ?remove_poll@MainContext@Glib@@QEAAXAEAVPollFD@2@@Z
    ?invoke@MainContext@Glib@@QEAAXAEBV?$slot@_NUnil@sigc@@U12@U12@U12@U12@U12@U12@@sigc@@H@Z
    ?signal_timeout@MainContext@Glib@@QEAA?AVSignalTimeout@2@XZ
    ?signal_idle@MainContext@Glib@@QEAA?AVSignalIdle@2@XZ
    ?signal_io@MainContext@Glib@@QEAA?AVSignalIO@2@XZ
    ?signal_child_watch@MainContext@Glib@@QEAA?AVSignalChildWatch@2@XZ
    ?reference@MainContext@Glib@@QEBAXXZ
    ?unreference@MainContext@Glib@@QEBAXXZ
    ?gobj@MainContext@Glib@@QEAAPEAU_GMainContext@@XZ
    ?gobj@MainContext@Glib@@QEBAPEBU_GMainContext@@XZ
    ?gobj_copy@MainContext@Glib@@QEBAPEAU_GMainContext@@XZ
    ?wrap@Glib@@YA?AV?$RefPtr@VMainContext@Glib@@@1@PEAU_GMainContext@@_N@Z
    ?create@MainLoop@Glib@@SA?AV?$RefPtr@VMainLoop@Glib@@@2@_N@Z
    ?create@MainLoop@Glib@@SA?AV?$RefPtr@VMainLoop@Glib@@@2@AEBV?$RefPtr@VMainContext@Glib@@@2@_N@Z
    ?run@MainLoop@Glib@@QEAAXXZ
    ?quit@MainLoop@Glib@@QEAAXXZ
    ?is_running@MainLoop@Glib@@QEAA_NXZ
    ?get_context@MainLoop@Glib@@QEAA?AV?$RefPtr@VMainContext@Glib@@@2@XZ
    ?depth@MainLoop@Glib@@SAHXZ
    ?reference@MainLoop@Glib@@QEBAXXZ
    ?unreference@MainLoop@Glib@@QEBAXXZ
    ?gobj@MainLoop@Glib@@QEAAPEAU_GMainLoop@@XZ
    ?gobj@MainLoop@Glib@@QEBAPEBU_GMainLoop@@XZ
    ?gobj_copy@MainLoop@Glib@@QEBAPEAU_GMainLoop@@XZ
    ?wrap@Glib@@YA?AV?$RefPtr@VMainLoop@Glib@@@1@PEAU_GMainLoop@@_N@Z
    ?attach@Source@Glib@@QEAAIAEBV?$RefPtr@VMainContext@Glib@@@2@@Z
    ?attach@Source@Glib@@QEAAIXZ
    ?destroy@Source@Glib@@QEAAXXZ
    ?set_priority@Source@Glib@@QEAAXH@Z
    ?get_priority@Source@Glib@@QEBAHXZ
    ?set_can_recurse@Source@Glib@@QEAAX_N@Z
    ?get_can_recurse@Source@Glib@@QEBA_NXZ
    ?get_id@Source@Glib@@QEBAIXZ
    ?get_context@Source@Glib@@QEAA?AV?$RefPtr@VMainContext@Glib@@@2@XZ
    ?gobj@Source@Glib@@QEAAPEAU_GSource@@XZ
    ?gobj_copy@Source@Glib@@QEBAPEAU_GSource@@XZ
    ?reference@Source@Glib@@QEBAXXZ
    ?unreference@Source@Glib@@QEBAXXZ
    ??0Source@Glib@@IEAA@XZ
    ??0Source@Glib@@IEAA@PEAU_GSource@@P6AHPEAX@Z@Z
    ??1Source@Glib@@MEAA@XZ
    ?connect_generic@Source@Glib@@IEAA?AUconnection@sigc@@AEBVslot_base@4@@Z
    ?add_poll@Source@Glib@@IEAAXAEAVPollFD@2@@Z
    ?remove_poll@Source@Glib@@IEAAXAEAVPollFD@2@@Z
    ?get_current_time@Source@Glib@@IEAAXAEAUTimeVal@2@@Z
    ?get_time@Source@Glib@@IEBA_JXZ
    ?get_wrapper@Source@Glib@@CAPEAV12@PEAU_GSource@@@Z
    ?destroy_notify_callback@Source@Glib@@SAXPEAX@Z
    ?attach_signal_source@Source@Glib@@SA?AUconnection@sigc@@AEBVslot_base@4@HPEAU_GSource@@PEAU_GMainContext@@P6AHPEAX@Z@Z
    ?get_slot_from_connection_node@Source@Glib@@SAPEAVslot_base@sigc@@PEAX@Z
    ?get_slot_from_callback_data@Source@Glib@@SAPEAVslot_base@sigc@@PEAX@Z
    ?create@TimeoutSource@Glib@@SA?AV?$RefPtr@VTimeoutSource@Glib@@@2@I@Z
    ?connect@TimeoutSource@Glib@@QEAA?AUconnection@sigc@@AEBV?$slot@_NUnil@sigc@@U12@U12@U12@U12@U12@U12@@4@@Z
    ??0TimeoutSource@Glib@@IEAA@I@Z
    ??1TimeoutSource@Glib@@MEAA@XZ
    ?prepare@TimeoutSource@Glib@@MEAA_NAEAH@Z
    ?check@TimeoutSource@Glib@@MEAA_NXZ
    ?dispatch@TimeoutSource@Glib@@MEAA_NPEAVslot_base@sigc@@@Z
    ?create@IdleSource@Glib@@SA?AV?$RefPtr@VIdleSource@Glib@@@2@XZ
    ?connect@IdleSource@Glib@@QEAA?AUconnection@sigc@@AEBV?$slot@_NUnil@sigc@@U12@U12@U12@U12@U12@U12@@4@@Z
    ??0IdleSource@Glib@@IEAA@XZ
    ??1IdleSource@Glib@@MEAA@XZ
    ?prepare@IdleSource@Glib@@MEAA_NAEAH@Z
    ?check@IdleSource@Glib@@MEAA_NXZ
    ?dispatch@IdleSource@Glib@@MEAA_NPEAVslot_base@sigc@@@Z
    ?create@IOSource@Glib@@SA?AV?$RefPtr@VIOSource@Glib@@@2@_JW4IOCondition@2@@Z
    ?create@IOSource@Glib@@SA?AV?$RefPtr@VIOSource@Glib@@@2@AEBV?$RefPtr@VIOChannel@Glib@@@2@W4IOCondition@2@@Z
    ?connect@IOSource@Glib@@QEAA?AUconnection@sigc@@AEBV?$slot@_NW4IOCondition@Glib@@Unil@sigc@@U34@U34@U34@U34@U34@@4@@Z
    ??0IOSource@Glib@@IEAA@_JW4IOCondition@1@@Z
    ??0IOSource@Glib@@IEAA@AEBV?$RefPtr@VIOChannel@Glib@@@1@W4IOCondition@1@@Z
    ??0IOSource@Glib@@IEAA@PEAU_GSource@@P6AHPEAX@Z@Z
    ??1IOSource@Glib@@MEAA@XZ
    ?prepare@IOSource@Glib@@MEAA_NAEAH@Z
    ?check@IOSource@Glib@@MEAA_NXZ
    ?dispatch@IOSource@Glib@@MEAA_NPEAVslot_base@sigc@@@Z
    ?_Throw_tree_length_error@std@@YAXXZ
    ?lock@_Mutex_base@std@@QEAAXXZ
    ?unlock@_Mutex_base@std@@QEAAXXZ
    ?_Verify_ownership_levels@_Mutex_base@std@@IEAA_NXZ
    ?_Mymtx@_Mutex_base@std@@AEAAPEAU_Mtx_internal_imp_t@@XZ
    ??0?$unique_lock@Vmutex@std@@@std@@QEAA@AEAVmutex@1@@Z
    ??1?$unique_lock@Vmutex@std@@@std@@QEAA@XZ
    ?unlock@?$unique_lock@Vmutex@std@@@std@@QEAAXXZ
    ??0?$lock_guard@Vmutex@std@@@std@@QEAA@AEAVmutex@1@@Z
    ??1?$lock_guard@Vmutex@std@@@std@@QEAA@XZ
    ??R?$less@PEBVSource@Glib@@@std@@QEBA_NAEBQEBVSource@Glib@@0@Z
    ??R?$slot0@_N@sigc@@QEBA_NXZ
    ??0?$slot0@_N@sigc@@QEAA@AEBV01@@Z
    ??0?$slot@_NUnil@sigc@@U12@U12@U12@U12@U12@U12@@sigc@@QEAA@AEBV01@@Z
    ??R?$slot0@X@sigc@@QEBAXXZ
    ??R?$slot1@_NW4IOCondition@Glib@@@sigc@@QEBA_NAEBW4IOCondition@Glib@@@Z
    ??R?$slot2@XPEAXH@sigc@@QEBAXAEBQEAXAEBH@Z
    ??C?$RefPtr@VIOChannel@Glib@@@Glib@@QEBAPEAVIOChannel@1@XZ
    ??1?$RefPtr@VIOSource@Glib@@@Glib@@QEAA@XZ
    ??0?$RefPtr@VIOSource@Glib@@@Glib@@QEAA@PEAVIOSource@1@@Z
    ??C?$RefPtr@VIOSource@Glib@@@Glib@@QEBAPEAVIOSource@1@XZ
    ??$function_pointer_cast@P6AHPEAX@ZP6AH0H0@Z@Glib@@YAP6AHPEAX@ZP6AH0H0@Z@Z
    ??0?$RefPtr@VMainContext@Glib@@@Glib@@QEAA@PEAVMainContext@1@@Z
    ??C?$RefPtr@VMainContext@Glib@@@Glib@@QEBAPEAVMainContext@1@XZ
    ??B?$RefPtr@VMainContext@Glib@@@Glib@@QEBA_NXZ
    ?deallocate@?$allocator@VPollFD@Glib@@@std@@QEAAXQEAVPollFD@Glib@@_K@Z
    ?allocate@?$allocator@VPollFD@Glib@@@std@@QEAAPEAVPollFD@Glib@@_K@Z
    ?max_size@?$_Default_allocator_traits@V?$allocator@VPollFD@Glib@@@std@@@std@@SA_KAEBV?$allocator@VPollFD@Glib@@@2@@Z
    ?resize@?$vector@VPollFD@Glib@@V?$allocator@VPollFD@Glib@@@std@@@std@@QEAAX_K@Z
    ?empty@?$vector@VPollFD@Glib@@V?$allocator@VPollFD@Glib@@@std@@@std@@QEBA_NXZ
    ?size@?$vector@VPollFD@Glib@@V?$allocator@VPollFD@Glib@@@std@@@std@@QEBA_KXZ
    ?max_size@?$vector@VPollFD@Glib@@V?$allocator@VPollFD@Glib@@@std@@@std@@QEBA_KXZ
    ?capacity@?$vector@VPollFD@Glib@@V?$allocator@VPollFD@Glib@@@std@@@std@@QEBA_KXZ
    ?front@?$vector@VPollFD@Glib@@V?$allocator@VPollFD@Glib@@@std@@@std@@QEAAAEAVPollFD@Glib@@XZ
    ?_Calculate_growth@?$vector@VPollFD@Glib@@V?$allocator@VPollFD@Glib@@@std@@@std@@AEBA_K_K@Z
    ?_Change_array@?$vector@VPollFD@Glib@@V?$allocator@VPollFD@Glib@@@std@@@std@@AEAAXQEAVPollFD@Glib@@_K1@Z
    ?_Xlength@?$vector@VPollFD@Glib@@V?$allocator@VPollFD@Glib@@@std@@@std@@CAXXZ
    ?_Orphan_range_unlocked@?$vector@VPollFD@Glib@@V?$allocator@VPollFD@Glib@@@std@@@std@@AEBAXPEAVPollFD@Glib@@0@Z
    ?_Orphan_range_locked@?$vector@VPollFD@Glib@@V?$allocator@VPollFD@Glib@@@std@@@std@@AEBAXPEAVPollFD@Glib@@0@Z
    ?_Orphan_range@?$vector@VPollFD@Glib@@V?$allocator@VPollFD@Glib@@@std@@@std@@AEBAXPEAVPollFD@Glib@@0@Z
    ?_Getal@?$vector@VPollFD@Glib@@V?$allocator@VPollFD@Glib@@@std@@@std@@AEAAAEAV?$allocator@VPollFD@Glib@@@2@XZ
    ?_Getal@?$vector@VPollFD@Glib@@V?$allocator@VPollFD@Glib@@@std@@@std@@AEBAAEBV?$allocator@VPollFD@Glib@@@2@XZ
    ?_Get_first@?$_Compressed_pair@V?$allocator@VPollFD@Glib@@@std@@V?$_Vector_val@U?$_Simple_types@VPollFD@Glib@@@std@@@2@$00@std@@QEAAAEAV?$allocator@VPollFD@Glib@@@2@XZ
    ?_Get_first@?$_Compressed_pair@V?$allocator@VPollFD@Glib@@@std@@V?$_Vector_val@U?$_Simple_types@VPollFD@Glib@@@std@@@2@$00@std@@QEBAAEBV?$allocator@VPollFD@Glib@@@2@XZ
    ??0?$RefPtr@VMainLoop@Glib@@@Glib@@QEAA@PEAVMainLoop@1@@Z
    ??$unwrap@VMainContext@Glib@@@Glib@@YAPEAU_GMainContext@@AEBV?$RefPtr@VMainContext@Glib@@@0@@Z
    ??0?$RefPtr@VTimeoutSource@Glib@@@Glib@@QEAA@PEAVTimeoutSource@1@@Z
    ??$min@K@std@@YAAEBKAEBK0@Z
    ??$min@I@std@@YAAEBIAEBI0@Z
    ??0?$RefPtr@VIdleSource@Glib@@@Glib@@QEAA@PEAVIdleSource@1@@Z
    ??$function_pointer_cast@P6AHPEAX@ZP6AHPEAU_GIOChannel@@W4GIOCondition@@0@Z@Glib@@YAP6AHPEAX@ZP6AHPEAU_GIOChannel@@W4GIOCondition@@0@Z@Z
    ??$min@_K@std@@YAAEB_KAEB_K0@Z
    ??$function_pointer_cast@P6AXPEAUslot_rep@internal@sigc@@AEBQEAXAEBH@ZP6APEAXPEAX@Z@internal@sigc@@YAP6AXPEAUslot_rep@01@AEBQEAXAEBH@ZP6APEAXPEAX@Z@Z
    ??$function_pointer_cast@P6A_NPEAUslot_rep@internal@sigc@@AEBW4IOCondition@Glib@@@ZP6APEAXPEAX@Z@internal@sigc@@YAP6A_NPEAUslot_rep@01@AEBW4IOCondition@Glib@@@ZP6APEAXPEAX@Z@Z
    ??$function_pointer_cast@P6A_NPEAUslot_rep@internal@sigc@@@ZP6APEAXPEAX@Z@internal@sigc@@YAP6A_NPEAUslot_rep@01@@ZP6APEAXPEAX@Z@Z
    ?allocate@?$allocator@U_Container_proxy@std@@@std@@QEAAPEAU_Container_proxy@2@_K@Z
    ??$_Delete_plain_internal@V?$allocator@U_Container_proxy@std@@@std@@@std@@YAXAEAV?$allocator@U_Container_proxy@std@@@0@QEAU_Container_proxy@0@@Z
    ??$move@AEAPEBVSource@Glib@@@std@@YA$$QEAPEBVSource@Glib@@AEAPEBV12@@Z
    ??$addressof@Vmutex@std@@@std@@YAPEAVmutex@0@AEAV10@@Z
    ??$_Resize@U_Value_init_tag@std@@@?$vector@VPollFD@Glib@@V?$allocator@VPollFD@Glib@@@std@@@std@@AEAAX_KAEBU_Value_init_tag@1@@Z
    ??$_Convert_size@_K_K@std@@YA_K_K@Z
    ??$?0D@?$allocator@U_Container_proxy@std@@@std@@QEAA@AEBV?$allocator@D@1@@Z
    ??$?0$$V@?$_Compressed_pair@V?$allocator@D@std@@V?$_String_val@U?$_Simple_types@D@std@@@2@$00@std@@QEAA@U_Zero_then_variadic_args_t@1@@Z
    ??$_Construct@$00PEBD@?$basic_string@DU?$char_traits@D@std@@V?$allocator@D@2@@std@@AEAAXQEBD_K@Z
    ??$_Debug_lt_pred@AEBU?$less@PEBVSource@Glib@@@std@@AEBQEBVSource@Glib@@AEBQEBV34@@std@@YA_NAEBU?$less@PEBVSource@Glib@@@0@AEBQEBVSource@Glib@@1@Z
    ??$_Deallocate_plain@V?$allocator@U_Container_proxy@std@@@std@@@std@@YAXAEAV?$allocator@U_Container_proxy@std@@@0@QEAU_Container_proxy@0@@Z
    ??$forward@AEBQEBVSource@Glib@@@std@@YAAEBQEBVSource@Glib@@AEBQEBV12@@Z
    ??$forward_as_tuple@AEBQEBVSource@Glib@@@std@@YA?AV?$tuple@AEBQEBVSource@Glib@@@0@AEBQEBVSource@Glib@@@Z
    ??0?$tuple@AEBQEBVSource@Glib@@@std@@QEAA@$$QEAV01@@Z
    ??$forward_as_tuple@$$V@std@@YA?AV?$tuple@$$V@0@XZ
    ??$forward@PEBVSource@Glib@@@std@@YA$$QEAPEBVSource@Glib@@AEAPEBV12@@Z
    ??$forward_as_tuple@PEBVSource@Glib@@@std@@YA?AV?$tuple@$$QEAPEBVSource@Glib@@@0@$$QEAPEBVSource@Glib@@@Z
    ??0?$tuple@$$QEAPEBVSource@Glib@@@std@@QEAA@$$QEAV01@@Z
    ??$_Destroy_range@V?$allocator@VPollFD@Glib@@@std@@@std@@YAXPEAVPollFD@Glib@@QEAV12@AEAV?$allocator@VPollFD@Glib@@@0@@Z
    ??$_Resize_reallocate@U_Value_init_tag@std@@@?$vector@VPollFD@Glib@@V?$allocator@VPollFD@Glib@@@std@@@std@@AEAAX_KAEBU_Value_init_tag@1@@Z
    ??$_Uninitialized_value_construct_n@V?$allocator@VPollFD@Glib@@@std@@@std@@YAPEAVPollFD@Glib@@PEAV12@_KAEAV?$allocator@VPollFD@Glib@@@0@@Z
    ??0?$_Container_proxy_ptr12@V?$allocator@U_Container_proxy@std@@@std@@@std@@QEAA@AEAV?$allocator@U_Container_proxy@std@@@1@AEAU_Container_base12@1@@Z
    ??1?$_Container_proxy_ptr12@V?$allocator@U_Container_proxy@std@@@std@@@std@@QEAA@XZ
    ??$_Unfancy@U_Container_proxy@std@@@std@@YAPEAU_Container_proxy@0@PEAU10@@Z
    ??$_Construct_in_place@U_Container_proxy@std@@PEAU_Container_base12@2@@std@@YAXAEAU_Container_proxy@0@$$QEAPEAU_Container_base12@0@@Z
    ??$_Allocate_for_capacity@$0A@@?$basic_string@DU?$char_traits@D@std@@V?$allocator@D@2@@std@@CAPEADAEAV?$allocator@D@1@AEA_K@Z
    ??$_Construct_in_place@PEADAEBQEAD@std@@YAXAEAPEADAEBQEAD@Z
    ??$_Unfancy@D@std@@YAPEADPEAD@Z
    ??$max@_K@std@@YAAEB_KAEB_K0@Z
    ??$_Deallocate@$0BA@@std@@YAXPEAX_K@Z
    ?deallocate@?$_Default_allocator_traits@V?$allocator@U_Container_proxy@std@@@std@@@std@@SAXAEAV?$allocator@U_Container_proxy@std@@@2@QEAU_Container_proxy@2@_K@Z
    ??$forward@_N@std@@YA$$QEA_NAEA_N@Z
    ??$?0AEBQEBVSource@Glib@@$0A@@?$tuple@AEBQEBVSource@Glib@@@std@@QEAA@AEBQEBVSource@Glib@@@Z
    ??$forward@AEBUpiecewise_construct_t@std@@@std@@YAAEBUpiecewise_construct_t@0@AEBU10@@Z
    ??$forward@V?$tuple@AEBQEBVSource@Glib@@@std@@@std@@YA$$QEAV?$tuple@AEBQEBVSource@Glib@@@0@AEAV10@@Z
    ??$forward@V?$tuple@$$V@std@@@std@@YA$$QEAV?$tuple@$$V@0@AEAV10@@Z
    ??$?0PEBVSource@Glib@@$$V$0A@@?$tuple@$$QEAPEBVSource@Glib@@@std@@QEAA@$$QEAPEBVSource@Glib@@@Z
    ??$forward@V?$tuple@$$QEAPEBVSource@Glib@@@std@@@std@@YA$$QEAV?$tuple@$$QEAPEBVSource@Glib@@@0@AEAV10@@Z
    ??$_Allocate_at_least_helper@V?$allocator@VPollFD@Glib@@@std@@@std@@YAPEAVPollFD@Glib@@AEAV?$allocator@VPollFD@Glib@@@0@AEA_K@Z
    ??1_Reallocation_guard@?$vector@VPollFD@Glib@@V?$allocator@VPollFD@Glib@@@std@@@std@@QEAA@XZ
    ??$_Uninitialized_move@PEAVPollFD@Glib@@V?$allocator@VPollFD@Glib@@@std@@@std@@YAPEAVPollFD@Glib@@QEAV12@0PEAV12@AEAV?$allocator@VPollFD@Glib@@@0@@Z
    ??0?$_Uninitialized_backout_al@V?$allocator@VPollFD@Glib@@@std@@@std@@QEAA@PEAVPollFD@Glib@@AEAV?$allocator@VPollFD@Glib@@@1@@Z
    ??1?$_Uninitialized_backout_al@V?$allocator@VPollFD@Glib@@@std@@@std@@QEAA@XZ
    ?_Release@?$_Uninitialized_backout_al@V?$allocator@VPollFD@Glib@@@std@@@std@@QEAAPEAVPollFD@Glib@@XZ
    ??$_Emplace_back@$$V@?$_Uninitialized_backout_al@V?$allocator@VPollFD@Glib@@@std@@@std@@QEAAXXZ
    ??$swap@D$0A@@std@@YAXAEAD0@Z
    ??$addressof@U_Container_proxy@std@@@std@@YAPEAU_Container_proxy@0@AEAU10@@Z
    ??$forward@PEAU_Container_base12@std@@@std@@YA$$QEAPEAU_Container_base12@0@AEAPEAU10@@Z
    ??$_Allocate_at_least_helper@V?$allocator@D@std@@@std@@YAPEADAEAV?$allocator@D@0@AEA_K@Z
    ??$addressof@PEAD@std@@YAPEAPEADAEAPEAD@Z
    ??$forward@AEBQEAD@std@@YAAEBQEADAEBQEAD@Z
    ??$forward@AEBU?$less@PEBVSource@Glib@@@std@@@std@@YAAEBU?$less@PEBVSource@Glib@@@0@AEBU10@@Z
    ??$forward@U_Zero_then_variadic_args_t@std@@@std@@YA$$QEAU_Zero_then_variadic_args_t@0@AEAU10@@Z
    ??$addressof@U_Container_base12@std@@@std@@YAPEAU_Container_base12@0@AEAU10@@Z
    ??$_Get_size_of_n@$0BA@@std@@YA_K_K@Z
    ??$_Allocate@$0BA@U_Default_allocate_traits@std@@@std@@YAPEAX_K@Z
    ??$_Destroy_in_place@PEAD@std@@YAXAEAPEAD@Z
    ??$_Max_limit@_J@std@@YA_JXZ
    ??$?0U_Exact_args_t@std@@AEBQEBVSource@Glib@@$$V$0A@@?$tuple@AEBQEBVSource@Glib@@@std@@QEAA@U_Exact_args_t@1@AEBQEBVSource@Glib@@@Z
    ??$?0U_Exact_args_t@std@@PEBVSource@Glib@@$$V$0A@@?$tuple@$$QEAPEBVSource@Glib@@@std@@QEAA@U_Exact_args_t@1@$$QEAPEBVSource@Glib@@@Z
    ??$_Get_unwrapped@AEBQEAVPollFD@Glib@@@std@@YA?A_TAEBQEAVPollFD@Glib@@@Z
    ??$move@AEAVPollFD@Glib@@@std@@YA$$QEAVPollFD@Glib@@AEAV12@@Z
    ??$_Unfancy@VPollFD@Glib@@@std@@YAPEAVPollFD@Glib@@PEAV12@@Z
    ??$_Copy_memmove@PEAVPollFD@Glib@@PEAV12@@std@@YAPEAVPollFD@Glib@@PEAV12@00@Z
    ??$_Emplace_back@VPollFD@Glib@@@?$_Uninitialized_backout_al@V?$allocator@VPollFD@Glib@@@std@@@std@@QEAAX$$QEAVPollFD@Glib@@@Z
    ??$construct@VPollFD@Glib@@$$V@?$_Default_allocator_traits@V?$allocator@VPollFD@Glib@@@std@@@std@@SAXAEAV?$allocator@VPollFD@Glib@@@1@QEAVPollFD@Glib@@@Z
    ??$move@AEAD@std@@YA$$QEADAEAD@Z
    ??$_Allocate_manually_vector_aligned@U_Default_allocate_traits@std@@@std@@YAPEAX_K@Z
    ??$?0U_Exact_args_t@std@@$0A@@?$tuple@$$V@std@@QEAA@U_Exact_args_t@1@@Z
    ??$?0AEBQEBVSource@Glib@@@?$_Tuple_val@AEBQEBVSource@Glib@@@std@@QEAA@AEBQEBVSource@Glib@@@Z
    ??$?0PEBVSource@Glib@@@?$_Tuple_val@$$QEAPEBVSource@Glib@@@std@@QEAA@$$QEAPEBVSource@Glib@@@Z
    ??$_To_address@PEAVPollFD@Glib@@@std@@YA?A_PAEBQEAVPollFD@Glib@@@Z
    ??$move@AEAPEAVPollFD@Glib@@@std@@YA$$QEAPEAVPollFD@Glib@@AEAPEAV12@@Z
    ??$_Copy_memmove_tail@PEAVPollFD@Glib@@@std@@YAPEAVPollFD@Glib@@QEBDQEAV12@_K2@Z
    ??$forward@VPollFD@Glib@@@std@@YA$$QEAVPollFD@Glib@@AEAV12@@Z
    ??$construct@VPollFD@Glib@@V12@@?$_Default_allocator_traits@V?$allocator@VPollFD@Glib@@@std@@@std@@SAXAEAV?$allocator@VPollFD@Glib@@@1@QEAVPollFD@Glib@@$$QEAV34@@Z
    ??$_Get_size_of_n@$0DA@@std@@YA_K_K@Z
    ??$_Get_size_of_n@$00@std@@YA_K_K@Z
    ??$move@AEAV?$tuple@AEBQEBVSource@Glib@@@std@@@std@@YA$$QEAV?$tuple@AEBQEBVSource@Glib@@@0@AEAV10@@Z
    ??$_Tuple_get@$0A@AEBQEBVSource@Glib@@@std@@YA$$QEA_P$$QEAV?$tuple@AEBQEBVSource@Glib@@@0@@Z
    ??$move@AEAV?$tuple@$$QEAPEBVSource@Glib@@@std@@@std@@YA$$QEAV?$tuple@$$QEAPEBVSource@Glib@@@0@AEAV10@@Z
    ??$_Tuple_get@$0A@$$QEAPEBVSource@Glib@@@std@@YA$$QEA_P$$QEAV?$tuple@$$QEAPEBVSource@Glib@@@0@@Z
    ??_7exception@std@@6B@
    ??_C@_0BC@EOODALEL@Unknown?5exception@
    ??_7bad_alloc@std@@6B@
    ??_7bad_array_new_length@std@@6B@
    ??_C@_0BF@KINCDENJ@bad?5array?5new?5length@
    ??_R0?AVexception@std@@@8
    _CT??_R0?AVexception@std@@@8??0exception@std@@QEAA@AEBV01@@Z24
    _TI3?AVbad_array_new_length@std@@
    _CTA3?AVbad_array_new_length@std@@
    ??_R0?AVbad_array_new_length@std@@@8
    _CT??_R0?AVbad_array_new_length@std@@@8??0bad_array_new_length@std@@QEAA@AEBV01@@Z24
    ??_R0?AVbad_alloc@std@@@8
    _CT??_R0?AVbad_alloc@std@@@8??0bad_alloc@std@@QEAA@AEBV01@@Z24
    ??_C@_0BB@FCMFBGOM@invalid?5argument@
    ??_C@_02DKCKIIND@?$CFs@
    ??_C@_0GC@KLECFGLI@C?3?2Program?5Files?2Microsoft?5Visu@
    ??_C@_0BA@JFNIOLAK@string?5too?5long@
    ??_7runtime_error@std@@6B@
    ??_R0?AVruntime_error@std@@@8
    _CT??_R0?AVruntime_error@std@@@8??0runtime_error@std@@QEAA@AEBV01@@Z24
    ??_7_System_error@std@@6B@
    ??_7system_error@std@@6B@
    _TI4?AVsystem_error@std@@
    _CTA4?AVsystem_error@std@@
    ??_R0?AVsystem_error@std@@@8
    _CT??_R0?AVsystem_error@std@@@8??0system_error@std@@QEAA@AEBV01@@Z40
    ??_R0?AV_System_error@std@@@8
    _CT??_R0?AV_System_error@std@@@8??0_System_error@std@@QEAA@AEBV01@@Z40
    ??_7_Generic_error_category@std@@6B@
    ??_C@_07DCLBNMLN@generic@
    ??_7Source@Glib@@6B@
    ??_7TimeoutSource@Glib@@6B@
    ??_7IdleSource@Glib@@6B@
    ??_7IOSource@Glib@@6B@
    ??_C@_0BB@GCADKGJO@map?1set?5too?5long@
    ?_Static@?1???$_Immortalize_memcpy_image@V_Generic_error_category@std@@@std@@YAAEBV_Generic_error_category@1@XZ@4U?$_Constexpr_immortalize_impl@V_Generic_error_category@std@@@1@A
    ??_C@_0GD@GOKHNLI@C?3?2Program?5Files?2Microsoft?5Visu@
    ??_C@_0BP@KGLJJIBC@front?$CI?$CJ?5called?5on?5empty?5vector@
    ??_C@_0GB@KEIPDMDC@C?3?2Program?5Files?2Microsoft?5Visu@
    ??_C@_0DG@KGHKKGBC@null?5pointer?5cannot?5point?5to?5a?5@
    ??_C@_0BD@FEEMDEPI@invalid?5comparator@
    ??_C@_0BA@FOIKENOD@vector?5too?5long@
    ??_R4exception@std@@6B@
    ??_R3exception@std@@8
    ??_R2exception@std@@8
    ??_R1A@?0A@EA@exception@std@@8
    ??_R4bad_array_new_length@std@@6B@
    ??_R3bad_array_new_length@std@@8
    ??_R2bad_array_new_length@std@@8
    ??_R1A@?0A@EA@bad_array_new_length@std@@8
    ??_R1A@?0A@EA@bad_alloc@std@@8
    ??_R3bad_alloc@std@@8
    ??_R2bad_alloc@std@@8
    ??_R4bad_alloc@std@@6B@
    ??_R4runtime_error@std@@6B@
    ??_R3runtime_error@std@@8
    ??_R2runtime_error@std@@8
    ??_R1A@?0A@EA@runtime_error@std@@8
    ??_R0?AVerror_category@std@@@8
    ??_R3error_category@std@@8
    ??_R2error_category@std@@8
    ??_R1A@?0A@EA@error_category@std@@8
    ??_R4_System_error@std@@6B@
    ??_R3_System_error@std@@8
    ??_R2_System_error@std@@8
    ??_R1A@?0A@EA@_System_error@std@@8
    ??_R4system_error@std@@6B@
    ??_R3system_error@std@@8
    ??_R2system_error@std@@8
    ??_R1A@?0A@EA@system_error@std@@8
    ??_R4_Generic_error_category@std@@6B@
    ??_R0?AV_Generic_error_category@std@@@8
    ??_R3_Generic_error_category@std@@8
    ??_R2_Generic_error_category@std@@8
    ??_R1A@?0A@EA@_Generic_error_category@std@@8
    ??_R4Source@Glib@@6B@
    ??_R0?AVSource@Glib@@@8
    ??_R3Source@Glib@@8
    ??_R2Source@Glib@@8
    ??_R1A@?0A@EA@Source@Glib@@8
    ??_R4IOSource@Glib@@6B@
    ??_R0?AVIOSource@Glib@@@8
    ??_R3IOSource@Glib@@8
    ??_R2IOSource@Glib@@8
    ??_R1A@?0A@EA@IOSource@Glib@@8
    ??_R4TimeoutSource@Glib@@6B@
    ??_R0?AVTimeoutSource@Glib@@@8
    ??_R3TimeoutSource@Glib@@8
    ??_R2TimeoutSource@Glib@@8
    ??_R1A@?0A@EA@TimeoutSource@Glib@@8
    ??_R4IdleSource@Glib@@6B@
    ??_R0?AVIdleSource@Glib@@@8
    ??_R3IdleSource@Glib@@8
    ??_R2IdleSource@Glib@@8
    ??_R1A@?0A@EA@IdleSource@Glib@@8
    ?vfunc_table@ParserCallbacks@Markup@Glib@@2U_GMarkupParser@@B
    ?start_element@ParserCallbacks@Markup@Glib@@SAXPEAU_GMarkupParseContext@@PEBDPEAPEBD2PEAXPEAPEAU_GError@@@Z
    ?end_element@ParserCallbacks@Markup@Glib@@SAXPEAU_GMarkupParseContext@@PEBDPEAXPEAPEAU_GError@@@Z
    ?text@ParserCallbacks@Markup@Glib@@SAXPEAU_GMarkupParseContext@@PEBD_KPEAXPEAPEAU_GError@@@Z
    ?passthrough@ParserCallbacks@Markup@Glib@@SAXPEAU_GMarkupParseContext@@PEBD_KPEAXPEAPEAU_GError@@@Z
    ?error@ParserCallbacks@Markup@Glib@@SAXPEAU_GMarkupParseContext@@PEAU_GError@@PEAX@Z
    ?__empty_global_delete@@YAXPEAX@Z
    ?__empty_global_delete@@YAXPEAX_K@Z
    ??2@YAPEAX_KPEAX@Z
    ??0exception@std@@QEAA@QEBDH@Z
    ??0exception@std@@QEAA@AEBV01@@Z
    ??1exception@std@@UEAA@XZ
    ?what@exception@std@@UEBAPEBDXZ
    ??0bad_alloc@std@@AEAA@QEBD@Z
    ??1bad_alloc@std@@UEAA@XZ
    ??0bad_alloc@std@@QEAA@AEBV01@@Z
    ??0bad_array_new_length@std@@QEAA@XZ
    ??1bad_array_new_length@std@@UEAA@XZ
    ??0bad_array_new_length@std@@QEAA@AEBV01@@Z
    ?copy@?$_Char_traits@DH@std@@SAPEADQEADQEBD_K@Z
    ?compare@?$_Narrow_char_traits@DH@std@@SAHQEBD0_K@Z
    ?assign@?$_Narrow_char_traits@DH@std@@SAXAEADAEBD@Z
    ?_Throw_bad_array_new_length@std@@YAXXZ
    ?_Allocate@_Default_allocate_traits@std@@SAPEAX_K@Z
    ?_Adjust_manually_vector_aligned@std@@YAXAEAPEAXAEA_K@Z
    ??0_Container_proxy@std@@QEAA@PEAU_Container_base12@1@@Z
    ??0_Container_base12@std@@QEAA@XZ
    ?_Orphan_all@_Container_base12@std@@QEAAXXZ
    ?_Swap_proxy_and_iterators@_Container_base12@std@@QEAAXAEAU12@@Z
    ?_Orphan_all_unlocked_v3@_Container_base12@std@@AEAAXXZ
    ?_Swap_proxy_and_iterators_unlocked@_Container_base12@std@@AEAAXAEAU12@@Z
    ?_Orphan_all_locked_v3@_Container_base12@std@@AEAAXXZ
    ?_Swap_proxy_and_iterators_locked@_Container_base12@std@@AEAAXAEAU12@@Z
    ??0_Iterator_base12@std@@QEAA@XZ
    ??0_Iterator_base12@std@@QEAA@AEBU01@@Z
    ??4_Iterator_base12@std@@QEAAAEAU01@AEBU01@@Z
    ??1_Iterator_base12@std@@QEAA@XZ
    ?_Adopt@_Iterator_base12@std@@QEAAXPEBU_Container_base12@2@@Z
    ?_Assign_unlocked@_Iterator_base12@std@@AEAAXAEBU12@@Z
    ?_Assign_locked@_Iterator_base12@std@@AEAAXAEBU12@@Z
    ?_Adopt_unlocked@_Iterator_base12@std@@AEAAXPEBU_Container_base12@2@@Z
    ?_Adopt_locked@_Iterator_base12@std@@AEAAXPEBU_Container_base12@2@@Z
    ?_Orphan_me_unlocked_v3@_Iterator_base12@std@@AEAAXXZ
    ?_Orphan_me_locked_v3@_Iterator_base12@std@@AEAAXXZ
    ??$exchange@PEAU_Iterator_base12@std@@$$T@std@@YAPEAU_Iterator_base12@0@AEAPEAU10@$$QEA$$T@Z
    ?_Release@_Basic_container_proxy_ptr12@std@@QEAAXXZ
    ??0_Basic_container_proxy_ptr12@std@@IEAA@XZ
    ?_Xlen_string@std@@YAXXZ
    ??0?$allocator@D@std@@QEAA@XZ
    ?deallocate@?$allocator@D@std@@QEAAXQEAD_K@Z
    ?allocate@?$allocator@D@std@@QEAAPEAD_K@Z
    ?max_size@?$_Default_allocator_traits@V?$allocator@D@std@@@std@@SA_KAEBV?$allocator@D@2@@Z
    ??0?$_String_val@U?$_Simple_types@D@std@@@std@@QEAA@XZ
    ?_Myptr@?$_String_val@U?$_Simple_types@D@std@@@std@@QEBAPEBDXZ
    ?_Large_mode_engaged@?$_String_val@U?$_Simple_types@D@std@@@std@@QEBA_NXZ
    ?_Activate_SSO_buffer@?$_String_val@U?$_Simple_types@D@std@@@std@@QEAAXXZ
    ??0_Bxty@?$_String_val@U?$_Simple_types@D@std@@@std@@QEAA@XZ
    ??1_Bxty@?$_String_val@U?$_Simple_types@D@std@@@std@@QEAA@XZ
    ?_Switch_to_buf@_Bxty@?$_String_val@U?$_Simple_types@D@std@@@std@@QEAAXXZ
    ??1?$_String_val@U?$_Simple_types@D@std@@@std@@QEAA@XZ
    ?_Deallocate_for_capacity@?$basic_string@DU?$char_traits@D@std@@V?$allocator@D@2@@std@@CAXAEAV?$allocator@D@2@QEAD_K@Z
    ?_Construct_empty@?$basic_string@DU?$char_traits@D@std@@V?$allocator@D@2@@std@@AEAAXXZ
    ??0?$basic_string@DU?$char_traits@D@std@@V?$allocator@D@2@@std@@QEAA@$$QEAV01@@Z
    ?_Take_contents@?$basic_string@DU?$char_traits@D@std@@V?$allocator@D@2@@std@@AEAAXAEAV12@@Z
    ??1?$basic_string@DU?$char_traits@D@std@@V?$allocator@D@2@@std@@QEAA@XZ
    ?max_size@?$basic_string@DU?$char_traits@D@std@@V?$allocator@D@2@@std@@QEBA_KXZ
    ?compare@?$basic_string@DU?$char_traits@D@std@@V?$allocator@D@2@@std@@QEBAHAEBV12@@Z
    ?_Calculate_growth@?$basic_string@DU?$char_traits@D@std@@V?$allocator@D@2@@std@@CA_K_K00@Z
    ?_Tidy_deallocate@?$basic_string@DU?$char_traits@D@std@@V?$allocator@D@2@@std@@AEAAXXZ
    ?_Swap_proxy_and_iterators@?$basic_string@DU?$char_traits@D@std@@V?$allocator@D@2@@std@@AEAAXAEAV12@@Z
    ?_Getal@?$basic_string@DU?$char_traits@D@std@@V?$allocator@D@2@@std@@AEAAAEAV?$allocator@D@2@XZ
    ?_Getal@?$basic_string@DU?$char_traits@D@std@@V?$allocator@D@2@@std@@AEBAAEBV?$allocator@D@2@XZ
    ?_Get_first@?$_Compressed_pair@V?$allocator@D@std@@V?$_String_val@U?$_Simple_types@D@std@@@2@$00@std@@QEAAAEAV?$allocator@D@2@XZ
    ?_Get_first@?$_Compressed_pair@V?$allocator@D@std@@V?$_String_val@U?$_Simple_types@D@std@@@2@$00@std@@QEBAAEBV?$allocator@D@2@XZ
    ??1?$_Compressed_pair@V?$allocator@D@std@@V?$_String_val@U?$_Simple_types@D@std@@@2@$00@std@@QEAA@XZ
    ??$_Adl_verify_range@PEBDPEBD@std@@YAXAEBQEBD0@Z
    ?raw@ustring@Glib@@QEBAAEBV?$basic_string@DU?$char_traits@D@std@@V?$allocator@D@2@@std@@XZ
    ??0Exception@Glib@@QEAA@AEBV01@@Z
    ?_Throw_tree_length_error@std@@YAXXZ
    ?convert_const_gchar_ptr_to_ustring@Glib@@YA?AVustring@1@PEBD@Z
    ??$make_unique_ptr_gfree@D@Glib@@YA?AV?$unique_ptr@$$BY0A@DP6AXPEAX@Z@std@@PEAD@Z
    ??1?$unique_ptr@$$BY0A@DP6AXPEAX@Z@std@@QEAA@XZ
    ?get_deleter@?$unique_ptr@$$BY0A@DP6AXPEAX@Z@std@@QEAAAEAP6AXPEAX@ZXZ
    ?get@?$unique_ptr@$$BY0A@DP6AXPEAX@Z@std@@QEBAPEADXZ
    ?release@?$unique_ptr@$$BY0A@DP6AXPEAX@Z@std@@QEAAPEADXZ
    ?_Get_first@?$_Compressed_pair@P6AXPEAX@ZPEAD$0A@@std@@QEAAAEAP6AXPEAX@ZXZ
    ??0MarkupError@Glib@@QEAA@W4Code@01@AEBVustring@1@@Z
    ??0MarkupError@Glib@@QEAA@PEAU_GError@@@Z
    ?code@MarkupError@Glib@@QEBA?AW4Code@12@XZ
    ?throw_func@MarkupError@Glib@@CAXPEAU_GError@@@Z
    ??1MarkupError@Glib@@UEAA@XZ
    ??0MarkupError@Glib@@QEAA@AEBV01@@Z
    ?escape_text@Markup@Glib@@YA?AVustring@2@AEBV32@@Z
    ??RAttributeKeyLess@Markup@Glib@@QEBA_NAEBVustring@2@0@Z
    ??1Parser@Markup@Glib@@UEAA@XZ
    ??0Parser@Markup@Glib@@IEAA@XZ
    ??0Parser@Markup@Glib@@IEAA@$$QEAV012@@Z
    ??4Parser@Markup@Glib@@IEAAAEAV012@$$QEAV012@@Z
    ?on_start_element@Parser@Markup@Glib@@MEAAXAEAVParseContext@23@AEBVustring@3@AEBV?$map@Vustring@Glib@@V12@VAttributeKeyLess@Markup@2@V?$allocator@U?$pair@$$CBVustring@Glib@@V12@@std@@@std@@@std@@@Z
    ?on_end_element@Parser@Markup@Glib@@MEAAXAEAVParseContext@23@AEBVustring@3@@Z
    ?on_text@Parser@Markup@Glib@@MEAAXAEAVParseContext@23@AEBVustring@3@@Z
    ?on_passthrough@Parser@Markup@Glib@@MEAAXAEAVParseContext@23@AEBVustring@3@@Z
    ?on_error@Parser@Markup@Glib@@MEAAXAEAVParseContext@23@AEBVMarkupError@3@@Z
    ??0ParseContext@Markup@Glib@@QEAA@AEAVParser@12@W4ParseFlags@12@@Z
    ??0ParseContext@Markup@Glib@@QEAA@$$QEAV012@@Z
    ??4ParseContext@Markup@Glib@@QEAAAEAV012@$$QEAV012@@Z
    ??1ParseContext@Markup@Glib@@UEAA@XZ
    ?parse@ParseContext@Markup@Glib@@QEAAXAEBVustring@3@@Z
    ?parse@ParseContext@Markup@Glib@@QEAAXPEBD0@Z
    ?end_parse@ParseContext@Markup@Glib@@QEAAXXZ
    ?get_element@ParseContext@Markup@Glib@@QEBA?AVustring@3@XZ
    ?get_line_number@ParseContext@Markup@Glib@@QEBAHXZ
    ?get_char_number@ParseContext@Markup@Glib@@QEBAHXZ
    ?get_parser@ParseContext@Markup@Glib@@QEAAPEAVParser@23@XZ
    ?gobj@ParseContext@Markup@Glib@@QEAAPEAU_GMarkupParseContext@@XZ
    ?destroy_notify_callback@ParseContext@Markup@Glib@@CAXPEAX@Z
    ??$?0P6AXPEAX@Z$0A@@?$unique_ptr@$$BY0A@DP6AXPEAX@Z@std@@QEAA@$$QEAV01@@Z
    ??$?MDU?$char_traits@D@std@@V?$allocator@D@1@@std@@YA_NAEBV?$basic_string@DU?$char_traits@D@std@@V?$allocator@D@2@@0@0@Z
    ??0?$allocator@U?$_Tree_node@U?$pair@$$CBVustring@Glib@@V12@@std@@PEAX@std@@@std@@QEAA@XZ
    ?deallocate@?$allocator@U?$_Tree_node@U?$pair@$$CBVustring@Glib@@V12@@std@@PEAX@std@@@std@@QEAAXQEAU?$_Tree_node@U?$pair@$$CBVustring@Glib@@V12@@std@@PEAX@2@_K@Z
    ?allocate@?$allocator@U?$_Tree_node@U?$pair@$$CBVustring@Glib@@V12@@std@@PEAX@std@@@std@@QEAAPEAU?$_Tree_node@U?$pair@$$CBVustring@Glib@@V12@@std@@PEAX@2@_K@Z
    ?deallocate@?$_Default_allocator_traits@V?$allocator@U?$_Tree_node@U?$pair@$$CBVustring@Glib@@V12@@std@@PEAX@std@@@std@@@std@@SAXAEAV?$allocator@U?$_Tree_node@U?$pair@$$CBVustring@Glib@@V12@@std@@PEAX@std@@@2@QEAU?$_Tree_node@U?$pair@$$CBVustring@Glib@@V12@@std@@PEAX@2@_K@Z
    ?max_size@?$_Default_allocator_traits@V?$allocator@U?$_Tree_node@U?$pair@$$CBVustring@Glib@@V12@@std@@PEAX@std@@@std@@@std@@SA_KAEBV?$allocator@U?$_Tree_node@U?$pair@$$CBVustring@Glib@@V12@@std@@PEAX@std@@@2@@Z
    ??0?$_Tree@V?$_Tmap_traits@Vustring@Glib@@V12@VAttributeKeyLess@Markup@2@V?$allocator@U?$pair@$$CBVustring@Glib@@V12@@std@@@std@@$0A@@std@@@std@@QEAA@AEBVAttributeKeyLess@Markup@Glib@@@Z
    ??1?$_Tree@V?$_Tmap_traits@Vustring@Glib@@V12@VAttributeKeyLess@Markup@2@V?$allocator@U?$pair@$$CBVustring@Glib@@V12@@std@@@std@@$0A@@std@@@std@@QEAA@XZ
    ?max_size@?$_Tree@V?$_Tmap_traits@Vustring@Glib@@V12@VAttributeKeyLess@Markup@2@V?$allocator@U?$pair@$$CBVustring@Glib@@V12@@std@@@std@@$0A@@std@@@std@@QEBA_KXZ
    ?_Check_grow_by_1@?$_Tree@V?$_Tmap_traits@Vustring@Glib@@V12@VAttributeKeyLess@Markup@2@V?$allocator@U?$pair@$$CBVustring@Glib@@V12@@std@@@std@@$0A@@std@@@std@@IEAAXXZ
    ?_Alloc_sentinel_and_proxy@?$_Tree@V?$_Tmap_traits@Vustring@Glib@@V12@VAttributeKeyLess@Markup@2@V?$allocator@U?$pair@$$CBVustring@Glib@@V12@@std@@@std@@$0A@@std@@@std@@IEAAXXZ
    ?_Getcomp@?$_Tree@V?$_Tmap_traits@Vustring@Glib@@V12@VAttributeKeyLess@Markup@2@V?$allocator@U?$pair@$$CBVustring@Glib@@V12@@std@@@std@@$0A@@std@@@std@@IEBAAEBVAttributeKeyLess@Markup@Glib@@XZ
    ?_Getal@?$_Tree@V?$_Tmap_traits@Vustring@Glib@@V12@VAttributeKeyLess@Markup@2@V?$allocator@U?$pair@$$CBVustring@Glib@@V12@@std@@@std@@$0A@@std@@@std@@IEAAAEAV?$allocator@U?$_Tree_node@U?$pair@$$CBVustring@Glib@@V12@@std@@PEAX@std@@@2@XZ
    ?_Getal@?$_Tree@V?$_Tmap_traits@Vustring@Glib@@V12@VAttributeKeyLess@Markup@2@V?$allocator@U?$pair@$$CBVustring@Glib@@V12@@std@@@std@@$0A@@std@@@std@@IEBAAEBV?$allocator@U?$_Tree_node@U?$pair@$$CBVustring@Glib@@V12@@std@@PEAX@std@@@2@XZ
    ?_Get_scary@?$_Tree@V?$_Tmap_traits@Vustring@Glib@@V12@VAttributeKeyLess@Markup@2@V?$allocator@U?$pair@$$CBVustring@Glib@@V12@@std@@@std@@$0A@@std@@@std@@IEAAPEAV?$_Tree_val@U?$_Tree_simple_types@U?$pair@$$CBVustring@Glib@@V12@@std@@@std@@@2@XZ
    ?_Get_scary@?$_Tree@V?$_Tmap_traits@Vustring@Glib@@V12@VAttributeKeyLess@Markup@2@V?$allocator@U?$pair@$$CBVustring@Glib@@V12@@std@@@std@@$0A@@std@@@std@@IEBAPEBV?$_Tree_val@U?$_Tree_simple_types@U?$pair@$$CBVustring@Glib@@V12@@std@@@std@@@2@XZ
    ??0?$_Tree_val@U?$_Tree_simple_types@U?$pair@$$CBVustring@Glib@@V12@@std@@@std@@@std@@QEAA@XZ
    ?_Lrotate@?$_Tree_val@U?$_Tree_simple_types@U?$pair@$$CBVustring@Glib@@V12@@std@@@std@@@std@@QEAAXPEAU?$_Tree_node@U?$pair@$$CBVustring@Glib@@V12@@std@@PEAX@2@@Z
    ?_Rrotate@?$_Tree_val@U?$_Tree_simple_types@U?$pair@$$CBVustring@Glib@@V12@@std@@@std@@@std@@QEAAXPEAU?$_Tree_node@U?$pair@$$CBVustring@Glib@@V12@@std@@PEAX@2@@Z
    ?_Insert_node@?$_Tree_val@U?$_Tree_simple_types@U?$pair@$$CBVustring@Glib@@V12@@std@@@std@@@std@@QEAAPEAU?$_Tree_node@U?$pair@$$CBVustring@Glib@@V12@@std@@PEAX@2@U?$_Tree_id@PEAU?$_Tree_node@U?$pair@$$CBVustring@Glib@@V12@@std@@PEAX@std@@@2@QEAU32@@Z
    ?_Get_first@?$_Compressed_pair@V?$allocator@U?$_Tree_node@U?$pair@$$CBVustring@Glib@@V12@@std@@PEAX@std@@@std@@V?$_Tree_val@U?$_Tree_simple_types@U?$pair@$$CBVustring@Glib@@V12@@std@@@std@@@2@$00@std@@QEAAAEAV?$allocator@U?$_Tree_node@U?$pair@$$CBVustring@Glib@@V12@@std@@PEAX@std@@@2@XZ
    ?_Get_first@?$_Compressed_pair@V?$allocator@U?$_Tree_node@U?$pair@$$CBVustring@Glib@@V12@@std@@PEAX@std@@@std@@V?$_Tree_val@U?$_Tree_simple_types@U?$pair@$$CBVustring@Glib@@V12@@std@@@std@@@2@$00@std@@QEBAAEBV?$allocator@U?$_Tree_node@U?$pair@$$CBVustring@Glib@@V12@@std@@PEAX@std@@@2@XZ
    ?_Get_first@?$_Compressed_pair@VAttributeKeyLess@Markup@Glib@@V?$_Compressed_pair@V?$allocator@U?$_Tree_node@U?$pair@$$CBVustring@Glib@@V12@@std@@PEAX@std@@@std@@V?$_Tree_val@U?$_Tree_simple_types@U?$pair@$$CBVustring@Glib@@V12@@std@@@std@@@2@$00@std@@$00@std@@QEBAAEBVAttributeKeyLess@Markup@Glib@@XZ
    ??0?$map@Vustring@Glib@@V12@VAttributeKeyLess@Markup@2@V?$allocator@U?$pair@$$CBVustring@Glib@@V12@@std@@@std@@@std@@QEAA@XZ
    ??1?$map@Vustring@Glib@@V12@VAttributeKeyLess@Markup@2@V?$allocator@U?$pair@$$CBVustring@Glib@@V12@@std@@@std@@@std@@QEAA@XZ
    ??0?$pair@$$CBVustring@Glib@@V12@@std@@QEAA@$$QEAU01@@Z
    ??1?$pair@$$CBVustring@Glib@@V12@@std@@QEAA@XZ
    ??$?0AEBQEBDAEBQEBD$0A@@?$pair@$$CBVustring@Glib@@V12@@std@@QEAA@AEBQEBD0@Z
    ??$insert@$0A@$0A@@?$_Tree@V?$_Tmap_traits@Vustring@Glib@@V12@VAttributeKeyLess@Markup@2@V?$allocator@U?$pair@$$CBVustring@Glib@@V12@@std@@@std@@$0A@@std@@@std@@QEAA?AU?$pair@V?$_Tree_iterator@V?$_Tree_val@U?$_Tree_simple_types@U?$pair@$$CBVustring@Glib@@V12@@std@@@std@@@std@@@std@@_N@1@$$QEAU?$pair@$$CBVustring@Glib@@V12@@1@@Z
    ??0?$_Tree_unchecked_const_iterator@V?$_Tree_val@U?$_Tree_simple_types@U?$pair@$$CBVustring@Glib@@V12@@std@@@std@@@std@@U_Iterator_base12@2@@std@@QEAA@PEAU?$_Tree_node@U?$pair@$$CBVustring@Glib@@V12@@std@@PEAX@1@PEBV?$_Tree_val@U?$_Tree_simple_types@U?$pair@$$CBVustring@Glib@@V12@@std@@@std@@@1@@Z
    ??1?$_Tree_unchecked_const_iterator@V?$_Tree_val@U?$_Tree_simple_types@U?$pair@$$CBVustring@Glib@@V12@@std@@@std@@@std@@U_Iterator_base12@2@@std@@QEAA@XZ
    ??0?$_Tree_unchecked_const_iterator@V?$_Tree_val@U?$_Tree_simple_types@U?$pair@$$CBVustring@Glib@@V12@@std@@@std@@@std@@U_Iterator_base12@2@@std@@QEAA@$$QEAV01@@Z
    ??1?$_Tree_const_iterator@V?$_Tree_val@U?$_Tree_simple_types@U?$pair@$$CBVustring@Glib@@V12@@std@@@std@@@std@@@std@@QEAA@XZ
    ??0?$_Tree_const_iterator@V?$_Tree_val@U?$_Tree_simple_types@U?$pair@$$CBVustring@Glib@@V12@@std@@@std@@@std@@@std@@QEAA@$$QEAV01@@Z
    ??0?$_Tree_const_iterator@V?$_Tree_val@U?$_Tree_simple_types@U?$pair@$$CBVustring@Glib@@V12@@std@@@std@@@std@@@std@@QEAA@PEAU?$_Tree_node@U?$pair@$$CBVustring@Glib@@V12@@std@@PEAX@1@PEBV?$_Tree_val@U?$_Tree_simple_types@U?$pair@$$CBVustring@Glib@@V12@@std@@@std@@@1@@Z
    ??1?$_Tree_iterator@V?$_Tree_val@U?$_Tree_simple_types@U?$pair@$$CBVustring@Glib@@V12@@std@@@std@@@std@@@std@@QEAA@XZ
    ??0?$_Tree_iterator@V?$_Tree_val@U?$_Tree_simple_types@U?$pair@$$CBVustring@Glib@@V12@@std@@@std@@@std@@@std@@QEAA@$$QEAV01@@Z
    ??0?$_Tree_iterator@V?$_Tree_val@U?$_Tree_simple_types@U?$pair@$$CBVustring@Glib@@V12@@std@@@std@@@std@@@std@@QEAA@PEAU?$_Tree_node@U?$pair@$$CBVustring@Glib@@V12@@std@@PEAX@1@PEBV?$_Tree_val@U?$_Tree_simple_types@U?$pair@$$CBVustring@Glib@@V12@@std@@@std@@@1@@Z
    ??1?$pair@V?$_Tree_iterator@V?$_Tree_val@U?$_Tree_simple_types@U?$pair@$$CBVustring@Glib@@V12@@std@@@std@@@std@@@std@@_N@std@@QEAA@XZ
    ??$?0PEBD@ustring@Glib@@QEAA@PEBD0@Z
    ??$move@AEAVParser@Markup@Glib@@@std@@YA$$QEAVParser@Markup@Glib@@AEAV123@@Z
    ??$move@AEAVParseContext@Markup@Glib@@@std@@YA$$QEAVParseContext@Markup@Glib@@AEAV123@@Z
    ??$move@AEAPEAVParser@Markup@Glib@@@std@@YA$$QEAPEAVParser@Markup@Glib@@AEAPEAV123@@Z
    ??$move@AEAPEAU_GMarkupParseContext@@@std@@YA$$QEAPEAU_GMarkupParseContext@@AEAPEAU1@@Z
    ??$min@_K@std@@YAAEB_KAEB_K0@Z
    ??$?0PEADP6AXPEAX@Z$0A@$0A@@?$unique_ptr@$$BY0A@DP6AXPEAX@Z@std@@QEAA@PEAD$$QEAP6AXPEAX@Z@Z
    ??$forward@P6AXPEAX@Z@std@@YA$$QEAP6AXPEAX@ZAEAP6AX0@Z@Z
    ??$?0P6AXPEAX@ZPEAD@?$_Compressed_pair@P6AXPEAX@ZPEAD$0A@@std@@QEAA@U_One_then_variadic_args_t@1@$$QEAP6AXPEAX@Z$$QEAPEAD@Z
    ??$forward@AEBQEBD@std@@YAAEBQEBDAEBQEBD@Z
    ??$move@AEAU?$pair@$$CBVustring@Glib@@V12@@std@@@std@@YA$$QEAU?$pair@$$CBVustring@Glib@@V12@@0@AEAU10@@Z
    ??$_Emplace@U?$pair@$$CBVustring@Glib@@V12@@std@@@?$_Tree@V?$_Tmap_traits@Vustring@Glib@@V12@VAttributeKeyLess@Markup@2@V?$allocator@U?$pair@$$CBVustring@Glib@@V12@@std@@@std@@$0A@@std@@@std@@IEAA?AU?$pair@PEAU?$_Tree_node@U?$pair@$$CBVustring@Glib@@V12@@std@@PEAX@std@@_N@1@$$QEAU?$pair@$$CBVustring@Glib@@V12@@1@@Z
    ??$?0V?$_Tree_iterator@V?$_Tree_val@U?$_Tree_simple_types@U?$pair@$$CBVustring@Glib@@V12@@std@@@std@@@std@@@std@@AEB_N$0A@@?$pair@V?$_Tree_iterator@V?$_Tree_val@U?$_Tree_simple_types@U?$pair@$$CBVustring@Glib@@V12@@std@@@std@@@std@@@std@@_N@std@@QEAA@$$QEAV?$_Tree_iterator@V?$_Tree_val@U?$_Tree_simple_types@U?$pair@$$CBVustring@Glib@@V12@@std@@@std@@@std@@@1@AEB_N@Z
    ??0?$SequenceToString@PEBDD@ustring@Glib@@QEAA@PEBD0@Z
    ??1?$SequenceToString@PEBDD@ustring@Glib@@QEAA@XZ
    ??$_Erase_head@V?$allocator@U?$_Tree_node@U?$pair@$$CBVustring@Glib@@V12@@std@@PEAX@std@@@std@@@?$_Tree_val@U?$_Tree_simple_types@U?$pair@$$CBVustring@Glib@@V12@@std@@@std@@@std@@QEAAXAEAV?$allocator@U?$_Tree_node@U?$pair@$$CBVustring@Glib@@V12@@std@@PEAX@std@@@1@@Z
    ?allocate@?$allocator@U_Container_proxy@std@@@std@@QEAAPEAU_Container_proxy@2@_K@Z
    ??$?0U?$_Tree_node@U?$pair@$$CBVustring@Glib@@V12@@std@@PEAX@std@@@?$allocator@U_Container_proxy@std@@@std@@QEAA@AEBV?$allocator@U?$_Tree_node@U?$pair@$$CBVustring@Glib@@V12@@std@@PEAX@std@@@1@@Z
    ??$_Delete_plain_internal@V?$allocator@U_Container_proxy@std@@@std@@@std@@YAXAEAV?$allocator@U_Container_proxy@std@@@0@QEAU_Container_proxy@0@@Z
    ??$_Alloc_proxy@V?$allocator@U_Container_proxy@std@@@std@@@_Container_base12@std@@QEAAX$$QEAV?$allocator@U_Container_proxy@std@@@1@@Z
    ??$_Convert_size@_K_K@std@@YA_K_K@Z
    ??$?0D@?$allocator@U_Container_proxy@std@@@std@@QEAA@AEBV?$allocator@D@1@@Z
    ??$move@AEAV?$allocator@D@std@@@std@@YA$$QEAV?$allocator@D@0@AEAV10@@Z
    ??$?0V?$allocator@D@std@@$$V@?$_Compressed_pair@V?$allocator@D@std@@V?$_String_val@U?$_Simple_types@D@std@@@2@$00@std@@QEAA@U_One_then_variadic_args_t@1@$$QEAV?$allocator@D@1@@Z
    ??$_Construct@$00PEBD@?$basic_string@DU?$char_traits@D@std@@V?$allocator@D@2@@std@@AEAAXQEBD_K@Z
    ??$?0AEBV?$allocator@D@std@@$$V@?$_Compressed_pair@V?$allocator@D@std@@V?$_String_val@U?$_Simple_types@D@std@@@2@$00@std@@QEAA@U_One_then_variadic_args_t@1@AEBV?$allocator@D@1@@Z
    ??$move@AEAP6AXPEAX@Z@std@@YA$$QEAP6AXPEAX@ZAEAP6AX0@Z@Z
    ??$?0P6AXPEAX@ZAEAPEAD@?$_Compressed_pair@P6AXPEAX@ZPEAD$0A@@std@@QEAA@U_One_then_variadic_args_t@1@$$QEAP6AXPEAX@ZAEAPEAD@Z
    ??$forward@PEAD@std@@YA$$QEAPEADAEAPEAD@Z
    ?_Extract@?$_In_place_key_extract_map_impl@Vustring@Glib@@U?$pair@$$CBVustring@Glib@@V12@@std@@@std@@SAAEBVustring@Glib@@AEBU?$pair@$$CBVustring@Glib@@V12@@2@@Z
    ??$_Find_lower_bound@Vustring@Glib@@@?$_Tree@V?$_Tmap_traits@Vustring@Glib@@V12@VAttributeKeyLess@Markup@2@V?$allocator@U?$pair@$$CBVustring@Glib@@V12@@std@@@std@@$0A@@std@@@std@@IEBA?AU?$_Tree_find_result@PEAU?$_Tree_node@U?$pair@$$CBVustring@Glib@@V12@@std@@PEAX@std@@@1@AEBVustring@Glib@@@Z
    ??$_Lower_bound_duplicate@Vustring@Glib@@@?$_Tree@V?$_Tmap_traits@Vustring@Glib@@V12@VAttributeKeyLess@Markup@2@V?$allocator@U?$pair@$$CBVustring@Glib@@V12@@std@@@std@@$0A@@std@@@std@@IEBA_NQEAU?$_Tree_node@U?$pair@$$CBVustring@Glib@@V12@@std@@PEAX@1@AEBVustring@Glib@@@Z
    ??$?0AEAPEAU?$_Tree_node@U?$pair@$$CBVustring@Glib@@V12@@std@@PEAX@std@@_N$0A@@?$pair@PEAU?$_Tree_node@U?$pair@$$CBVustring@Glib@@V12@@std@@PEAX@std@@_N@std@@QEAA@AEAPEAU?$_Tree_node@U?$pair@$$CBVustring@Glib@@V12@@std@@PEAX@1@$$QEA_N@Z
    ??$forward@U?$pair@$$CBVustring@Glib@@V12@@std@@@std@@YA$$QEAU?$pair@$$CBVustring@Glib@@V12@@0@AEAU10@@Z
    ??0?$_Alloc_construct_ptr@V?$allocator@U?$_Tree_node@U?$pair@$$CBVustring@Glib@@V12@@std@@PEAX@std@@@std@@@std@@QEAA@AEAV?$allocator@U?$_Tree_node@U?$pair@$$CBVustring@Glib@@V12@@std@@PEAX@std@@@1@@Z
    ?_Release@?$_Alloc_construct_ptr@V?$allocator@U?$_Tree_node@U?$pair@$$CBVustring@Glib@@V12@@std@@PEAX@std@@@std@@@std@@QEAAPEAU?$_Tree_node@U?$pair@$$CBVustring@Glib@@V12@@std@@PEAX@2@XZ
    ?_Allocate@?$_Alloc_construct_ptr@V?$allocator@U?$_Tree_node@U?$pair@$$CBVustring@Glib@@V12@@std@@PEAX@std@@@std@@@std@@QEAAXXZ
    ??1?$_Alloc_construct_ptr@V?$allocator@U?$_Tree_node@U?$pair@$$CBVustring@Glib@@V12@@std@@PEAX@std@@@std@@@std@@QEAA@XZ
    ??0?$_Tree_temp_node_alloc@V?$allocator@U?$_Tree_node@U?$pair@$$CBVustring@Glib@@V12@@std@@PEAX@std@@@std@@@std@@QEAA@AEAV?$allocator@U?$_Tree_node@U?$pair@$$CBVustring@Glib@@V12@@std@@PEAX@std@@@1@@Z
    ??1?$_Tree_temp_node_alloc@V?$allocator@U?$_Tree_node@U?$pair@$$CBVustring@Glib@@V12@@std@@PEAX@std@@@std@@@std@@QEAA@XZ
    ??1?$_Tree_temp_node@V?$allocator@U?$_Tree_node@U?$pair@$$CBVustring@Glib@@V12@@std@@PEAX@std@@@std@@@std@@QEAA@XZ
    ??$?0U?$pair@$$CBVustring@Glib@@V12@@std@@@?$_Tree_temp_node@V?$allocator@U?$_Tree_node@U?$pair@$$CBVustring@Glib@@V12@@std@@PEAX@std@@@std@@@std@@QEAA@AEAV?$allocator@U?$_Tree_node@U?$pair@$$CBVustring@Glib@@V12@@std@@PEAX@std@@@1@PEAU?$_Tree_node@U?$pair@$$CBVustring@Glib@@V12@@std@@PEAX@1@$$QEAU?$pair@$$CBVustring@Glib@@V12@@1@@Z
    ??$?0PEAU?$_Tree_node@U?$pair@$$CBVustring@Glib@@V12@@std@@PEAX@std@@_N$0A@@?$pair@PEAU?$_Tree_node@U?$pair@$$CBVustring@Glib@@V12@@std@@PEAX@std@@_N@std@@QEAA@$$QEAPEAU?$_Tree_node@U?$pair@$$CBVustring@Glib@@V12@@std@@PEAX@1@$$QEA_N@Z
    ??$forward@V?$_Tree_iterator@V?$_Tree_val@U?$_Tree_simple_types@U?$pair@$$CBVustring@Glib@@V12@@std@@@std@@@std@@@std@@@std@@YA$$QEAV?$_Tree_iterator@V?$_Tree_val@U?$_Tree_simple_types@U?$pair@$$CBVustring@Glib@@V12@@std@@@std@@@std@@@0@AEAV10@@Z
    ??$forward@AEB_N@std@@YAAEB_NAEB_N@Z
    ??$_Erase_tree@V?$allocator@U?$_Tree_node@U?$pair@$$CBVustring@Glib@@V12@@std@@PEAX@std@@@std@@@?$_Tree_val@U?$_Tree_simple_types@U?$pair@$$CBVustring@Glib@@V12@@std@@@std@@@std@@QEAAXAEAV?$allocator@U?$_Tree_node@U?$pair@$$CBVustring@Glib@@V12@@std@@PEAX@std@@@1@PEAU?$_Tree_node@U?$pair@$$CBVustring@Glib@@V12@@std@@PEAX@1@@Z
    ??$_Freenode0@V?$allocator@U?$_Tree_node@U?$pair@$$CBVustring@Glib@@V12@@std@@PEAX@std@@@std@@@?$_Tree_node@U?$pair@$$CBVustring@Glib@@V12@@std@@PEAX@std@@SAXAEAV?$allocator@U?$_Tree_node@U?$pair@$$CBVustring@Glib@@V12@@std@@PEAX@std@@@1@PEAU01@@Z
    ??$_Deallocate_plain@V?$allocator@U_Container_proxy@std@@@std@@@std@@YAXAEAV?$allocator@U_Container_proxy@std@@@0@QEAU_Container_proxy@0@@Z
    ??0?$_Container_proxy_ptr12@V?$allocator@U_Container_proxy@std@@@std@@@std@@QEAA@AEAV?$allocator@U_Container_proxy@std@@@1@AEAU_Container_base12@1@@Z
    ??1?$_Container_proxy_ptr12@V?$allocator@U_Container_proxy@std@@@std@@@std@@QEAA@XZ
    ??$_Unfancy@U_Container_proxy@std@@@std@@YAPEAU_Container_proxy@0@PEAU10@@Z
    ??$_Construct_in_place@U_Container_proxy@std@@PEAU_Container_base12@2@@std@@YAXAEAU_Container_proxy@0@$$QEAPEAU_Container_base12@0@@Z
    ??$forward@V?$allocator@D@std@@@std@@YA$$QEAV?$allocator@D@0@AEAV10@@Z
    ??$_Allocate_for_capacity@$0A@@?$basic_string@DU?$char_traits@D@std@@V?$allocator@D@2@@std@@CAPEADAEAV?$allocator@D@1@AEA_K@Z
    ??$_Construct_in_place@PEADAEBQEAD@std@@YAXAEAPEADAEBQEAD@Z
    ??$_Unfancy@D@std@@YAPEADPEAD@Z
    ??$?0PEBD$0A@@?$basic_string@DU?$char_traits@D@std@@V?$allocator@D@2@@std@@QEAA@PEBD0AEBV?$allocator@D@1@@Z
    ??$addressof@V?$_Tree_val@U?$_Tree_simple_types@U?$pair@$$CBVustring@Glib@@V12@@std@@@std@@@std@@@std@@YAPEAV?$_Tree_val@U?$_Tree_simple_types@U?$pair@$$CBVustring@Glib@@V12@@std@@@std@@@0@AEAV10@@Z
    ??$?0AEBVAttributeKeyLess@Markup@Glib@@U_Zero_then_variadic_args_t@std@@@?$_Compressed_pair@VAttributeKeyLess@Markup@Glib@@V?$_Compressed_pair@V?$allocator@U?$_Tree_node@U?$pair@$$CBVustring@Glib@@V12@@std@@PEAX@std@@@std@@V?$_Tree_val@U?$_Tree_simple_types@U?$pair@$$CBVustring@Glib@@V12@@std@@@std@@@2@$00@std@@$00@std@@QEAA@U_One_then_variadic_args_t@1@AEBVAttributeKeyLess@Markup@Glib@@$$QEAU_Zero_then_variadic_args_t@1@@Z
    ??$?0$$V@?$_Compressed_pair@V?$allocator@U?$_Tree_node@U?$pair@$$CBVustring@Glib@@V12@@std@@PEAX@std@@@std@@V?$_Tree_val@U?$_Tree_simple_types@U?$pair@$$CBVustring@Glib@@V12@@std@@@std@@@2@$00@std@@QEAA@U_Zero_then_variadic_args_t@1@@Z
    ??$exchange@PEAD$$T@std@@YAPEADAEAPEAD$$QEA$$T@Z
    ??$_Traits_compare@U?$char_traits@D@std@@@std@@YAHQEBD_K01@Z
    ??$addressof@V?$_String_val@U?$_Simple_types@D@std@@@std@@@std@@YAPEAV?$_String_val@U?$_Simple_types@D@std@@@0@AEAV10@@Z
    ??$_Construct_in_place@PEADAEAPEAD@std@@YAXAEAPEAD0@Z
    ??$max@_K@std@@YAAEB_KAEB_K0@Z
    ??$_Deallocate@$0BA@@std@@YAXPEAX_K@Z
    ??$forward@AEBV?$allocator@D@std@@@std@@YAAEBV?$allocator@D@0@AEBV10@@Z
    ??$forward@AEAPEAD@std@@YAAEAPEADAEAPEAD@Z
    ??$_Kfn@$$CBVustring@Glib@@V12@@?$_Tmap_traits@Vustring@Glib@@V12@VAttributeKeyLess@Markup@2@V?$allocator@U?$pair@$$CBVustring@Glib@@V12@@std@@@std@@$0A@@std@@SAAEBVustring@Glib@@AEBU?$pair@$$CBVustring@Glib@@V12@@1@@Z
    ??$_Debug_lt_pred@AEBVAttributeKeyLess@Markup@Glib@@AEBVustring@3@AEBV43@@std@@YA_NAEBVAttributeKeyLess@Markup@Glib@@AEBVustring@3@1@Z
    ??$forward@AEAPEAU?$_Tree_node@U?$pair@$$CBVustring@Glib@@V12@@std@@PEAX@std@@@std@@YAAEAPEAU?$_Tree_node@U?$pair@$$CBVustring@Glib@@V12@@std@@PEAX@0@AEAPEAU10@@Z
    ??$forward@_N@std@@YA$$QEA_NAEA_N@Z
    ??$addressof@U?$pair@$$CBVustring@Glib@@V12@@std@@@std@@YAPEAU?$pair@$$CBVustring@Glib@@V12@@0@AEAU10@@Z
    ??$construct@U?$pair@$$CBVustring@Glib@@V12@@std@@U12@@?$_Default_allocator_traits@V?$allocator@U?$_Tree_node@U?$pair@$$CBVustring@Glib@@V12@@std@@PEAX@std@@@std@@@std@@SAXAEAV?$allocator@U?$_Tree_node@U?$pair@$$CBVustring@Glib@@V12@@std@@PEAX@std@@@1@QEAU?$pair@$$CBVustring@Glib@@V12@@1@$$QEAU31@@Z
    ??$_Construct_in_place@PEAU?$_Tree_node@U?$pair@$$CBVustring@Glib@@V12@@std@@PEAX@std@@AEAPEAU12@@std@@YAXAEAPEAU?$_Tree_node@U?$pair@$$CBVustring@Glib@@V12@@std@@PEAX@0@0@Z
    ??$forward@PEAU?$_Tree_node@U?$pair@$$CBVustring@Glib@@V12@@std@@PEAX@std@@@std@@YA$$QEAPEAU?$_Tree_node@U?$pair@$$CBVustring@Glib@@V12@@std@@PEAX@0@AEAPEAU10@@Z
    ??$exchange@PEAU?$_Tree_node@U?$pair@$$CBVustring@Glib@@V12@@std@@PEAX@std@@AEAPEAU12@@std@@YAPEAU?$_Tree_node@U?$pair@$$CBVustring@Glib@@V12@@std@@PEAX@0@AEAPEAU10@0@Z
    ??$_Freenode@V?$allocator@U?$_Tree_node@U?$pair@$$CBVustring@Glib@@V12@@std@@PEAX@std@@@std@@@?$_Tree_node@U?$pair@$$CBVustring@Glib@@V12@@std@@PEAX@std@@SAXAEAV?$allocator@U?$_Tree_node@U?$pair@$$CBVustring@Glib@@V12@@std@@PEAX@std@@@1@PEAU01@@Z
    ??$_Destroy_in_place@PEAU?$_Tree_node@U?$pair@$$CBVustring@Glib@@V12@@std@@PEAX@std@@@std@@YAXAEAPEAU?$_Tree_node@U?$pair@$$CBVustring@Glib@@V12@@std@@PEAX@0@@Z
    ?deallocate@?$_Default_allocator_traits@V?$allocator@U_Container_proxy@std@@@std@@@std@@SAXAEAV?$allocator@U_Container_proxy@std@@@2@QEAU_Container_proxy@2@_K@Z
    ??$addressof@U_Container_proxy@std@@@std@@YAPEAU_Container_proxy@0@AEAU10@@Z
    ??$forward@PEAU_Container_base12@std@@@std@@YA$$QEAPEAU_Container_base12@0@AEAPEAU10@@Z
    ??$_Allocate_at_least_helper@V?$allocator@D@std@@@std@@YAPEADAEAV?$allocator@D@0@AEA_K@Z
    ??$addressof@PEAD@std@@YAPEAPEADAEAPEAD@Z
    ??$forward@AEBQEAD@std@@YAAEBQEADAEBQEAD@Z
    ??$_Get_unwrapped@AEAPEBD@std@@YA?A_TAEAPEBD@Z
    ??$forward@AEBVAttributeKeyLess@Markup@Glib@@@std@@YAAEBVAttributeKeyLess@Markup@Glib@@AEBV123@@Z
    ??$forward@U_Zero_then_variadic_args_t@std@@@std@@YA$$QEAU_Zero_then_variadic_args_t@0@AEAU10@@Z
    ??$addressof@U_Container_base12@std@@@std@@YAPEAU_Container_base12@0@AEAU10@@Z
    ??$exchange@PEAU?$_Tree_node@U?$pair@$$CBVustring@Glib@@V12@@std@@PEAX@std@@$$T@std@@YAPEAU?$_Tree_node@U?$pair@$$CBVustring@Glib@@V12@@std@@PEAX@0@AEAPEAU10@$$QEA$$T@Z
    ??$destroy@U?$pair@$$CBVustring@Glib@@V12@@std@@@?$_Default_allocator_traits@V?$allocator@U?$_Tree_node@U?$pair@$$CBVustring@Glib@@V12@@std@@PEAX@std@@@std@@@std@@SAXAEAV?$allocator@U?$_Tree_node@U?$pair@$$CBVustring@Glib@@V12@@std@@PEAX@std@@@1@QEAU?$pair@$$CBVustring@Glib@@V12@@1@@Z
    ??$_Get_size_of_n@$0BA@@std@@YA_K_K@Z
    ??$_Allocate@$0BA@U_Default_allocate_traits@std@@@std@@YAPEAX_K@Z
    ??$_Buyheadnode@V?$allocator@U?$_Tree_node@U?$pair@$$CBVustring@Glib@@V12@@std@@PEAX@std@@@std@@@?$_Tree_node@U?$pair@$$CBVustring@Glib@@V12@@std@@PEAX@std@@SAPEAU01@AEAV?$allocator@U?$_Tree_node@U?$pair@$$CBVustring@Glib@@V12@@std@@PEAX@std@@@1@@Z
    ??$_Destroy_in_place@PEAD@std@@YAXAEAPEAD@Z
    ??$_Max_limit@_J@std@@YA_JXZ
    ??$addressof@PEAU?$_Tree_node@U?$pair@$$CBVustring@Glib@@V12@@std@@PEAX@std@@@std@@YAPEAPEAU?$_Tree_node@U?$pair@$$CBVustring@Glib@@V12@@std@@PEAX@0@AEAPEAU10@@Z
    ??$_Allocate_manually_vector_aligned@U_Default_allocate_traits@std@@@std@@YAPEAX_K@Z
    ??$_Construct_in_place@PEAU?$_Tree_node@U?$pair@$$CBVustring@Glib@@V12@@std@@PEAX@std@@AEBQEAU12@@std@@YAXAEAPEAU?$_Tree_node@U?$pair@$$CBVustring@Glib@@V12@@std@@PEAX@0@AEBQEAU10@@Z
    ??$addressof@$$CBV?$_Tree_val@U?$_Tree_simple_types@U?$pair@$$CBVustring@Glib@@V12@@std@@@std@@@std@@@std@@YAPEBV?$_Tree_val@U?$_Tree_simple_types@U?$pair@$$CBVustring@Glib@@V12@@std@@@std@@@0@AEBV10@@Z
    ??$forward@AEBQEAU?$_Tree_node@U?$pair@$$CBVustring@Glib@@V12@@std@@PEAX@std@@@std@@YAAEBQEAU?$_Tree_node@U?$pair@$$CBVustring@Glib@@V12@@std@@PEAX@0@AEBQEAU10@@Z
    ??$_Get_size_of_n@$0HA@@std@@YA_K_K@Z
    ??$_Get_size_of_n@$00@std@@YA_K_K@Z
    ??_7exception@std@@6B@
    ??_C@_0BC@EOODALEL@Unknown?5exception@
    ??_7bad_alloc@std@@6B@
    ??_7bad_array_new_length@std@@6B@
    ??_C@_0BF@KINCDENJ@bad?5array?5new?5length@
    ??_R0?AVexception@std@@@8
    _CT??_R0?AVexception@std@@@8??0exception@std@@QEAA@AEBV01@@Z24
    _TI3?AVbad_array_new_length@std@@
    _CTA3?AVbad_array_new_length@std@@
    ??_R0?AVbad_array_new_length@std@@@8
    _CT??_R0?AVbad_array_new_length@std@@@8??0bad_array_new_length@std@@QEAA@AEBV01@@Z24
    ??_R0?AVbad_alloc@std@@@8
    _CT??_R0?AVbad_alloc@std@@@8??0bad_alloc@std@@QEAA@AEBV01@@Z24
    ??_C@_0BB@FCMFBGOM@invalid?5argument@
    ??_C@_02DKCKIIND@?$CFs@
    ??_C@_0GC@KLECFGLI@C?3?2Program?5Files?2Microsoft?5Visu@
    ??_C@_0BJ@LFDBABJJ@ITERATOR?5LIST?5CORRUPTED?$CB@
    ??_C@_0BA@JFNIOLAK@string?5too?5long@
    ??_7Exception@Glib@@6B@
    ??_C@_0BB@GCADKGJO@map?1set?5too?5long@
    ??_7MarkupError@Glib@@6B@
    ??_7Parser@Markup@Glib@@6B@
    ??_7ParseContext@Markup@Glib@@6B@
    ??_R0?AVMarkupError@Glib@@@8
    _TI3?AVMarkupError@Glib@@
    _CTA3?AVMarkupError@Glib@@
    _CT??_R0?AVMarkupError@Glib@@@8??0MarkupError@Glib@@QEAA@AEBV01@@Z16
    ??_R0?AVError@Glib@@@8
    _CT??_R0?AVError@Glib@@@8??0Error@Glib@@QEAA@AEBV01@@Z16
    ??_R0?AVException@Glib@@@8
    _CT??_R0?AVException@Glib@@@8??0Exception@Glib@@QEAA@AEBV01@@Z8
    ??_C@_0BJ@HAJGEHKO@transposed?5pointer?5range@
    ??_C@_0GD@GOKHNLI@C?3?2Program?5Files?2Microsoft?5Visu@
    ??_C@_0DG@KGHKKGBC@null?5pointer?5cannot?5point?5to?5a?5@
    ??_C@_0BD@FEEMDEPI@invalid?5comparator@
    ??_R4exception@std@@6B@
    ??_R3exception@std@@8
    ??_R2exception@std@@8
    ??_R1A@?0A@EA@exception@std@@8
    ??_R4bad_array_new_length@std@@6B@
    ??_R3bad_array_new_length@std@@8
    ??_R2bad_array_new_length@std@@8
    ??_R1A@?0A@EA@bad_array_new_length@std@@8
    ??_R1A@?0A@EA@bad_alloc@std@@8
    ??_R3bad_alloc@std@@8
    ??_R2bad_alloc@std@@8
    ??_R4bad_alloc@std@@6B@
    ??_R4Exception@Glib@@6B@
    ??_R3Exception@Glib@@8
    ??_R2Exception@Glib@@8
    ??_R1A@?0A@EA@Exception@Glib@@8
    ??_R4MarkupError@Glib@@6B@
    ??_R3MarkupError@Glib@@8
    ??_R2MarkupError@Glib@@8
    ??_R1A@?0A@EA@MarkupError@Glib@@8
    ??_R1A@?0A@EA@Error@Glib@@8
    ??_R3Error@Glib@@8
    ??_R2Error@Glib@@8
    ??_R4ParseContext@Markup@Glib@@6B@
    ??_R0?AVParseContext@Markup@Glib@@@8
    ??_R3ParseContext@Markup@Glib@@8
    ??_R2ParseContext@Markup@Glib@@8
    ??_R1A@?0A@EA@ParseContext@Markup@Glib@@8
    ??_R17?0A@EA@trackable@sigc@@8
    ??_R0?AUtrackable@sigc@@@8
    ??_R3trackable@sigc@@8
    ??_R2trackable@sigc@@8
    ??_R1A@?0A@EA@trackable@sigc@@8
    ??_R4Parser@Markup@Glib@@6B@
    ??_R0?AVParser@Markup@Glib@@@8
    ??_R3Parser@Markup@Glib@@8
    ??_R2Parser@Markup@Glib@@8
    ??_R1A@?0A@EA@Parser@Markup@Glib@@8
    ?__empty_global_delete@@YAXPEAX@Z
    ?__empty_global_delete@@YAXPEAX_K@Z
    ??2@YAPEAX_KPEAX@Z
    ??0exception@std@@QEAA@QEBDH@Z
    ??0exception@std@@QEAA@AEBV01@@Z
    ??1exception@std@@UEAA@XZ
    ?what@exception@std@@UEBAPEBDXZ
    ??0bad_alloc@std@@AEAA@QEBD@Z
    ??1bad_alloc@std@@UEAA@XZ
    ??0bad_alloc@std@@QEAA@AEBV01@@Z
    ??0bad_array_new_length@std@@QEAA@XZ
    ??1bad_array_new_length@std@@UEAA@XZ
    ??0bad_array_new_length@std@@QEAA@AEBV01@@Z
    ?copy@?$_Char_traits@DH@std@@SAPEADQEADQEBD_K@Z
    ?length@?$_Narrow_char_traits@DH@std@@SA_KQEBD@Z
    ?assign@?$_Narrow_char_traits@DH@std@@SAXAEADAEBD@Z
    ?_Throw_bad_array_new_length@std@@YAXXZ
    ?_Allocate@_Default_allocate_traits@std@@SAPEAX_K@Z
    ?_Adjust_manually_vector_aligned@std@@YAXAEAPEAXAEA_K@Z
    ??0_Container_proxy@std@@QEAA@PEAU_Container_base12@1@@Z
    ??0_Container_base12@std@@QEAA@XZ
    ?_Orphan_all@_Container_base12@std@@QEAAXXZ
    ?_Swap_proxy_and_iterators@_Container_base12@std@@QEAAXAEAU12@@Z
    ?_Orphan_all_unlocked_v3@_Container_base12@std@@AEAAXXZ
    ?_Swap_proxy_and_iterators_unlocked@_Container_base12@std@@AEAAXAEAU12@@Z
    ?_Orphan_all_locked_v3@_Container_base12@std@@AEAAXXZ
    ?_Swap_proxy_and_iterators_locked@_Container_base12@std@@AEAAXAEAU12@@Z
    ??$exchange@PEAU_Iterator_base12@std@@$$T@std@@YAPEAU_Iterator_base12@0@AEAPEAU10@$$QEA$$T@Z
    ?_Release@_Basic_container_proxy_ptr12@std@@QEAAXXZ
    ??0_Basic_container_proxy_ptr12@std@@IEAA@XZ
    ?_Xlen_string@std@@YAXXZ
    ??0?$allocator@D@std@@QEAA@XZ
    ?deallocate@?$allocator@D@std@@QEAAXQEAD_K@Z
    ?allocate@?$allocator@D@std@@QEAAPEAD_K@Z
    ?max_size@?$_Default_allocator_traits@V?$allocator@D@std@@@std@@SA_KAEBV?$allocator@D@2@@Z
    ??0?$_String_val@U?$_Simple_types@D@std@@@std@@QEAA@XZ
    ?_Myptr@?$_String_val@U?$_Simple_types@D@std@@@std@@QEBAPEBDXZ
    ?_Large_mode_engaged@?$_String_val@U?$_Simple_types@D@std@@@std@@QEBA_NXZ
    ?_Activate_SSO_buffer@?$_String_val@U?$_Simple_types@D@std@@@std@@QEAAXXZ
    ??0_Bxty@?$_String_val@U?$_Simple_types@D@std@@@std@@QEAA@XZ
    ??1_Bxty@?$_String_val@U?$_Simple_types@D@std@@@std@@QEAA@XZ
    ?_Switch_to_buf@_Bxty@?$_String_val@U?$_Simple_types@D@std@@@std@@QEAAXXZ
    ??1?$_String_val@U?$_Simple_types@D@std@@@std@@QEAA@XZ
    ??0?$basic_string@DU?$char_traits@D@std@@V?$allocator@D@2@@std@@QEAA@XZ
    ??0?$basic_string@DU?$char_traits@D@std@@V?$allocator@D@2@@std@@QEAA@QEBD@Z
    ?_Deallocate_for_capacity@?$basic_string@DU?$char_traits@D@std@@V?$allocator@D@2@@std@@CAXAEAV?$allocator@D@2@QEAD_K@Z
    ?_Construct_empty@?$basic_string@DU?$char_traits@D@std@@V?$allocator@D@2@@std@@AEAAXXZ
    ??0?$basic_string@DU?$char_traits@D@std@@V?$allocator@D@2@@std@@QEAA@$$QEAV01@@Z
    ?_Take_contents@?$basic_string@DU?$char_traits@D@std@@V?$allocator@D@2@@std@@AEAAXAEAV12@@Z
    ??1?$basic_string@DU?$char_traits@D@std@@V?$allocator@D@2@@std@@QEAA@XZ
    ?c_str@?$basic_string@DU?$char_traits@D@std@@V?$allocator@D@2@@std@@QEBAPEBDXZ
    ?max_size@?$basic_string@DU?$char_traits@D@std@@V?$allocator@D@2@@std@@QEBA_KXZ
    ?_Calculate_growth@?$basic_string@DU?$char_traits@D@std@@V?$allocator@D@2@@std@@CA_K_K00@Z
    ?_Tidy_deallocate@?$basic_string@DU?$char_traits@D@std@@V?$allocator@D@2@@std@@AEAAXXZ
    ?_Swap_proxy_and_iterators@?$basic_string@DU?$char_traits@D@std@@V?$allocator@D@2@@std@@AEAAXAEAV12@@Z
    ?_Getal@?$basic_string@DU?$char_traits@D@std@@V?$allocator@D@2@@std@@AEAAAEAV?$allocator@D@2@XZ
    ?_Getal@?$basic_string@DU?$char_traits@D@std@@V?$allocator@D@2@@std@@AEBAAEBV?$allocator@D@2@XZ
    ?_Get_first@?$_Compressed_pair@V?$allocator@D@std@@V?$_String_val@U?$_Simple_types@D@std@@@2@$00@std@@QEAAAEAV?$allocator@D@2@XZ
    ?_Get_first@?$_Compressed_pair@V?$allocator@D@std@@V?$_String_val@U?$_Simple_types@D@std@@@2@$00@std@@QEBAAEBV?$allocator@D@2@XZ
    ??1?$_Compressed_pair@V?$allocator@D@std@@V?$_String_val@U?$_Simple_types@D@std@@@2@$00@std@@QEAA@XZ
    ?convert_const_gchar_ptr_to_ustring@Glib@@YA?AVustring@1@PEBD@Z
    ?convert_const_gchar_ptr_to_stdstring@Glib@@YA?AV?$basic_string@DU?$char_traits@D@std@@V?$allocator@D@2@@std@@PEBD@Z
    ?convert_return_gchar_ptr_to_ustring@Glib@@YA?AVustring@1@PEAD@Z
    ??$make_unique_ptr_gfree@D@Glib@@YA?AV?$unique_ptr@$$BY0A@DP6AXPEAX@Z@std@@PEAD@Z
    ??1?$unique_ptr@$$BY0A@DP6AXPEAX@Z@std@@QEAA@XZ
    ?get_deleter@?$unique_ptr@$$BY0A@DP6AXPEAX@Z@std@@QEAAAEAP6AXPEAX@ZXZ
    ?get@?$unique_ptr@$$BY0A@DP6AXPEAX@Z@std@@QEBAPEADXZ
    ?release@?$unique_ptr@$$BY0A@DP6AXPEAX@Z@std@@QEAAPEADXZ
    ?_Get_first@?$_Compressed_pair@P6AXPEAX@ZPEAD$0A@@std@@QEAAAEAP6AXPEAX@ZXZ
    ?convert_return_gchar_ptr_to_stdstring@Glib@@YA?AV?$basic_string@DU?$char_traits@D@std@@V?$allocator@D@2@@std@@PEAD@Z
    ?get_application_name@Glib@@YA?AVustring@1@XZ
    ?set_application_name@Glib@@YAXAEBVustring@1@@Z
    ?get_prgname@Glib@@YA?AV?$basic_string@DU?$char_traits@D@std@@V?$allocator@D@2@@std@@XZ
    ?set_prgname@Glib@@YAXAEBV?$basic_string@DU?$char_traits@D@std@@V?$allocator@D@2@@std@@@Z
    ?getenv@Glib@@YA?AV?$basic_string@DU?$char_traits@D@std@@V?$allocator@D@2@@std@@AEBV23@AEA_N@Z
    ?getenv@Glib@@YA?AV?$basic_string@DU?$char_traits@D@std@@V?$allocator@D@2@@std@@AEBV23@@Z
    ?setenv@Glib@@YA_NAEBV?$basic_string@DU?$char_traits@D@std@@V?$allocator@D@2@@std@@0_N@Z
    ?unsetenv@Glib@@YAXAEBV?$basic_string@DU?$char_traits@D@std@@V?$allocator@D@2@@std@@@Z
    ?listenv@Glib@@YA?AV?$ArrayHandle@V?$basic_string@DU?$char_traits@D@std@@V?$allocator@D@2@@std@@U?$TypeTraits@V?$basic_string@DU?$char_traits@D@std@@V?$allocator@D@2@@std@@@Container_Helpers@Glib@@@1@XZ
    ?get_user_name@Glib@@YA?AV?$basic_string@DU?$char_traits@D@std@@V?$allocator@D@2@@std@@XZ
    ?get_real_name@Glib@@YA?AV?$basic_string@DU?$char_traits@D@std@@V?$allocator@D@2@@std@@XZ
    ?get_home_dir@Glib@@YA?AV?$basic_string@DU?$char_traits@D@std@@V?$allocator@D@2@@std@@XZ
    ?get_tmp_dir@Glib@@YA?AV?$basic_string@DU?$char_traits@D@std@@V?$allocator@D@2@@std@@XZ
    ?get_current_dir@Glib@@YA?AV?$basic_string@DU?$char_traits@D@std@@V?$allocator@D@2@@std@@XZ
    ?get_user_special_dir@Glib@@YA?AV?$basic_string@DU?$char_traits@D@std@@V?$allocator@D@2@@std@@W4GUserDirectory@@@Z
    ?get_user_special_dir@Glib@@YA?AV?$basic_string@DU?$char_traits@D@std@@V?$allocator@D@2@@std@@W4UserDirectory@1@@Z
    ?get_user_data_dir@Glib@@YA?AV?$basic_string@DU?$char_traits@D@std@@V?$allocator@D@2@@std@@XZ
    ?get_user_config_dir@Glib@@YA?AV?$basic_string@DU?$char_traits@D@std@@V?$allocator@D@2@@std@@XZ
    ?get_system_data_dirs@Glib@@YA?AV?$vector@V?$basic_string@DU?$char_traits@D@std@@V?$allocator@D@2@@std@@V?$allocator@V?$basic_string@DU?$char_traits@D@std@@V?$allocator@D@2@@std@@@2@@std@@XZ
    ?get_system_config_dirs@Glib@@YA?AV?$vector@V?$basic_string@DU?$char_traits@D@std@@V?$allocator@D@2@@std@@V?$allocator@V?$basic_string@DU?$char_traits@D@std@@V?$allocator@D@2@@std@@@2@@std@@XZ
    ?get_user_cache_dir@Glib@@YA?AV?$basic_string@DU?$char_traits@D@std@@V?$allocator@D@2@@std@@XZ
    ?path_is_absolute@Glib@@YA_NAEBV?$basic_string@DU?$char_traits@D@std@@V?$allocator@D@2@@std@@@Z
    ?path_skip_root@Glib@@YA?AV?$basic_string@DU?$char_traits@D@std@@V?$allocator@D@2@@std@@AEBV23@@Z
    ?path_get_basename@Glib@@YA?AV?$basic_string@DU?$char_traits@D@std@@V?$allocator@D@2@@std@@AEBV23@@Z
    ?path_get_dirname@Glib@@YA?AV?$basic_string@DU?$char_traits@D@std@@V?$allocator@D@2@@std@@AEBV23@@Z
    ?build_filename@Glib@@YA?AV?$basic_string@DU?$char_traits@D@std@@V?$allocator@D@2@@std@@AEBV?$ArrayHandle@V?$basic_string@DU?$char_traits@D@std@@V?$allocator@D@2@@std@@U?$TypeTraits@V?$basic_string@DU?$char_traits@D@std@@V?$allocator@D@2@@std@@@Container_Helpers@Glib@@@1@@Z
    ?build_filename@Glib@@YA?AV?$basic_string@DU?$char_traits@D@std@@V?$allocator@D@2@@std@@AEBV23@0@Z
    ?build_filename@Glib@@YA?AV?$basic_string@DU?$char_traits@D@std@@V?$allocator@D@2@@std@@AEBV23@00@Z
    ?build_filename@Glib@@YA?AV?$basic_string@DU?$char_traits@D@std@@V?$allocator@D@2@@std@@AEBV23@000@Z
    ?build_filename@Glib@@YA?AV?$basic_string@DU?$char_traits@D@std@@V?$allocator@D@2@@std@@AEBV23@0000@Z
    ?build_filename@Glib@@YA?AV?$basic_string@DU?$char_traits@D@std@@V?$allocator@D@2@@std@@AEBV23@00000@Z
    ?build_filename@Glib@@YA?AV?$basic_string@DU?$char_traits@D@std@@V?$allocator@D@2@@std@@AEBV23@000000@Z
    ?build_filename@Glib@@YA?AV?$basic_string@DU?$char_traits@D@std@@V?$allocator@D@2@@std@@AEBV23@0000000@Z
    ?build_filename@Glib@@YA?AV?$basic_string@DU?$char_traits@D@std@@V?$allocator@D@2@@std@@AEBV23@00000000@Z
    ?build_path@Glib@@YA?AV?$basic_string@DU?$char_traits@D@std@@V?$allocator@D@2@@std@@AEBV23@AEBV?$ArrayHandle@V?$basic_string@DU?$char_traits@D@std@@V?$allocator@D@2@@std@@U?$TypeTraits@V?$basic_string@DU?$char_traits@D@std@@V?$allocator@D@2@@std@@@Container_Helpers@Glib@@@1@@Z
    ?find_program_in_path@Glib@@YA?AV?$basic_string@DU?$char_traits@D@std@@V?$allocator@D@2@@std@@AEBV23@@Z
    ?format_size@Glib@@YA?AVustring@1@_KW4FormatSizeFlags@1@@Z
    ??0?$ArrayHandle@V?$basic_string@DU?$char_traits@D@std@@V?$allocator@D@2@@std@@U?$TypeTraits@V?$basic_string@DU?$char_traits@D@std@@V?$allocator@D@2@@std@@@Container_Helpers@Glib@@@Glib@@QEAA@PEBQEBD_KW4OwnershipType@1@@Z
    ?data@?$ArrayHandle@V?$basic_string@DU?$char_traits@D@std@@V?$allocator@D@2@@std@@U?$TypeTraits@V?$basic_string@DU?$char_traits@D@std@@V?$allocator@D@2@@std@@@Container_Helpers@Glib@@@Glib@@QEBAPEBQEBDXZ
    ??0?$allocator@V?$basic_string@DU?$char_traits@D@std@@V?$allocator@D@2@@std@@@std@@QEAA@XZ
    ?deallocate@?$allocator@V?$basic_string@DU?$char_traits@D@std@@V?$allocator@D@2@@std@@@std@@QEAAXQEAV?$basic_string@DU?$char_traits@D@std@@V?$allocator@D@2@@2@_K@Z
    ?allocate@?$allocator@V?$basic_string@DU?$char_traits@D@std@@V?$allocator@D@2@@std@@@std@@QEAAPEAV?$basic_string@DU?$char_traits@D@std@@V?$allocator@D@2@@2@_K@Z
    ?max_size@?$_Default_allocator_traits@V?$allocator@V?$basic_string@DU?$char_traits@D@std@@V?$allocator@D@2@@std@@@std@@@std@@SA_KAEBV?$allocator@V?$basic_string@DU?$char_traits@D@std@@V?$allocator@D@2@@std@@@2@@Z
    ??0?$vector@V?$basic_string@DU?$char_traits@D@std@@V?$allocator@D@2@@std@@V?$allocator@V?$basic_string@DU?$char_traits@D@std@@V?$allocator@D@2@@std@@@2@@std@@QEAA@XZ
    ??0?$vector@V?$basic_string@DU?$char_traits@D@std@@V?$allocator@D@2@@std@@V?$allocator@V?$basic_string@DU?$char_traits@D@std@@V?$allocator@D@2@@std@@@2@@std@@QEAA@$$QEAV01@@Z
    ??1?$vector@V?$basic_string@DU?$char_traits@D@std@@V?$allocator@D@2@@std@@V?$allocator@V?$basic_string@DU?$char_traits@D@std@@V?$allocator@D@2@@std@@@2@@std@@QEAA@XZ
    ?max_size@?$vector@V?$basic_string@DU?$char_traits@D@std@@V?$allocator@D@2@@std@@V?$allocator@V?$basic_string@DU?$char_traits@D@std@@V?$allocator@D@2@@std@@@2@@std@@QEBA_KXZ
    ?capacity@?$vector@V?$basic_string@DU?$char_traits@D@std@@V?$allocator@D@2@@std@@V?$allocator@V?$basic_string@DU?$char_traits@D@std@@V?$allocator@D@2@@std@@@2@@std@@QEBA_KXZ
    ?_Calculate_growth@?$vector@V?$basic_string@DU?$char_traits@D@std@@V?$allocator@D@2@@std@@V?$allocator@V?$basic_string@DU?$char_traits@D@std@@V?$allocator@D@2@@std@@@2@@std@@AEBA_K_K@Z
    ?_Change_array@?$vector@V?$basic_string@DU?$char_traits@D@std@@V?$allocator@D@2@@std@@V?$allocator@V?$basic_string@DU?$char_traits@D@std@@V?$allocator@D@2@@std@@@2@@std@@AEAAXQEAV?$basic_string@DU?$char_traits@D@std@@V?$allocator@D@2@@2@_K1@Z
    ?_Tidy@?$vector@V?$basic_string@DU?$char_traits@D@std@@V?$allocator@D@2@@std@@V?$allocator@V?$basic_string@DU?$char_traits@D@std@@V?$allocator@D@2@@std@@@2@@std@@AEAAXXZ
    ?_Xlength@?$vector@V?$basic_string@DU?$char_traits@D@std@@V?$allocator@D@2@@std@@V?$allocator@V?$basic_string@DU?$char_traits@D@std@@V?$allocator@D@2@@std@@@2@@std@@CAXXZ
    ?_Orphan_range_unlocked@?$vector@V?$basic_string@DU?$char_traits@D@std@@V?$allocator@D@2@@std@@V?$allocator@V?$basic_string@DU?$char_traits@D@std@@V?$allocator@D@2@@std@@@2@@std@@AEBAXPEAV?$basic_string@DU?$char_traits@D@std@@V?$allocator@D@2@@2@0@Z
    ?_Orphan_range_locked@?$vector@V?$basic_string@DU?$char_traits@D@std@@V?$allocator@D@2@@std@@V?$allocator@V?$basic_string@DU?$char_traits@D@std@@V?$allocator@D@2@@std@@@2@@std@@AEBAXPEAV?$basic_string@DU?$char_traits@D@std@@V?$allocator@D@2@@2@0@Z
    ?_Orphan_range@?$vector@V?$basic_string@DU?$char_traits@D@std@@V?$allocator@D@2@@std@@V?$allocator@V?$basic_string@DU?$char_traits@D@std@@V?$allocator@D@2@@std@@@2@@std@@AEBAXPEAV?$basic_string@DU?$char_traits@D@std@@V?$allocator@D@2@@2@0@Z
    ?_Getal@?$vector@V?$basic_string@DU?$char_traits@D@std@@V?$allocator@D@2@@std@@V?$allocator@V?$basic_string@DU?$char_traits@D@std@@V?$allocator@D@2@@std@@@2@@std@@AEAAAEAV?$allocator@V?$basic_string@DU?$char_traits@D@std@@V?$allocator@D@2@@std@@@2@XZ
    ?_Getal@?$vector@V?$basic_string@DU?$char_traits@D@std@@V?$allocator@D@2@@std@@V?$allocator@V?$basic_string@DU?$char_traits@D@std@@V?$allocator@D@2@@std@@@2@@std@@AEBAAEBV?$allocator@V?$basic_string@DU?$char_traits@D@std@@V?$allocator@D@2@@std@@@2@XZ
    ??0?$_Vector_val@U?$_Simple_types@V?$basic_string@DU?$char_traits@D@std@@V?$allocator@D@2@@std@@@std@@@std@@QEAA@XZ
    ??0?$_Vector_val@U?$_Simple_types@V?$basic_string@DU?$char_traits@D@std@@V?$allocator@D@2@@std@@@std@@@std@@QEAA@PEAV?$basic_string@DU?$char_traits@D@std@@V?$allocator@D@2@@1@00@Z
    ?_Get_first@?$_Compressed_pair@V?$allocator@V?$basic_string@DU?$char_traits@D@std@@V?$allocator@D@2@@std@@@std@@V?$_Vector_val@U?$_Simple_types@V?$basic_string@DU?$char_traits@D@std@@V?$allocator@D@2@@std@@@std@@@2@$00@std@@QEAAAEAV?$allocator@V?$basic_string@DU?$char_traits@D@std@@V?$allocator@D@2@@std@@@2@XZ
    ?_Get_first@?$_Compressed_pair@V?$allocator@V?$basic_string@DU?$char_traits@D@std@@V?$allocator@D@2@@std@@@std@@V?$_Vector_val@U?$_Simple_types@V?$basic_string@DU?$char_traits@D@std@@V?$allocator@D@2@@std@@@std@@@2@$00@std@@QEBAAEBV?$allocator@V?$basic_string@DU?$char_traits@D@std@@V?$allocator@D@2@@std@@@2@XZ
    ??$emplace_back@V?$basic_string@DU?$char_traits@D@std@@V?$allocator@D@2@@std@@@?$vector@V?$basic_string@DU?$char_traits@D@std@@V?$allocator@D@2@@std@@V?$allocator@V?$basic_string@DU?$char_traits@D@std@@V?$allocator@D@2@@std@@@2@@std@@QEAAX$$QEAV?$basic_string@DU?$char_traits@D@std@@V?$allocator@D@2@@1@@Z
    ??$min@_K@std@@YAAEB_KAEB_K0@Z
    ??$?0PEADP6AXPEAX@Z$0A@$0A@@?$unique_ptr@$$BY0A@DP6AXPEAX@Z@std@@QEAA@PEAD$$QEAP6AXPEAX@Z@Z
    ??$?0P6AXPEAX@Z$0A@@?$unique_ptr@$$BY0A@DP6AXPEAX@Z@std@@QEAA@$$QEAV01@@Z
    ??$forward@V?$basic_string@DU?$char_traits@D@std@@V?$allocator@D@2@@std@@@std@@YA$$QEAV?$basic_string@DU?$char_traits@D@std@@V?$allocator@D@2@@0@AEAV10@@Z
    ??$_Emplace_one_at_back@V?$basic_string@DU?$char_traits@D@std@@V?$allocator@D@2@@std@@@?$vector@V?$basic_string@DU?$char_traits@D@std@@V?$allocator@D@2@@std@@V?$allocator@V?$basic_string@DU?$char_traits@D@std@@V?$allocator@D@2@@std@@@2@@std@@AEAAAEAV?$basic_string@DU?$char_traits@D@std@@V?$allocator@D@2@@1@$$QEAV21@@Z
    ?allocate@?$allocator@U_Container_proxy@std@@@std@@QEAAPEAU_Container_proxy@2@_K@Z
    ??$_Delete_plain_internal@V?$allocator@U_Container_proxy@std@@@std@@@std@@YAXAEAV?$allocator@U_Container_proxy@std@@@0@QEAU_Container_proxy@0@@Z
    ??$?0V?$basic_string@DU?$char_traits@D@std@@V?$allocator@D@2@@std@@@?$allocator@U_Container_proxy@std@@@std@@QEAA@AEBV?$allocator@V?$basic_string@DU?$char_traits@D@std@@V?$allocator@D@2@@std@@@1@@Z
    ??$exchange@PEAU_Container_proxy@std@@$$T@std@@YAPEAU_Container_proxy@0@AEAPEAU10@$$QEA$$T@Z
    ??$move@AEAV?$allocator@V?$basic_string@DU?$char_traits@D@std@@V?$allocator@D@2@@std@@@std@@@std@@YA$$QEAV?$allocator@V?$basic_string@DU?$char_traits@D@std@@V?$allocator@D@2@@std@@@0@AEAV10@@Z
    ??$exchange@PEAV?$basic_string@DU?$char_traits@D@std@@V?$allocator@D@2@@std@@$$T@std@@YAPEAV?$basic_string@DU?$char_traits@D@std@@V?$allocator@D@2@@0@AEAPEAV10@$$QEA$$T@Z
    ??$?0V?$allocator@V?$basic_string@DU?$char_traits@D@std@@V?$allocator@D@2@@std@@@std@@PEAV?$basic_string@DU?$char_traits@D@std@@V?$allocator@D@2@@1@PEAV21@PEAV21@@?$_Compressed_pair@V?$allocator@V?$basic_string@DU?$char_traits@D@std@@V?$allocator@D@2@@std@@@std@@V?$_Vector_val@U?$_Simple_types@V?$basic_string@DU?$char_traits@D@std@@V?$allocator@D@2@@std@@@std@@@2@$00@std@@QEAA@U_One_then_variadic_args_t@1@$$QEAV?$allocator@V?$basic_string@DU?$char_traits@D@std@@V?$allocator@D@2@@std@@@1@$$QEAPEAV?$basic_string@DU?$char_traits@D@std@@V?$allocator@D@2@@1@22@Z
    ??$_Alloc_proxy@V?$allocator@U_Container_proxy@std@@@std@@@_Container_base12@std@@QEAAX$$QEAV?$allocator@U_Container_proxy@std@@@1@@Z
    ??$?0$$V@?$_Compressed_pair@V?$allocator@V?$basic_string@DU?$char_traits@D@std@@V?$allocator@D@2@@std@@@std@@V?$_Vector_val@U?$_Simple_types@V?$basic_string@DU?$char_traits@D@std@@V?$allocator@D@2@@std@@@std@@@2@$00@std@@QEAA@U_Zero_then_variadic_args_t@1@@Z
    ??$move@AEAV?$basic_string@DU?$char_traits@D@std@@V?$allocator@D@2@@std@@@std@@YA$$QEAV?$basic_string@DU?$char_traits@D@std@@V?$allocator@D@2@@0@AEAV10@@Z
    ??$_Convert_size@_K_K@std@@YA_K_K@Z
    ??$?0D@?$allocator@U_Container_proxy@std@@@std@@QEAA@AEBV?$allocator@D@1@@Z
    ??$move@AEAV?$allocator@D@std@@@std@@YA$$QEAV?$allocator@D@0@AEAV10@@Z
    ??$?0V?$allocator@D@std@@$$V@?$_Compressed_pair@V?$allocator@D@std@@V?$_String_val@U?$_Simple_types@D@std@@@2@$00@std@@QEAA@U_One_then_variadic_args_t@1@$$QEAV?$allocator@D@1@@Z
    ??$?0$$V@?$_Compressed_pair@V?$allocator@D@std@@V?$_String_val@U?$_Simple_types@D@std@@@2@$00@std@@QEAA@U_Zero_then_variadic_args_t@1@@Z
    ??$_Construct@$00PEBD@?$basic_string@DU?$char_traits@D@std@@V?$allocator@D@2@@std@@AEAAXQEBD_K@Z
    ??$move@AEAP6AXPEAX@Z@std@@YA$$QEAP6AXPEAX@ZAEAP6AX0@Z@Z
    ??$?0P6AXPEAX@ZAEAPEAD@?$_Compressed_pair@P6AXPEAX@ZPEAD$0A@@std@@QEAA@U_One_then_variadic_args_t@1@$$QEAP6AXPEAX@ZAEAPEAD@Z
    ??$forward@P6AXPEAX@Z@std@@YA$$QEAP6AXPEAX@ZAEAP6AX0@Z@Z
    ??$?0P6AXPEAX@ZPEAD@?$_Compressed_pair@P6AXPEAX@ZPEAD$0A@@std@@QEAA@U_One_then_variadic_args_t@1@$$QEAP6AXPEAX@Z$$QEAPEAD@Z
    ??$_Emplace_back_with_unused_capacity@V?$basic_string@DU?$char_traits@D@std@@V?$allocator@D@2@@std@@@?$vector@V?$basic_string@DU?$char_traits@D@std@@V?$allocator@D@2@@std@@V?$allocator@V?$basic_string@DU?$char_traits@D@std@@V?$allocator@D@2@@std@@@2@@std@@AEAAAEAV?$basic_string@DU?$char_traits@D@std@@V?$allocator@D@2@@1@$$QEAV21@@Z
    ??$_Emplace_reallocate@V?$basic_string@DU?$char_traits@D@std@@V?$allocator@D@2@@std@@@?$vector@V?$basic_string@DU?$char_traits@D@std@@V?$allocator@D@2@@std@@V?$allocator@V?$basic_string@DU?$char_traits@D@std@@V?$allocator@D@2@@std@@@2@@std@@AEAAPEAV?$basic_string@DU?$char_traits@D@std@@V?$allocator@D@2@@1@QEAV21@$$QEAV21@@Z
    ??$_Deallocate_plain@V?$allocator@U_Container_proxy@std@@@std@@@std@@YAXAEAV?$allocator@U_Container_proxy@std@@@0@QEAU_Container_proxy@0@@Z
    ??$forward@V?$allocator@V?$basic_string@DU?$char_traits@D@std@@V?$allocator@D@2@@std@@@std@@@std@@YA$$QEAV?$allocator@V?$basic_string@DU?$char_traits@D@std@@V?$allocator@D@2@@std@@@0@AEAV10@@Z
    ??$forward@PEAV?$basic_string@DU?$char_traits@D@std@@V?$allocator@D@2@@std@@@std@@YA$$QEAPEAV?$basic_string@DU?$char_traits@D@std@@V?$allocator@D@2@@0@AEAPEAV10@@Z
    ??$_Unfancy@U_Container_proxy@std@@@std@@YAPEAU_Container_proxy@0@PEAU10@@Z
    ??$_Construct_in_place@U_Container_proxy@std@@PEAU_Container_base12@2@@std@@YAXAEAU_Container_proxy@0@$$QEAPEAU_Container_base12@0@@Z
    ??0?$_Container_proxy_ptr12@V?$allocator@U_Container_proxy@std@@@std@@@std@@QEAA@AEAV?$allocator@U_Container_proxy@std@@@1@AEAU_Container_base12@1@@Z
    ??1?$_Container_proxy_ptr12@V?$allocator@U_Container_proxy@std@@@std@@@std@@QEAA@XZ
    ??$forward@V?$allocator@D@std@@@std@@YA$$QEAV?$allocator@D@0@AEAV10@@Z
    ??$_Allocate_for_capacity@$0A@@?$basic_string@DU?$char_traits@D@std@@V?$allocator@D@2@@std@@CAPEADAEAV?$allocator@D@1@AEA_K@Z
    ??$_Construct_in_place@PEADAEBQEAD@std@@YAXAEAPEADAEBQEAD@Z
    ??$_Unfancy@D@std@@YAPEADPEAD@Z
    ??$_Destroy_range@V?$allocator@V?$basic_string@DU?$char_traits@D@std@@V?$allocator@D@2@@std@@@std@@@std@@YAXPEAV?$basic_string@DU?$char_traits@D@std@@V?$allocator@D@2@@0@QEAV10@AEAV?$allocator@V?$basic_string@DU?$char_traits@D@std@@V?$allocator@D@2@@std@@@0@@Z
    ??$addressof@V?$_String_val@U?$_Simple_types@D@std@@@std@@@std@@YAPEAV?$_String_val@U?$_Simple_types@D@std@@@0@AEAV10@@Z
    ??$_Construct_in_place@PEADAEAPEAD@std@@YAXAEAPEAD0@Z
    ??$max@_K@std@@YAAEB_KAEB_K0@Z
    ??$_Deallocate@$0BA@@std@@YAXPEAX_K@Z
    ??$forward@AEAPEAD@std@@YAAEAPEADAEAPEAD@Z
    ??$forward@PEAD@std@@YA$$QEAPEADAEAPEAD@Z
    ??$_Construct_in_place@V?$basic_string@DU?$char_traits@D@std@@V?$allocator@D@2@@std@@V12@@std@@YAXAEAV?$basic_string@DU?$char_traits@D@std@@V?$allocator@D@2@@0@$$QEAV10@@Z
    ??$_Allocate_at_least_helper@V?$allocator@V?$basic_string@DU?$char_traits@D@std@@V?$allocator@D@2@@std@@@std@@@std@@YAPEAV?$basic_string@DU?$char_traits@D@std@@V?$allocator@D@2@@0@AEAV?$allocator@V?$basic_string@DU?$char_traits@D@std@@V?$allocator@D@2@@std@@@0@AEA_K@Z
    ??1_Reallocation_guard@?$vector@V?$basic_string@DU?$char_traits@D@std@@V?$allocator@D@2@@std@@V?$allocator@V?$basic_string@DU?$char_traits@D@std@@V?$allocator@D@2@@std@@@2@@std@@QEAA@XZ
    ??$_Unfancy@V?$basic_string@DU?$char_traits@D@std@@V?$allocator@D@2@@std@@@std@@YAPEAV?$basic_string@DU?$char_traits@D@std@@V?$allocator@D@2@@0@PEAV10@@Z
    ??$construct@V?$basic_string@DU?$char_traits@D@std@@V?$allocator@D@2@@std@@V12@@?$_Default_allocator_traits@V?$allocator@V?$basic_string@DU?$char_traits@D@std@@V?$allocator@D@2@@std@@@std@@@std@@SAXAEAV?$allocator@V?$basic_string@DU?$char_traits@D@std@@V?$allocator@D@2@@std@@@1@QEAV?$basic_string@DU?$char_traits@D@std@@V?$allocator@D@2@@1@$$QEAV31@@Z
    ??$_Uninitialized_move@PEAV?$basic_string@DU?$char_traits@D@std@@V?$allocator@D@2@@std@@V?$allocator@V?$basic_string@DU?$char_traits@D@std@@V?$allocator@D@2@@std@@@2@@std@@YAPEAV?$basic_string@DU?$char_traits@D@std@@V?$allocator@D@2@@0@QEAV10@0PEAV10@AEAV?$allocator@V?$basic_string@DU?$char_traits@D@std@@V?$allocator@D@2@@std@@@0@@Z
    ?deallocate@?$_Default_allocator_traits@V?$allocator@U_Container_proxy@std@@@std@@@std@@SAXAEAV?$allocator@U_Container_proxy@std@@@2@QEAU_Container_proxy@2@_K@Z
    ??$addressof@U_Container_proxy@std@@@std@@YAPEAU_Container_proxy@0@AEAU10@@Z
    ??$forward@PEAU_Container_base12@std@@@std@@YA$$QEAPEAU_Container_base12@0@AEAPEAU10@@Z
    ??$_Allocate_at_least_helper@V?$allocator@D@std@@@std@@YAPEADAEAV?$allocator@D@0@AEA_K@Z
    ??$addressof@PEAD@std@@YAPEAPEADAEAPEAD@Z
    ??$forward@AEBQEAD@std@@YAAEBQEADAEBQEAD@Z
    ??$destroy@V?$basic_string@DU?$char_traits@D@std@@V?$allocator@D@2@@std@@@?$_Default_allocator_traits@V?$allocator@V?$basic_string@DU?$char_traits@D@std@@V?$allocator@D@2@@std@@@std@@@std@@SAXAEAV?$allocator@V?$basic_string@DU?$char_traits@D@std@@V?$allocator@D@2@@std@@@1@QEAV?$basic_string@DU?$char_traits@D@std@@V?$allocator@D@2@@1@@Z
    ??$addressof@U_Container_base12@std@@@std@@YAPEAU_Container_base12@0@AEAU10@@Z
    ??$_Get_size_of_n@$0BA@@std@@YA_K_K@Z
    ??$_Allocate@$0BA@U_Default_allocate_traits@std@@@std@@YAPEAX_K@Z
    ??$exchange@PEAD$$T@std@@YAPEADAEAPEAD$$QEA$$T@Z
    ??$_Destroy_in_place@PEAD@std@@YAXAEAPEAD@Z
    ??$_Max_limit@_J@std@@YA_JXZ
    ??$addressof@V?$basic_string@DU?$char_traits@D@std@@V?$allocator@D@2@@std@@@std@@YAPEAV?$basic_string@DU?$char_traits@D@std@@V?$allocator@D@2@@0@AEAV10@@Z
    ??$_Get_unwrapped@AEBQEAV?$basic_string@DU?$char_traits@D@std@@V?$allocator@D@2@@std@@@std@@YA?A_TAEBQEAV?$basic_string@DU?$char_traits@D@std@@V?$allocator@D@2@@0@@Z
    ??0?$_Uninitialized_backout_al@V?$allocator@V?$basic_string@DU?$char_traits@D@std@@V?$allocator@D@2@@std@@@std@@@std@@QEAA@PEAV?$basic_string@DU?$char_traits@D@std@@V?$allocator@D@2@@1@AEAV?$allocator@V?$basic_string@DU?$char_traits@D@std@@V?$allocator@D@2@@std@@@1@@Z
    ??1?$_Uninitialized_backout_al@V?$allocator@V?$basic_string@DU?$char_traits@D@std@@V?$allocator@D@2@@std@@@std@@@std@@QEAA@XZ
    ?_Release@?$_Uninitialized_backout_al@V?$allocator@V?$basic_string@DU?$char_traits@D@std@@V?$allocator@D@2@@std@@@std@@@std@@QEAAPEAV?$basic_string@DU?$char_traits@D@std@@V?$allocator@D@2@@2@XZ
    ??$_Emplace_back@V?$basic_string@DU?$char_traits@D@std@@V?$allocator@D@2@@std@@@?$_Uninitialized_backout_al@V?$allocator@V?$basic_string@DU?$char_traits@D@std@@V?$allocator@D@2@@std@@@std@@@std@@QEAAX$$QEAV?$basic_string@DU?$char_traits@D@std@@V?$allocator@D@2@@1@@Z
    ??$_Allocate_manually_vector_aligned@U_Default_allocate_traits@std@@@std@@YAPEAX_K@Z
    ??$_Get_size_of_n@$0CI@@std@@YA_K_K@Z
    ??$_Get_size_of_n@$00@std@@YA_K_K@Z
    ??_7exception@std@@6B@
    ??_C@_0BC@EOODALEL@Unknown?5exception@
    ??_7bad_alloc@std@@6B@
    ??_7bad_array_new_length@std@@6B@
    ??_C@_0BF@KINCDENJ@bad?5array?5new?5length@
    ??_R0?AVexception@std@@@8
    _CT??_R0?AVexception@std@@@8??0exception@std@@QEAA@AEBV01@@Z24
    _TI3?AVbad_array_new_length@std@@
    _CTA3?AVbad_array_new_length@std@@
    ??_R0?AVbad_array_new_length@std@@@8
    _CT??_R0?AVbad_array_new_length@std@@@8??0bad_array_new_length@std@@QEAA@AEBV01@@Z24
    ??_R0?AVbad_alloc@std@@@8
    _CT??_R0?AVbad_alloc@std@@@8??0bad_alloc@std@@QEAA@AEBV01@@Z24
    ??_C@_0BB@FCMFBGOM@invalid?5argument@
    ??_C@_02DKCKIIND@?$CFs@
    ??_C@_0GC@KLECFGLI@C?3?2Program?5Files?2Microsoft?5Visu@
    ??_C@_0BA@JFNIOLAK@string?5too?5long@
    ??_C@_0DG@KGHKKGBC@null?5pointer?5cannot?5point?5to?5a?5@
    ??_C@_0BA@FOIKENOD@vector?5too?5long@
    ??_R4exception@std@@6B@
    ??_R3exception@std@@8
    ??_R2exception@std@@8
    ??_R1A@?0A@EA@exception@std@@8
    ??_R4bad_array_new_length@std@@6B@
    ??_R3bad_array_new_length@std@@8
    ??_R2bad_array_new_length@std@@8
    ??_R1A@?0A@EA@bad_array_new_length@std@@8
    ??_R1A@?0A@EA@bad_alloc@std@@8
    ??_R3bad_alloc@std@@8
    ??_R2bad_alloc@std@@8
    ??_R4bad_alloc@std@@6B@
    ?__empty_global_delete@@YAXPEAX@Z
    ?__empty_global_delete@@YAXPEAX_K@Z
    ??2@YAPEAX_KPEAX@Z
    ??0exception@std@@QEAA@QEBDH@Z
    ??0exception@std@@QEAA@AEBV01@@Z
    ??1exception@std@@UEAA@XZ
    ?what@exception@std@@UEBAPEBDXZ
    ??0bad_alloc@std@@AEAA@QEBD@Z
    ??1bad_alloc@std@@UEAA@XZ
    ??0bad_alloc@std@@QEAA@AEBV01@@Z
    ??0bad_array_new_length@std@@QEAA@XZ
    ??1bad_array_new_length@std@@UEAA@XZ
    ??0bad_array_new_length@std@@QEAA@AEBV01@@Z
    ?copy@?$_Char_traits@DH@std@@SAPEADQEADQEBD_K@Z
    ?length@?$_Narrow_char_traits@DH@std@@SA_KQEBD@Z
    ?assign@?$_Narrow_char_traits@DH@std@@SAXAEADAEBD@Z
    ?_Throw_bad_array_new_length@std@@YAXXZ
    ?_Allocate@_Default_allocate_traits@std@@SAPEAX_K@Z
    ?_Adjust_manually_vector_aligned@std@@YAXAEAPEAXAEA_K@Z
    ??0_Container_proxy@std@@QEAA@PEAU_Container_base12@1@@Z
    ??0_Container_base12@std@@QEAA@XZ
    ?_Orphan_all@_Container_base12@std@@QEAAXXZ
    ?_Swap_proxy_and_iterators@_Container_base12@std@@QEAAXAEAU12@@Z
    ?_Orphan_all_unlocked_v3@_Container_base12@std@@AEAAXXZ
    ?_Swap_proxy_and_iterators_unlocked@_Container_base12@std@@AEAAXAEAU12@@Z
    ?_Orphan_all_locked_v3@_Container_base12@std@@AEAAXXZ
    ?_Swap_proxy_and_iterators_locked@_Container_base12@std@@AEAAXAEAU12@@Z
    ??$exchange@PEAU_Iterator_base12@std@@$$T@std@@YAPEAU_Iterator_base12@0@AEAPEAU10@$$QEA$$T@Z
    ?_Release@_Basic_container_proxy_ptr12@std@@QEAAXXZ
    ??0_Basic_container_proxy_ptr12@std@@IEAA@XZ
    ?_Xlen_string@std@@YAXXZ
    ??0?$allocator@D@std@@QEAA@XZ
    ?deallocate@?$allocator@D@std@@QEAAXQEAD_K@Z
    ?allocate@?$allocator@D@std@@QEAAPEAD_K@Z
    ?max_size@?$_Default_allocator_traits@V?$allocator@D@std@@@std@@SA_KAEBV?$allocator@D@2@@Z
    ??0?$_String_val@U?$_Simple_types@D@std@@@std@@QEAA@XZ
    ?_Myptr@?$_String_val@U?$_Simple_types@D@std@@@std@@QEBAPEBDXZ
    ?_Large_mode_engaged@?$_String_val@U?$_Simple_types@D@std@@@std@@QEBA_NXZ
    ?_Activate_SSO_buffer@?$_String_val@U?$_Simple_types@D@std@@@std@@QEAAXXZ
    ??0_Bxty@?$_String_val@U?$_Simple_types@D@std@@@std@@QEAA@XZ
    ??1_Bxty@?$_String_val@U?$_Simple_types@D@std@@@std@@QEAA@XZ
    ?_Switch_to_buf@_Bxty@?$_String_val@U?$_Simple_types@D@std@@@std@@QEAAXXZ
    ??1?$_String_val@U?$_Simple_types@D@std@@@std@@QEAA@XZ
    ??0?$basic_string@DU?$char_traits@D@std@@V?$allocator@D@2@@std@@QEAA@XZ
    ??0?$basic_string@DU?$char_traits@D@std@@V?$allocator@D@2@@std@@QEAA@QEBD@Z
    ?_Deallocate_for_capacity@?$basic_string@DU?$char_traits@D@std@@V?$allocator@D@2@@std@@CAXAEAV?$allocator@D@2@QEAD_K@Z
    ?_Construct_empty@?$basic_string@DU?$char_traits@D@std@@V?$allocator@D@2@@std@@AEAAXXZ
    ??0?$basic_string@DU?$char_traits@D@std@@V?$allocator@D@2@@std@@QEAA@$$QEAV01@@Z
    ?_Take_contents@?$basic_string@DU?$char_traits@D@std@@V?$allocator@D@2@@std@@AEAAXAEAV12@@Z
    ??1?$basic_string@DU?$char_traits@D@std@@V?$allocator@D@2@@std@@QEAA@XZ
    ?c_str@?$basic_string@DU?$char_traits@D@std@@V?$allocator@D@2@@std@@QEBAPEBDXZ
    ?max_size@?$basic_string@DU?$char_traits@D@std@@V?$allocator@D@2@@std@@QEBA_KXZ
    ?_Calculate_growth@?$basic_string@DU?$char_traits@D@std@@V?$allocator@D@2@@std@@CA_K_K00@Z
    ?_Tidy_deallocate@?$basic_string@DU?$char_traits@D@std@@V?$allocator@D@2@@std@@AEAAXXZ
    ?_Swap_proxy_and_iterators@?$basic_string@DU?$char_traits@D@std@@V?$allocator@D@2@@std@@AEAAXAEAV12@@Z
    ?_Getal@?$basic_string@DU?$char_traits@D@std@@V?$allocator@D@2@@std@@AEAAAEAV?$allocator@D@2@XZ
    ?_Getal@?$basic_string@DU?$char_traits@D@std@@V?$allocator@D@2@@std@@AEBAAEBV?$allocator@D@2@XZ
    ?_Get_first@?$_Compressed_pair@V?$allocator@D@std@@V?$_String_val@U?$_Simple_types@D@std@@@2@$00@std@@QEAAAEAV?$allocator@D@2@XZ
    ?_Get_first@?$_Compressed_pair@V?$allocator@D@std@@V?$_String_val@U?$_Simple_types@D@std@@@2@$00@std@@QEBAAEBV?$allocator@D@2@XZ
    ??1?$_Compressed_pair@V?$allocator@D@std@@V?$_String_val@U?$_Simple_types@D@std@@@2@$00@std@@QEAA@XZ
    ?convert_const_gchar_ptr_to_stdstring@Glib@@YA?AV?$basic_string@DU?$char_traits@D@std@@V?$allocator@D@2@@std@@PEBD@Z
    ??$make_unique_ptr_gfree@D@Glib@@YA?AV?$unique_ptr@$$BY0A@DP6AXPEAX@Z@std@@PEAD@Z
    ??1?$unique_ptr@$$BY0A@DP6AXPEAX@Z@std@@QEAA@XZ
    ?get_deleter@?$unique_ptr@$$BY0A@DP6AXPEAX@Z@std@@QEAAAEAP6AXPEAX@ZXZ
    ?get@?$unique_ptr@$$BY0A@DP6AXPEAX@Z@std@@QEBAPEADXZ
    ?release@?$unique_ptr@$$BY0A@DP6AXPEAX@Z@std@@QEAAPEADXZ
    ?_Get_first@?$_Compressed_pair@P6AXPEAX@ZPEAD$0A@@std@@QEAAAEAP6AXPEAX@ZXZ
    ?convert_return_gchar_ptr_to_stdstring@Glib@@YA?AV?$basic_string@DU?$char_traits@D@std@@V?$allocator@D@2@@std@@PEAD@Z
    ??0Module@Glib@@QEAA@AEBV?$basic_string@DU?$char_traits@D@std@@V?$allocator@D@2@@std@@W4ModuleFlags@1@@Z
    ??0Module@Glib@@QEAA@$$QEAV01@@Z
    ??4Module@Glib@@QEAAAEAV01@$$QEAV01@@Z
    ??1Module@Glib@@UEAA@XZ
    ??BModule@Glib@@QEBA_NXZ
    ?get_supported@Module@Glib@@SA_NXZ
    ?make_resident@Module@Glib@@QEAAXXZ
    ?get_last_error@Module@Glib@@SA?AV?$basic_string@DU?$char_traits@D@std@@V?$allocator@D@2@@std@@XZ
    ?get_symbol@Module@Glib@@QEBA_NAEBV?$basic_string@DU?$char_traits@D@std@@V?$allocator@D@2@@std@@AEAPEAX@Z
    ?get_name@Module@Glib@@QEBA?AV?$basic_string@DU?$char_traits@D@std@@V?$allocator@D@2@@std@@XZ
    ?build_path@Module@Glib@@SA?AV?$basic_string@DU?$char_traits@D@std@@V?$allocator@D@2@@std@@AEBV34@0@Z
    ?gobj@Module@Glib@@QEAAPEAU_GModule@@XZ
    ?gobj@Module@Glib@@QEBAPEBU_GModule@@XZ
    ??$move@AEAPEAU_GModule@@@std@@YA$$QEAPEAU_GModule@@AEAPEAU1@@Z
    ??$min@_K@std@@YAAEB_KAEB_K0@Z
    ??$?0PEADP6AXPEAX@Z$0A@$0A@@?$unique_ptr@$$BY0A@DP6AXPEAX@Z@std@@QEAA@PEAD$$QEAP6AXPEAX@Z@Z
    ??$?0P6AXPEAX@Z$0A@@?$unique_ptr@$$BY0A@DP6AXPEAX@Z@std@@QEAA@$$QEAV01@@Z
    ?allocate@?$allocator@U_Container_proxy@std@@@std@@QEAAPEAU_Container_proxy@2@_K@Z
    ??$_Delete_plain_internal@V?$allocator@U_Container_proxy@std@@@std@@@std@@YAXAEAV?$allocator@U_Container_proxy@std@@@0@QEAU_Container_proxy@0@@Z
    ??$_Alloc_proxy@V?$allocator@U_Container_proxy@std@@@std@@@_Container_base12@std@@QEAAX$$QEAV?$allocator@U_Container_proxy@std@@@1@@Z
    ??$_Convert_size@_K_K@std@@YA_K_K@Z
    ??$?0D@?$allocator@U_Container_proxy@std@@@std@@QEAA@AEBV?$allocator@D@1@@Z
    ??$move@AEAV?$allocator@D@std@@@std@@YA$$QEAV?$allocator@D@0@AEAV10@@Z
    ??$?0V?$allocator@D@std@@$$V@?$_Compressed_pair@V?$allocator@D@std@@V?$_String_val@U?$_Simple_types@D@std@@@2@$00@std@@QEAA@U_One_then_variadic_args_t@1@$$QEAV?$allocator@D@1@@Z
    ??$?0$$V@?$_Compressed_pair@V?$allocator@D@std@@V?$_String_val@U?$_Simple_types@D@std@@@2@$00@std@@QEAA@U_Zero_then_variadic_args_t@1@@Z
    ??$_Construct@$00PEBD@?$basic_string@DU?$char_traits@D@std@@V?$allocator@D@2@@std@@AEAAXQEBD_K@Z
    ??$move@AEAP6AXPEAX@Z@std@@YA$$QEAP6AXPEAX@ZAEAP6AX0@Z@Z
    ??$?0P6AXPEAX@ZAEAPEAD@?$_Compressed_pair@P6AXPEAX@ZPEAD$0A@@std@@QEAA@U_One_then_variadic_args_t@1@$$QEAP6AXPEAX@ZAEAPEAD@Z
    ??$forward@P6AXPEAX@Z@std@@YA$$QEAP6AXPEAX@ZAEAP6AX0@Z@Z
    ??$?0P6AXPEAX@ZPEAD@?$_Compressed_pair@P6AXPEAX@ZPEAD$0A@@std@@QEAA@U_One_then_variadic_args_t@1@$$QEAP6AXPEAX@Z$$QEAPEAD@Z
    ??$_Deallocate_plain@V?$allocator@U_Container_proxy@std@@@std@@@std@@YAXAEAV?$allocator@U_Container_proxy@std@@@0@QEAU_Container_proxy@0@@Z
    ??0?$_Container_proxy_ptr12@V?$allocator@U_Container_proxy@std@@@std@@@std@@QEAA@AEAV?$allocator@U_Container_proxy@std@@@1@AEAU_Container_base12@1@@Z
    ??1?$_Container_proxy_ptr12@V?$allocator@U_Container_proxy@std@@@std@@@std@@QEAA@XZ
    ??$_Unfancy@U_Container_proxy@std@@@std@@YAPEAU_Container_proxy@0@PEAU10@@Z
    ??$_Construct_in_place@U_Container_proxy@std@@PEAU_Container_base12@2@@std@@YAXAEAU_Container_proxy@0@$$QEAPEAU_Container_base12@0@@Z
    ??$forward@V?$allocator@D@std@@@std@@YA$$QEAV?$allocator@D@0@AEAV10@@Z
    ??$_Allocate_for_capacity@$0A@@?$basic_string@DU?$char_traits@D@std@@V?$allocator@D@2@@std@@CAPEADAEAV?$allocator@D@1@AEA_K@Z
    ??$_Construct_in_place@PEADAEBQEAD@std@@YAXAEAPEADAEBQEAD@Z
    ??$_Unfancy@D@std@@YAPEADPEAD@Z
    ??$addressof@V?$_String_val@U?$_Simple_types@D@std@@@std@@@std@@YAPEAV?$_String_val@U?$_Simple_types@D@std@@@0@AEAV10@@Z
    ??$_Construct_in_place@PEADAEAPEAD@std@@YAXAEAPEAD0@Z
    ??$max@_K@std@@YAAEB_KAEB_K0@Z
    ??$_Deallocate@$0BA@@std@@YAXPEAX_K@Z
    ??$forward@AEAPEAD@std@@YAAEAPEADAEAPEAD@Z
    ??$forward@PEAD@std@@YA$$QEAPEADAEAPEAD@Z
    ?deallocate@?$_Default_allocator_traits@V?$allocator@U_Container_proxy@std@@@std@@@std@@SAXAEAV?$allocator@U_Container_proxy@std@@@2@QEAU_Container_proxy@2@_K@Z
    ??$addressof@U_Container_proxy@std@@@std@@YAPEAU_Container_proxy@0@AEAU10@@Z
    ??$forward@PEAU_Container_base12@std@@@std@@YA$$QEAPEAU_Container_base12@0@AEAPEAU10@@Z
    ??$_Allocate_at_least_helper@V?$allocator@D@std@@@std@@YAPEADAEAV?$allocator@D@0@AEA_K@Z
    ??$addressof@PEAD@std@@YAPEAPEADAEAPEAD@Z
    ??$forward@AEBQEAD@std@@YAAEBQEADAEBQEAD@Z
    ??$addressof@U_Container_base12@std@@@std@@YAPEAU_Container_base12@0@AEAU10@@Z
    ??$_Get_size_of_n@$0BA@@std@@YA_K_K@Z
    ??$_Allocate@$0BA@U_Default_allocate_traits@std@@@std@@YAPEAX_K@Z
    ??$exchange@PEAD$$T@std@@YAPEADAEAPEAD$$QEA$$T@Z
    ??$_Destroy_in_place@PEAD@std@@YAXAEAPEAD@Z
    ??$_Max_limit@_J@std@@YA_JXZ
    ??$_Allocate_manually_vector_aligned@U_Default_allocate_traits@std@@@std@@YAPEAX_K@Z
    ??$_Get_size_of_n@$00@std@@YA_K_K@Z
    ??_7exception@std@@6B@
    ??_C@_0BC@EOODALEL@Unknown?5exception@
    ??_7bad_alloc@std@@6B@
    ??_7bad_array_new_length@std@@6B@
    ??_C@_0BF@KINCDENJ@bad?5array?5new?5length@
    ??_R0?AVexception@std@@@8
    _CT??_R0?AVexception@std@@@8??0exception@std@@QEAA@AEBV01@@Z24
    _TI3?AVbad_array_new_length@std@@
    _CTA3?AVbad_array_new_length@std@@
    ??_R0?AVbad_array_new_length@std@@@8
    _CT??_R0?AVbad_array_new_length@std@@@8??0bad_array_new_length@std@@QEAA@AEBV01@@Z24
    ??_R0?AVbad_alloc@std@@@8
    _CT??_R0?AVbad_alloc@std@@@8??0bad_alloc@std@@QEAA@AEBV01@@Z24
    ??_C@_0BB@FCMFBGOM@invalid?5argument@
    ??_C@_02DKCKIIND@?$CFs@
    ??_C@_0GC@KLECFGLI@C?3?2Program?5Files?2Microsoft?5Visu@
    ??_C@_0BA@JFNIOLAK@string?5too?5long@
    ??_7Module@Glib@@6B@
    ??_C@_0DG@KGHKKGBC@null?5pointer?5cannot?5point?5to?5a?5@
    ??_R4exception@std@@6B@
    ??_R3exception@std@@8
    ??_R2exception@std@@8
    ??_R1A@?0A@EA@exception@std@@8
    ??_R4bad_array_new_length@std@@6B@
    ??_R3bad_array_new_length@std@@8
    ??_R2bad_array_new_length@std@@8
    ??_R1A@?0A@EA@bad_array_new_length@std@@8
    ??_R1A@?0A@EA@bad_alloc@std@@8
    ??_R3bad_alloc@std@@8
    ??_R2bad_alloc@std@@8
    ??_R4bad_alloc@std@@6B@
    ??_R4Module@Glib@@6B@
    ??_R0?AVModule@Glib@@@8
    ??_R3Module@Glib@@8
    ??_R2Module@Glib@@8
    ??_R1A@?0A@EA@Module@Glib@@8
    ?__empty_global_delete@@YAXPEAX@Z
    ?__empty_global_delete@@YAXPEAX_K@Z
    ?object_class_@Object@Glib@@0VObject_Class@2@A
    ?__empty_global_delete@@YAXPEAX@Z
    ?__empty_global_delete@@YAXPEAX_K@Z
    ?get_type@Class@Glib@@QEBA_KXZ
    ??BQueryQuark@Glib@@QEBAIXZ
    ?id@QueryQuark@Glib@@QEBAIXZ
    ?gobj@ObjectBase@Glib@@QEAAPEAU_GObject@@XZ
    ??0ConstructParams@Glib@@QEAA@AEBVClass@1@@Z
    ??0ConstructParams@Glib@@QEAA@AEBVClass@1@PEBDZZ
    ??1ConstructParams@Glib@@QEAA@XZ
    ??0ConstructParams@Glib@@QEAA@AEBV01@@Z
    ??0Object@Glib@@QEAA@$$QEAV01@@Z
    ??4Object@Glib@@QEAAAEAV01@$$QEAV01@@Z
    ??0Object@Glib@@IEAA@XZ
    ??0Object@Glib@@IEAA@AEBVConstructParams@1@@Z
    ??0Object@Glib@@IEAA@PEAU_GObject@@@Z
    ??1Object@Glib@@MEAA@XZ
    ?get_type@Object@Glib@@SA_KXZ
    ?get_base_type@Object@Glib@@SA_KXZ
    ?get_data@Object@Glib@@QEAAPEAXAEBVQueryQuark@2@@Z
    ?set_data@Object@Glib@@QEAAXAEBVQuark@2@PEAX@Z
    ?set_data@Object@Glib@@QEAAXAEBVQuark@2@PEAXP6AX1@Z@Z
    ?remove_data@Object@Glib@@QEAAXAEBVQueryQuark@2@@Z
    ?steal_data@Object@Glib@@QEAAPEAXAEBVQueryQuark@2@@Z
    ??_DObject@Glib@@IEAAXXZ
    ?class_init_function@Object_Class@Glib@@SAXPEAX0@Z
    ?init@Object_Class@Glib@@QEAAAEBVClass@2@XZ
    ?wrap_new@Object_Class@Glib@@SAPEAVObject@2@PEAU_GObject@@@Z
    ??$move@AEAVObject@Glib@@@std@@YA$$QEAVObject@Glib@@AEAV12@@Z
    ??_7Object@Glib@@6B@
    ??_8Object@Glib@@7B01@@
    ??_8Object@Glib@@7BObjectBase@1@@
    ??_R4Object@Glib@@6B@
    ??_R0?AVObject@Glib@@@8
    ??_R3Object@Glib@@8
    ??_R2Object@Glib@@8
    ??_R1A@?0A@EA@Object@Glib@@8
    ??_R1A@A@7FA@ObjectBase@Glib@@8
    ??_R0?AVObjectBase@Glib@@@8
    ??_R3ObjectBase@Glib@@8
    ??_R2ObjectBase@Glib@@8
    ??_R1A@?0A@EA@ObjectBase@Glib@@8
    ??_R1A@73FA@trackable@sigc@@8
    ??_R0?AUtrackable@sigc@@@8
    ??_R3trackable@sigc@@8
    ??_R2trackable@sigc@@8
    ??_R1A@?0A@EA@trackable@sigc@@8
    ??_R1A@A@3FA@trackable@sigc@@8
    ?extra_object_base_data_mutex@ObjectBase@Glib@@0Vmutex@std@@A
    ?__empty_global_delete@@YAXPEAX@Z
    ?__empty_global_delete@@YAXPEAX_K@Z
    ??2@YAPEAX_KPEAX@Z
    ??0exception@std@@QEAA@QEBDH@Z
    ??0exception@std@@QEAA@AEBV01@@Z
    ??1exception@std@@UEAA@XZ
    ?what@exception@std@@UEBAPEBDXZ
    ??0bad_alloc@std@@AEAA@QEBD@Z
    ??1bad_alloc@std@@UEAA@XZ
    ??0bad_alloc@std@@QEAA@AEBV01@@Z
    ??0bad_array_new_length@std@@QEAA@XZ
    ??1bad_array_new_length@std@@UEAA@XZ
    ??0bad_array_new_length@std@@QEAA@AEBV01@@Z
    ?_Throw_bad_array_new_length@std@@YAXXZ
    ?_Allocate@_Default_allocate_traits@std@@SAPEAX_K@Z
    ?_Adjust_manually_vector_aligned@std@@YAXAEAPEAXAEA_K@Z
    ?_Adopt@_Iterator_base0@std@@QEAAXPEBX@Z
    ??0_Container_proxy@std@@QEAA@PEAU_Container_base12@1@@Z
    ??0_Container_base12@std@@QEAA@XZ
    ?_Orphan_all@_Container_base12@std@@QEAAXXZ
    ?_Orphan_all_unlocked_v3@_Container_base12@std@@AEAAXXZ
    ?_Orphan_all_locked_v3@_Container_base12@std@@AEAAXXZ
    ??0_Iterator_base12@std@@QEAA@XZ
    ??0_Iterator_base12@std@@QEAA@AEBU01@@Z
    ??4_Iterator_base12@std@@QEAAAEAU01@AEBU01@@Z
    ??1_Iterator_base12@std@@QEAA@XZ
    ?_Adopt@_Iterator_base12@std@@QEAAXPEBU_Container_base12@2@@Z
    ?_Getcont@_Iterator_base12@std@@QEBAPEBU_Container_base12@2@XZ
    ?_Assign_unlocked@_Iterator_base12@std@@AEAAXAEBU12@@Z
    ?_Assign_locked@_Iterator_base12@std@@AEAAXAEBU12@@Z
    ?_Adopt_unlocked@_Iterator_base12@std@@AEAAXPEBU_Container_base12@2@@Z
    ?_Adopt_locked@_Iterator_base12@std@@AEAAXPEBU_Container_base12@2@@Z
    ?_Orphan_me_unlocked_v3@_Iterator_base12@std@@AEAAXXZ
    ?_Orphan_me_locked_v3@_Iterator_base12@std@@AEAAXXZ
    ??$exchange@PEAU_Iterator_base12@std@@$$T@std@@YAPEAU_Iterator_base12@0@AEAPEAU10@$$QEA$$T@Z
    ?_Release@_Basic_container_proxy_ptr12@std@@QEAAXXZ
    ??0_Basic_container_proxy_ptr12@std@@IEAA@XZ
    ?name@type_info@@QEBAPEBDXZ
    ??0?$tuple@$$V@std@@QEAA@AEBV01@@Z
    ?gobj@ValueBase@Glib@@QEAAPEAU_GValue@@XZ
    ?gobj@ValueBase@Glib@@QEBAPEBU_GValue@@XZ
    ?_Throw_tree_length_error@std@@YAXXZ
    ?lock@_Mutex_base@std@@QEAAXXZ
    ?unlock@_Mutex_base@std@@QEAAXXZ
    ?_Verify_ownership_levels@_Mutex_base@std@@IEAA_NXZ
    ?_Mymtx@_Mutex_base@std@@AEAAPEAU_Mtx_internal_imp_t@@XZ
    ??0?$lock_guard@Vmutex@std@@@std@@QEAA@AEAVmutex@1@@Z
    ??1?$lock_guard@Vmutex@std@@@std@@QEAA@XZ
    ??0ObjectBase@Glib@@IEAA@XZ
    ??0ObjectBase@Glib@@IEAA@PEBD@Z
    ??0ObjectBase@Glib@@IEAA@AEBVtype_info@@@Z
    ??0ObjectBase@Glib@@IEAA@$$QEAV01@@Z
    ??4ObjectBase@Glib@@IEAAAEAV01@$$QEAV01@@Z
    ??1ObjectBase@Glib@@MEAA@XZ
    ?initialize@ObjectBase@Glib@@IEAAXPEAU_GObject@@@Z
    ?initialize_move@ObjectBase@Glib@@IEAAXPEAU_GObject@@PEAV12@@Z
    ?set_property_value@ObjectBase@Glib@@QEAAXAEBVustring@2@AEBVValueBase@2@@Z
    ?get_property_value@ObjectBase@Glib@@QEBAXAEBVustring@2@AEAVValueBase@2@@Z
    ?connect_property_changed@ObjectBase@Glib@@QEAAXAEBVustring@2@AEBV?$slot@XUnil@sigc@@U12@U12@U12@U12@U12@U12@@sigc@@@Z
    ?connect_property_changed@ObjectBase@Glib@@QEAAXAEBVustring@2@$$QEAV?$slot@XUnil@sigc@@U12@U12@U12@U12@U12@U12@@sigc@@@Z
    ?connect_property_changed_with_return@ObjectBase@Glib@@QEAA?AUconnection@sigc@@AEBVustring@2@AEBV?$slot@XUnil@sigc@@U12@U12@U12@U12@U12@U12@@4@@Z
    ?connect_property_changed_with_return@ObjectBase@Glib@@QEAA?AUconnection@sigc@@AEBVustring@2@$$QEAV?$slot@XUnil@sigc@@U12@U12@U12@U12@U12@U12@@4@@Z
    ?freeze_notify@ObjectBase@Glib@@QEAAXXZ
    ?thaw_notify@ObjectBase@Glib@@QEAAXXZ
    ?reference@ObjectBase@Glib@@UEBAXXZ
    ?unreference@ObjectBase@Glib@@UEBAXXZ
    ?gobj@ObjectBase@Glib@@QEAAPEAU_GObject@@XZ
    ?gobj@ObjectBase@Glib@@QEBAPEBU_GObject@@XZ
    ?gobj_copy@ObjectBase@Glib@@QEBAPEAU_GObject@@XZ
    ?_get_current_wrapper@ObjectBase@Glib@@SAPEAV12@PEAU_GObject@@@Z
    ?_cpp_destruction_is_in_progress@ObjectBase@Glib@@QEBA_NXZ
    ?is_anonymous_custom_@ObjectBase@Glib@@IEBA_NXZ
    ?add_custom_interface_class@ObjectBase@Glib@@IEAAXPEBVInterface_Class@2@@Z
    ?add_custom_class_init_function@ObjectBase@Glib@@IEAAXP6AXPEAX0@Z0@Z
    ?set_custom_instance_init_function@ObjectBase@Glib@@IEAAXP6AXPEAU_GTypeInstance@@PEAX@Z@Z
    ?get_custom_interface_classes@ObjectBase@Glib@@IEBAPEBV?$vector@PEBVInterface_Class@Glib@@V?$allocator@PEBVInterface_Class@Glib@@@std@@@std@@XZ
    ?get_custom_class_init_functions@ObjectBase@Glib@@IEBAPEBV?$vector@V?$tuple@P6AXPEAX0@ZPEAX@std@@V?$allocator@V?$tuple@P6AXPEAX0@ZPEAX@std@@@2@@std@@XZ
    ?get_custom_instance_init_function@ObjectBase@Glib@@IEBAP6AXPEAU_GTypeInstance@@PEAX@ZXZ
    ?custom_class_init_finished@ObjectBase@Glib@@IEAAXXZ
    ?is_derived_@ObjectBase@Glib@@QEBA_NXZ
    ?destroy_notify_callback_@ObjectBase@Glib@@KAXPEAX@Z
    ?destroy_notify_@ObjectBase@Glib@@MEAAXXZ
    ?_set_current_wrapper@ObjectBase@Glib@@IEAAXPEAU_GObject@@@Z
    ?_move_current_wrapper@ObjectBase@Glib@@IEAAXPEAU_GObject@@PEAV12@@Z
    ?set_manage@ObjectBase@Glib@@EEAAXXZ
    ??0?$allocator@PEBVInterface_Class@Glib@@@std@@QEAA@XZ
    ?deallocate@?$allocator@PEBVInterface_Class@Glib@@@std@@QEAAXQEAPEBVInterface_Class@Glib@@_K@Z
    ?allocate@?$allocator@PEBVInterface_Class@Glib@@@std@@QEAAPEAPEBVInterface_Class@Glib@@_K@Z
    ?max_size@?$_Default_allocator_traits@V?$allocator@PEBVInterface_Class@Glib@@@std@@@std@@SA_KAEBV?$allocator@PEBVInterface_Class@Glib@@@2@@Z
    ??0?$vector@PEBVInterface_Class@Glib@@V?$allocator@PEBVInterface_Class@Glib@@@std@@@std@@QEAA@XZ
    ??1?$vector@PEBVInterface_Class@Glib@@V?$allocator@PEBVInterface_Class@Glib@@@std@@@std@@QEAA@XZ
    ?max_size@?$vector@PEBVInterface_Class@Glib@@V?$allocator@PEBVInterface_Class@Glib@@@std@@@std@@QEBA_KXZ
    ?capacity@?$vector@PEBVInterface_Class@Glib@@V?$allocator@PEBVInterface_Class@Glib@@@std@@@std@@QEBA_KXZ
    ?_Calculate_growth@?$vector@PEBVInterface_Class@Glib@@V?$allocator@PEBVInterface_Class@Glib@@@std@@@std@@AEBA_K_K@Z
    ?_Change_array@?$vector@PEBVInterface_Class@Glib@@V?$allocator@PEBVInterface_Class@Glib@@@std@@@std@@AEAAXQEAPEBVInterface_Class@Glib@@_K1@Z
    ?_Tidy@?$vector@PEBVInterface_Class@Glib@@V?$allocator@PEBVInterface_Class@Glib@@@std@@@std@@AEAAXXZ
    ?_Xlength@?$vector@PEBVInterface_Class@Glib@@V?$allocator@PEBVInterface_Class@Glib@@@std@@@std@@CAXXZ
    ?_Orphan_range_unlocked@?$vector@PEBVInterface_Class@Glib@@V?$allocator@PEBVInterface_Class@Glib@@@std@@@std@@AEBAXPEAPEBVInterface_Class@Glib@@0@Z
    ?_Orphan_range_locked@?$vector@PEBVInterface_Class@Glib@@V?$allocator@PEBVInterface_Class@Glib@@@std@@@std@@AEBAXPEAPEBVInterface_Class@Glib@@0@Z
    ?_Orphan_range@?$vector@PEBVInterface_Class@Glib@@V?$allocator@PEBVInterface_Class@Glib@@@std@@@std@@AEBAXPEAPEBVInterface_Class@Glib@@0@Z
    ?_Getal@?$vector@PEBVInterface_Class@Glib@@V?$allocator@PEBVInterface_Class@Glib@@@std@@@std@@AEAAAEAV?$allocator@PEBVInterface_Class@Glib@@@2@XZ
    ?_Getal@?$vector@PEBVInterface_Class@Glib@@V?$allocator@PEBVInterface_Class@Glib@@@std@@@std@@AEBAAEBV?$allocator@PEBVInterface_Class@Glib@@@2@XZ
    ??0?$_Vector_val@U?$_Simple_types@PEBVInterface_Class@Glib@@@std@@@std@@QEAA@XZ
    ?_Get_first@?$_Compressed_pair@V?$allocator@PEBVInterface_Class@Glib@@@std@@V?$_Vector_val@U?$_Simple_types@PEBVInterface_Class@Glib@@@std@@@2@$00@std@@QEAAAEAV?$allocator@PEBVInterface_Class@Glib@@@2@XZ
    ?_Get_first@?$_Compressed_pair@V?$allocator@PEBVInterface_Class@Glib@@@std@@V?$_Vector_val@U?$_Simple_types@PEBVInterface_Class@Glib@@@std@@@2@$00@std@@QEBAAEBV?$allocator@PEBVInterface_Class@Glib@@@2@XZ
    ??0?$allocator@V?$tuple@P6AXPEAX0@ZPEAX@std@@@std@@QEAA@XZ
    ?deallocate@?$allocator@V?$tuple@P6AXPEAX0@ZPEAX@std@@@std@@QEAAXQEAV?$tuple@P6AXPEAX0@ZPEAX@2@_K@Z
    ?allocate@?$allocator@V?$tuple@P6AXPEAX0@ZPEAX@std@@@std@@QEAAPEAV?$tuple@P6AXPEAX0@ZPEAX@2@_K@Z
    ?max_size@?$_Default_allocator_traits@V?$allocator@V?$tuple@P6AXPEAX0@ZPEAX@std@@@std@@@std@@SA_KAEBV?$allocator@V?$tuple@P6AXPEAX0@ZPEAX@std@@@2@@Z
    ??0?$vector@V?$tuple@P6AXPEAX0@ZPEAX@std@@V?$allocator@V?$tuple@P6AXPEAX0@ZPEAX@std@@@2@@std@@QEAA@XZ
    ??1?$vector@V?$tuple@P6AXPEAX0@ZPEAX@std@@V?$allocator@V?$tuple@P6AXPEAX0@ZPEAX@std@@@2@@std@@QEAA@XZ
    ?max_size@?$vector@V?$tuple@P6AXPEAX0@ZPEAX@std@@V?$allocator@V?$tuple@P6AXPEAX0@ZPEAX@std@@@2@@std@@QEBA_KXZ
    ?capacity@?$vector@V?$tuple@P6AXPEAX0@ZPEAX@std@@V?$allocator@V?$tuple@P6AXPEAX0@ZPEAX@std@@@2@@std@@QEBA_KXZ
    ?_Calculate_growth@?$vector@V?$tuple@P6AXPEAX0@ZPEAX@std@@V?$allocator@V?$tuple@P6AXPEAX0@ZPEAX@std@@@2@@std@@AEBA_K_K@Z
    ?_Change_array@?$vector@V?$tuple@P6AXPEAX0@ZPEAX@std@@V?$allocator@V?$tuple@P6AXPEAX0@ZPEAX@std@@@2@@std@@AEAAXQEAV?$tuple@P6AXPEAX0@ZPEAX@2@_K1@Z
    ?_Tidy@?$vector@V?$tuple@P6AXPEAX0@ZPEAX@std@@V?$allocator@V?$tuple@P6AXPEAX0@ZPEAX@std@@@2@@std@@AEAAXXZ
    ?_Xlength@?$vector@V?$tuple@P6AXPEAX0@ZPEAX@std@@V?$allocator@V?$tuple@P6AXPEAX0@ZPEAX@std@@@2@@std@@CAXXZ
    ?_Orphan_range_unlocked@?$vector@V?$tuple@P6AXPEAX0@ZPEAX@std@@V?$allocator@V?$tuple@P6AXPEAX0@ZPEAX@std@@@2@@std@@AEBAXPEAV?$tuple@P6AXPEAX0@ZPEAX@2@0@Z
    ?_Orphan_range_locked@?$vector@V?$tuple@P6AXPEAX0@ZPEAX@std@@V?$allocator@V?$tuple@P6AXPEAX0@ZPEAX@std@@@2@@std@@AEBAXPEAV?$tuple@P6AXPEAX0@ZPEAX@2@0@Z
    ?_Orphan_range@?$vector@V?$tuple@P6AXPEAX0@ZPEAX@std@@V?$allocator@V?$tuple@P6AXPEAX0@ZPEAX@std@@@2@@std@@AEBAXPEAV?$tuple@P6AXPEAX0@ZPEAX@2@0@Z
    ?_Getal@?$vector@V?$tuple@P6AXPEAX0@ZPEAX@std@@V?$allocator@V?$tuple@P6AXPEAX0@ZPEAX@std@@@2@@std@@AEAAAEAV?$allocator@V?$tuple@P6AXPEAX0@ZPEAX@std@@@2@XZ
    ?_Getal@?$vector@V?$tuple@P6AXPEAX0@ZPEAX@std@@V?$allocator@V?$tuple@P6AXPEAX0@ZPEAX@std@@@2@@std@@AEBAAEBV?$allocator@V?$tuple@P6AXPEAX0@ZPEAX@std@@@2@XZ
    ??0?$_Vector_val@U?$_Simple_types@V?$tuple@P6AXPEAX0@ZPEAX@std@@@std@@@std@@QEAA@XZ
    ?_Get_first@?$_Compressed_pair@V?$allocator@V?$tuple@P6AXPEAX0@ZPEAX@std@@@std@@V?$_Vector_val@U?$_Simple_types@V?$tuple@P6AXPEAX0@ZPEAX@std@@@std@@@2@$00@std@@QEAAAEAV?$allocator@V?$tuple@P6AXPEAX0@ZPEAX@std@@@2@XZ
    ?_Get_first@?$_Compressed_pair@V?$allocator@V?$tuple@P6AXPEAX0@ZPEAX@std@@@std@@V?$_Vector_val@U?$_Simple_types@V?$tuple@P6AXPEAX0@ZPEAX@std@@@std@@@2@$00@std@@QEBAAEBV?$allocator@V?$tuple@P6AXPEAX0@ZPEAX@std@@@2@XZ
    ??0ExtraObjectBaseData@ObjectBase@Glib@@QEAA@XZ
    ??1ExtraObjectBaseData@ObjectBase@Glib@@QEAA@XZ
    ?_gobject_cppinstance_already_deleted@Glib@@YA_NPEAU_GObject@@@Z
    ??0?$allocator@U?$_Tree_node@U?$pair@QEBVObjectBase@Glib@@UExtraObjectBaseData@12@@std@@PEAX@std@@@std@@QEAA@XZ
    ?deallocate@?$allocator@U?$_Tree_node@U?$pair@QEBVObjectBase@Glib@@UExtraObjectBaseData@12@@std@@PEAX@std@@@std@@QEAAXQEAU?$_Tree_node@U?$pair@QEBVObjectBase@Glib@@UExtraObjectBaseData@12@@std@@PEAX@2@_K@Z
    ?allocate@?$allocator@U?$_Tree_node@U?$pair@QEBVObjectBase@Glib@@UExtraObjectBaseData@12@@std@@PEAX@std@@@std@@QEAAPEAU?$_Tree_node@U?$pair@QEBVObjectBase@Glib@@UExtraObjectBaseData@12@@std@@PEAX@2@_K@Z
    ?deallocate@?$_Default_allocator_traits@V?$allocator@U?$_Tree_node@U?$pair@QEBVObjectBase@Glib@@UExtraObjectBaseData@12@@std@@PEAX@std@@@std@@@std@@SAXAEAV?$allocator@U?$_Tree_node@U?$pair@QEBVObjectBase@Glib@@UExtraObjectBaseData@12@@std@@PEAX@std@@@2@QEAU?$_Tree_node@U?$pair@QEBVObjectBase@Glib@@UExtraObjectBaseData@12@@std@@PEAX@2@_K@Z
    ?max_size@?$_Default_allocator_traits@V?$allocator@U?$_Tree_node@U?$pair@QEBVObjectBase@Glib@@UExtraObjectBaseData@12@@std@@PEAX@std@@@std@@@std@@SA_KAEBV?$allocator@U?$_Tree_node@U?$pair@QEBVObjectBase@Glib@@UExtraObjectBaseData@12@@std@@PEAX@std@@@2@@Z
    ??0?$_Tree@V?$_Tmap_traits@PEBVObjectBase@Glib@@UExtraObjectBaseData@12@U?$less@PEBVObjectBase@Glib@@@std@@V?$allocator@U?$pair@QEBVObjectBase@Glib@@UExtraObjectBaseData@12@@std@@@5@$0A@@std@@@std@@QEAA@AEBU?$less@PEBVObjectBase@Glib@@@1@@Z
    ??1?$_Tree@V?$_Tmap_traits@PEBVObjectBase@Glib@@UExtraObjectBaseData@12@U?$less@PEBVObjectBase@Glib@@@std@@V?$allocator@U?$pair@QEBVObjectBase@Glib@@UExtraObjectBaseData@12@@std@@@5@$0A@@std@@@std@@QEAA@XZ
    ?end@?$_Tree@V?$_Tmap_traits@PEBVObjectBase@Glib@@UExtraObjectBaseData@12@U?$less@PEBVObjectBase@Glib@@@std@@V?$allocator@U?$pair@QEBVObjectBase@Glib@@UExtraObjectBaseData@12@@std@@@5@$0A@@std@@@std@@QEAA?AV?$_Tree_iterator@V?$_Tree_val@U?$_Tree_simple_types@U?$pair@QEBVObjectBase@Glib@@UExtraObjectBaseData@12@@std@@@std@@@std@@@2@XZ
    ?_Unchecked_begin@?$_Tree@V?$_Tmap_traits@PEBVObjectBase@Glib@@UExtraObjectBaseData@12@U?$less@PEBVObjectBase@Glib@@@std@@V?$allocator@U?$pair@QEBVObjectBase@Glib@@UExtraObjectBaseData@12@@std@@@5@$0A@@std@@@std@@QEAA?AV?$_Tree_unchecked_iterator@V?$_Tree_val@U?$_Tree_simple_types@U?$pair@QEBVObjectBase@Glib@@UExtraObjectBaseData@12@@std@@@std@@@std@@@2@XZ
    ?max_size@?$_Tree@V?$_Tmap_traits@PEBVObjectBase@Glib@@UExtraObjectBaseData@12@U?$less@PEBVObjectBase@Glib@@@std@@V?$allocator@U?$pair@QEBVObjectBase@Glib@@UExtraObjectBaseData@12@@std@@@5@$0A@@std@@@std@@QEBA_KXZ
    ?_Erase_unchecked@?$_Tree@V?$_Tmap_traits@PEBVObjectBase@Glib@@UExtraObjectBaseData@12@U?$less@PEBVObjectBase@Glib@@@std@@V?$allocator@U?$pair@QEBVObjectBase@Glib@@UExtraObjectBaseData@12@@std@@@5@$0A@@std@@@std@@AEAAPEAU?$_Tree_node@U?$pair@QEBVObjectBase@Glib@@UExtraObjectBaseData@12@@std@@PEAX@2@V?$_Tree_unchecked_const_iterator@V?$_Tree_val@U?$_Tree_simple_types@U?$pair@QEBVObjectBase@Glib@@UExtraObjectBaseData@12@@std@@@std@@@std@@U_Iterator_base0@2@@2@@Z
    ?_Erase_unchecked@?$_Tree@V?$_Tmap_traits@PEBVObjectBase@Glib@@UExtraObjectBaseData@12@U?$less@PEBVObjectBase@Glib@@@std@@V?$allocator@U?$pair@QEBVObjectBase@Glib@@UExtraObjectBaseData@12@@std@@@5@$0A@@std@@@std@@AEAAPEAU?$_Tree_node@U?$pair@QEBVObjectBase@Glib@@UExtraObjectBaseData@12@@std@@PEAX@2@V?$_Tree_unchecked_const_iterator@V?$_Tree_val@U?$_Tree_simple_types@U?$pair@QEBVObjectBase@Glib@@UExtraObjectBaseData@12@@std@@@std@@@std@@U_Iterator_base0@2@@2@0@Z
    ?_Erase@?$_Tree@V?$_Tmap_traits@PEBVObjectBase@Glib@@UExtraObjectBaseData@12@U?$less@PEBVObjectBase@Glib@@@std@@V?$allocator@U?$pair@QEBVObjectBase@Glib@@UExtraObjectBaseData@12@@std@@@5@$0A@@std@@@std@@AEAA_KU?$pair@PEAU?$_Tree_node@U?$pair@QEBVObjectBase@Glib@@UExtraObjectBaseData@12@@std@@PEAX@std@@PEAU12@@2@@Z
    ?erase@?$_Tree@V?$_Tmap_traits@PEBVObjectBase@Glib@@UExtraObjectBaseData@12@U?$less@PEBVObjectBase@Glib@@@std@@V?$allocator@U?$pair@QEBVObjectBase@Glib@@UExtraObjectBaseData@12@@std@@@5@$0A@@std@@@std@@QEAA_KAEBQEBVObjectBase@Glib@@@Z
    ?clear@?$_Tree@V?$_Tmap_traits@PEBVObjectBase@Glib@@UExtraObjectBaseData@12@U?$less@PEBVObjectBase@Glib@@@std@@V?$allocator@U?$pair@QEBVObjectBase@Glib@@UExtraObjectBaseData@12@@std@@@5@$0A@@std@@@std@@QEAAXXZ
    ?find@?$_Tree@V?$_Tmap_traits@PEBVObjectBase@Glib@@UExtraObjectBaseData@12@U?$less@PEBVObjectBase@Glib@@@std@@V?$allocator@U?$pair@QEBVObjectBase@Glib@@UExtraObjectBaseData@12@@std@@@5@$0A@@std@@@std@@QEAA?AV?$_Tree_iterator@V?$_Tree_val@U?$_Tree_simple_types@U?$pair@QEBVObjectBase@Glib@@UExtraObjectBaseData@12@@std@@@std@@@std@@@2@AEBQEBVObjectBase@Glib@@@Z
    ?_Check_grow_by_1@?$_Tree@V?$_Tmap_traits@PEBVObjectBase@Glib@@UExtraObjectBaseData@12@U?$less@PEBVObjectBase@Glib@@@std@@V?$allocator@U?$pair@QEBVObjectBase@Glib@@UExtraObjectBaseData@12@@std@@@5@$0A@@std@@@std@@IEAAXXZ
    ?_Alloc_sentinel_and_proxy@?$_Tree@V?$_Tmap_traits@PEBVObjectBase@Glib@@UExtraObjectBaseData@12@U?$less@PEBVObjectBase@Glib@@@std@@V?$allocator@U?$pair@QEBVObjectBase@Glib@@UExtraObjectBaseData@12@@std@@@5@$0A@@std@@@std@@IEAAXXZ
    ?_Getcomp@?$_Tree@V?$_Tmap_traits@PEBVObjectBase@Glib@@UExtraObjectBaseData@12@U?$less@PEBVObjectBase@Glib@@@std@@V?$allocator@U?$pair@QEBVObjectBase@Glib@@UExtraObjectBaseData@12@@std@@@5@$0A@@std@@@std@@IEBAAEBU?$less@PEBVObjectBase@Glib@@@2@XZ
    ?_Getal@?$_Tree@V?$_Tmap_traits@PEBVObjectBase@Glib@@UExtraObjectBaseData@12@U?$less@PEBVObjectBase@Glib@@@std@@V?$allocator@U?$pair@QEBVObjectBase@Glib@@UExtraObjectBaseData@12@@std@@@5@$0A@@std@@@std@@IEAAAEAV?$allocator@U?$_Tree_node@U?$pair@QEBVObjectBase@Glib@@UExtraObjectBaseData@12@@std@@PEAX@std@@@2@XZ
    ?_Getal@?$_Tree@V?$_Tmap_traits@PEBVObjectBase@Glib@@UExtraObjectBaseData@12@U?$less@PEBVObjectBase@Glib@@@std@@V?$allocator@U?$pair@QEBVObjectBase@Glib@@UExtraObjectBaseData@12@@std@@@5@$0A@@std@@@std@@IEBAAEBV?$allocator@U?$_Tree_node@U?$pair@QEBVObjectBase@Glib@@UExtraObjectBaseData@12@@std@@PEAX@std@@@2@XZ
    ?_Get_scary@?$_Tree@V?$_Tmap_traits@PEBVObjectBase@Glib@@UExtraObjectBaseData@12@U?$less@PEBVObjectBase@Glib@@@std@@V?$allocator@U?$pair@QEBVObjectBase@Glib@@UExtraObjectBaseData@12@@std@@@5@$0A@@std@@@std@@IEAAPEAV?$_Tree_val@U?$_Tree_simple_types@U?$pair@QEBVObjectBase@Glib@@UExtraObjectBaseData@12@@std@@@std@@@2@XZ
    ?_Get_scary@?$_Tree@V?$_Tmap_traits@PEBVObjectBase@Glib@@UExtraObjectBaseData@12@U?$less@PEBVObjectBase@Glib@@@std@@V?$allocator@U?$pair@QEBVObjectBase@Glib@@UExtraObjectBaseData@12@@std@@@5@$0A@@std@@@std@@IEBAPEBV?$_Tree_val@U?$_Tree_simple_types@U?$pair@QEBVObjectBase@Glib@@UExtraObjectBaseData@12@@std@@@std@@@2@XZ
    ??R?$less@PEBVObjectBase@Glib@@@std@@QEBA_NAEBQEBVObjectBase@Glib@@0@Z
    ??0?$_Tree_val@U?$_Tree_simple_types@U?$pair@QEBVObjectBase@Glib@@UExtraObjectBaseData@12@@std@@@std@@@std@@QEAA@XZ
    ?_Max@?$_Tree_val@U?$_Tree_simple_types@U?$pair@QEBVObjectBase@Glib@@UExtraObjectBaseData@12@@std@@@std@@@std@@SAPEAU?$_Tree_node@U?$pair@QEBVObjectBase@Glib@@UExtraObjectBaseData@12@@std@@PEAX@2@PEAU32@@Z
    ?_Min@?$_Tree_val@U?$_Tree_simple_types@U?$pair@QEBVObjectBase@Glib@@UExtraObjectBaseData@12@@std@@@std@@@std@@SAPEAU?$_Tree_node@U?$pair@QEBVObjectBase@Glib@@UExtraObjectBaseData@12@@std@@PEAX@2@PEAU32@@Z
    ?_Lrotate@?$_Tree_val@U?$_Tree_simple_types@U?$pair@QEBVObjectBase@Glib@@UExtraObjectBaseData@12@@std@@@std@@@std@@QEAAXPEAU?$_Tree_node@U?$pair@QEBVObjectBase@Glib@@UExtraObjectBaseData@12@@std@@PEAX@2@@Z
    ?_Rrotate@?$_Tree_val@U?$_Tree_simple_types@U?$pair@QEBVObjectBase@Glib@@UExtraObjectBaseData@12@@std@@@std@@@std@@QEAAXPEAU?$_Tree_node@U?$pair@QEBVObjectBase@Glib@@UExtraObjectBaseData@12@@std@@PEAX@2@@Z
    ?_Extract@?$_Tree_val@U?$_Tree_simple_types@U?$pair@QEBVObjectBase@Glib@@UExtraObjectBaseData@12@@std@@@std@@@std@@QEAAPEAU?$_Tree_node@U?$pair@QEBVObjectBase@Glib@@UExtraObjectBaseData@12@@std@@PEAX@2@V?$_Tree_unchecked_const_iterator@V?$_Tree_val@U?$_Tree_simple_types@U?$pair@QEBVObjectBase@Glib@@UExtraObjectBaseData@12@@std@@@std@@@std@@U_Iterator_base0@2@@2@@Z
    ?_Insert_node@?$_Tree_val@U?$_Tree_simple_types@U?$pair@QEBVObjectBase@Glib@@UExtraObjectBaseData@12@@std@@@std@@@std@@QEAAPEAU?$_Tree_node@U?$pair@QEBVObjectBase@Glib@@UExtraObjectBaseData@12@@std@@PEAX@2@U?$_Tree_id@PEAU?$_Tree_node@U?$pair@QEBVObjectBase@Glib@@UExtraObjectBaseData@12@@std@@PEAX@std@@@2@QEAU32@@Z
    ?_Orphan_ptr@?$_Tree_val@U?$_Tree_simple_types@U?$pair@QEBVObjectBase@Glib@@UExtraObjectBaseData@12@@std@@@std@@@std@@QEAAXQEAU?$_Tree_node@U?$pair@QEBVObjectBase@Glib@@UExtraObjectBaseData@12@@std@@PEAX@2@@Z
    ?_Get_first@?$_Compressed_pair@V?$allocator@U?$_Tree_node@U?$pair@QEBVObjectBase@Glib@@UExtraObjectBaseData@12@@std@@PEAX@std@@@std@@V?$_Tree_val@U?$_Tree_simple_types@U?$pair@QEBVObjectBase@Glib@@UExtraObjectBaseData@12@@std@@@std@@@2@$00@std@@QEAAAEAV?$allocator@U?$_Tree_node@U?$pair@QEBVObjectBase@Glib@@UExtraObjectBaseData@12@@std@@PEAX@std@@@2@XZ
    ?_Get_first@?$_Compressed_pair@V?$allocator@U?$_Tree_node@U?$pair@QEBVObjectBase@Glib@@UExtraObjectBaseData@12@@std@@PEAX@std@@@std@@V?$_Tree_val@U?$_Tree_simple_types@U?$pair@QEBVObjectBase@Glib@@UExtraObjectBaseData@12@@std@@@std@@@2@$00@std@@QEBAAEBV?$allocator@U?$_Tree_node@U?$pair@QEBVObjectBase@Glib@@UExtraObjectBaseData@12@@std@@PEAX@std@@@2@XZ
    ?_Get_first@?$_Compressed_pair@U?$less@PEBVObjectBase@Glib@@@std@@V?$_Compressed_pair@V?$allocator@U?$_Tree_node@U?$pair@QEBVObjectBase@Glib@@UExtraObjectBaseData@12@@std@@PEAX@std@@@std@@V?$_Tree_val@U?$_Tree_simple_types@U?$pair@QEBVObjectBase@Glib@@UExtraObjectBaseData@12@@std@@@std@@@2@$00@2@$00@std@@QEBAAEBU?$less@PEBVObjectBase@Glib@@@2@XZ
    ??0?$map@PEBVObjectBase@Glib@@UExtraObjectBaseData@12@U?$less@PEBVObjectBase@Glib@@@std@@V?$allocator@U?$pair@QEBVObjectBase@Glib@@UExtraObjectBaseData@12@@std@@@5@@std@@QEAA@XZ
    ??A?$map@PEBVObjectBase@Glib@@UExtraObjectBaseData@12@U?$less@PEBVObjectBase@Glib@@@std@@V?$allocator@U?$pair@QEBVObjectBase@Glib@@UExtraObjectBaseData@12@@std@@@5@@std@@QEAAAEAUExtraObjectBaseData@ObjectBase@Glib@@$$QEAPEBV34@@Z
    ??1?$map@PEBVObjectBase@Glib@@UExtraObjectBaseData@12@U?$less@PEBVObjectBase@Glib@@@std@@V?$allocator@U?$pair@QEBVObjectBase@Glib@@UExtraObjectBaseData@12@@std@@@5@@std@@QEAA@XZ
    ??$move@AEAVObjectBase@Glib@@@std@@YA$$QEAVObjectBase@Glib@@AEAV12@@Z
    ??0?$_Tree_unchecked_const_iterator@V?$_Tree_val@U?$_Tree_simple_types@U?$pair@QEBVObjectBase@Glib@@UExtraObjectBaseData@12@@std@@@std@@@std@@U_Iterator_base12@2@@std@@QEAA@PEAU?$_Tree_node@U?$pair@QEBVObjectBase@Glib@@UExtraObjectBaseData@12@@std@@PEAX@1@PEBV?$_Tree_val@U?$_Tree_simple_types@U?$pair@QEBVObjectBase@Glib@@UExtraObjectBaseData@12@@std@@@std@@@1@@Z
    ??1?$_Tree_unchecked_const_iterator@V?$_Tree_val@U?$_Tree_simple_types@U?$pair@QEBVObjectBase@Glib@@UExtraObjectBaseData@12@@std@@@std@@@std@@U_Iterator_base12@2@@std@@QEAA@XZ
    ??0?$_Tree_unchecked_const_iterator@V?$_Tree_val@U?$_Tree_simple_types@U?$pair@QEBVObjectBase@Glib@@UExtraObjectBaseData@12@@std@@@std@@@std@@U_Iterator_base12@2@@std@@QEAA@AEBV01@@Z
    ??D?$_Tree_const_iterator@V?$_Tree_val@U?$_Tree_simple_types@U?$pair@QEBVObjectBase@Glib@@UExtraObjectBaseData@12@@std@@@std@@@std@@@std@@QEBAAEBU?$pair@QEBVObjectBase@Glib@@UExtraObjectBaseData@12@@1@XZ
    ??8?$_Tree_const_iterator@V?$_Tree_val@U?$_Tree_simple_types@U?$pair@QEBVObjectBase@Glib@@UExtraObjectBaseData@12@@std@@@std@@@std@@@std@@QEBA_NAEBV01@@Z
    ??9?$_Tree_const_iterator@V?$_Tree_val@U?$_Tree_simple_types@U?$pair@QEBVObjectBase@Glib@@UExtraObjectBaseData@12@@std@@@std@@@std@@@std@@QEBA_NAEBV01@@Z
    ??1?$_Tree_const_iterator@V?$_Tree_val@U?$_Tree_simple_types@U?$pair@QEBVObjectBase@Glib@@UExtraObjectBaseData@12@@std@@@std@@@std@@@std@@QEAA@XZ
    ??0?$_Tree_const_iterator@V?$_Tree_val@U?$_Tree_simple_types@U?$pair@QEBVObjectBase@Glib@@UExtraObjectBaseData@12@@std@@@std@@@std@@@std@@QEAA@AEBV01@@Z
    ??0?$_Tree_const_iterator@V?$_Tree_val@U?$_Tree_simple_types@U?$pair@QEBVObjectBase@Glib@@UExtraObjectBaseData@12@@std@@@std@@@std@@@std@@QEAA@PEAU?$_Tree_node@U?$pair@QEBVObjectBase@Glib@@UExtraObjectBaseData@12@@std@@PEAX@1@PEBV?$_Tree_val@U?$_Tree_simple_types@U?$pair@QEBVObjectBase@Glib@@UExtraObjectBaseData@12@@std@@@std@@@1@@Z
    ??D?$_Tree_iterator@V?$_Tree_val@U?$_Tree_simple_types@U?$pair@QEBVObjectBase@Glib@@UExtraObjectBaseData@12@@std@@@std@@@std@@@std@@QEBAAEAU?$pair@QEBVObjectBase@Glib@@UExtraObjectBaseData@12@@1@XZ
    ??C?$_Tree_iterator@V?$_Tree_val@U?$_Tree_simple_types@U?$pair@QEBVObjectBase@Glib@@UExtraObjectBaseData@12@@std@@@std@@@std@@@std@@QEBAPEAU?$pair@QEBVObjectBase@Glib@@UExtraObjectBaseData@12@@1@XZ
    ?_Unwrapped@?$_Tree_iterator@V?$_Tree_val@U?$_Tree_simple_types@U?$pair@QEBVObjectBase@Glib@@UExtraObjectBaseData@12@@std@@@std@@@std@@@std@@QEBA?AV?$_Tree_unchecked_iterator@V?$_Tree_val@U?$_Tree_simple_types@U?$pair@QEBVObjectBase@Glib@@UExtraObjectBaseData@12@@std@@@std@@@std@@@2@XZ
    ??1?$_Tree_iterator@V?$_Tree_val@U?$_Tree_simple_types@U?$pair@QEBVObjectBase@Glib@@UExtraObjectBaseData@12@@std@@@std@@@std@@@std@@QEAA@XZ
    ??0?$_Tree_iterator@V?$_Tree_val@U?$_Tree_simple_types@U?$pair@QEBVObjectBase@Glib@@UExtraObjectBaseData@12@@std@@@std@@@std@@@std@@QEAA@AEBV01@@Z
    ??0?$_Tree_iterator@V?$_Tree_val@U?$_Tree_simple_types@U?$pair@QEBVObjectBase@Glib@@UExtraObjectBaseData@12@@std@@@std@@@std@@@std@@QEAA@PEAU?$_Tree_node@U?$pair@QEBVObjectBase@Glib@@UExtraObjectBaseData@12@@std@@PEAX@1@PEBV?$_Tree_val@U?$_Tree_simple_types@U?$pair@QEBVObjectBase@Glib@@UExtraObjectBaseData@12@@std@@@std@@@1@@Z
    ??$_Eqrange@PEBVObjectBase@Glib@@@?$_Tree@V?$_Tmap_traits@PEBVObjectBase@Glib@@UExtraObjectBaseData@12@U?$less@PEBVObjectBase@Glib@@@std@@V?$allocator@U?$pair@QEBVObjectBase@Glib@@UExtraObjectBaseData@12@@std@@@5@$0A@@std@@@std@@IEBA?AU?$pair@PEAU?$_Tree_node@U?$pair@QEBVObjectBase@Glib@@UExtraObjectBaseData@12@@std@@PEAX@std@@PEAU12@@1@AEBQEBVObjectBase@Glib@@@Z
    ??$move@AEAV?$slot@XUnil@sigc@@U12@U12@U12@U12@U12@U12@@sigc@@@std@@YA$$QEAV?$slot@XUnil@sigc@@U12@U12@U12@U12@U12@U12@@sigc@@AEAV12@@Z
    ??$emplace_back@AEAPEBVInterface_Class@Glib@@@?$vector@PEBVInterface_Class@Glib@@V?$allocator@PEBVInterface_Class@Glib@@@std@@@std@@QEAAXAEAPEBVInterface_Class@Glib@@@Z
    ??$make_tuple@AEAP6AXPEAX0@ZAEAPEAX@std@@YA?AV?$tuple@P6AXPEAX0@ZPEAX@0@AEAP6AXPEAX0@ZAEAPEAX@Z
    ??0?$tuple@PEAX@std@@QEAA@$$QEAV01@@Z
    ??0?$tuple@P6AXPEAX0@ZPEAX@std@@QEAA@$$QEAV01@@Z
    ??$emplace_back@V?$tuple@P6AXPEAX0@ZPEAX@std@@@?$vector@V?$tuple@P6AXPEAX0@ZPEAX@std@@V?$allocator@V?$tuple@P6AXPEAX0@ZPEAX@std@@@2@@std@@QEAAX$$QEAV?$tuple@P6AXPEAX0@ZPEAX@1@@Z
    ??1?$pair@QEBVObjectBase@Glib@@UExtraObjectBaseData@12@@std@@QEAA@XZ
    ??$erase@V?$_Tree_iterator@V?$_Tree_val@U?$_Tree_simple_types@U?$pair@QEBVObjectBase@Glib@@UExtraObjectBaseData@12@@std@@@std@@@std@@@std@@$0A@@?$_Tree@V?$_Tmap_traits@PEBVObjectBase@Glib@@UExtraObjectBaseData@12@U?$less@PEBVObjectBase@Glib@@@std@@V?$allocator@U?$pair@QEBVObjectBase@Glib@@UExtraObjectBaseData@12@@std@@@5@$0A@@std@@@std@@QEAA?AV?$_Tree_iterator@V?$_Tree_val@U?$_Tree_simple_types@U?$pair@QEBVObjectBase@Glib@@UExtraObjectBaseData@12@@std@@@std@@@std@@@1@V21@@Z
    ??$min@_K@std@@YAAEB_KAEB_K0@Z
    ??$forward@AEAPEBVInterface_Class@Glib@@@std@@YAAEAPEBVInterface_Class@Glib@@AEAPEBV12@@Z
    ??$_Emplace_one_at_back@AEAPEBVInterface_Class@Glib@@@?$vector@PEBVInterface_Class@Glib@@V?$allocator@PEBVInterface_Class@Glib@@@std@@@std@@AEAAAEAPEBVInterface_Class@Glib@@AEAPEBV23@@Z
    ??$forward@AEAP6AXPEAX0@Z@std@@YAAEAP6AXPEAX0@ZAEAP6AX00@Z@Z
    ??$forward@AEAPEAX@std@@YAAEAPEAXAEAPEAX@Z
    ??$?0AEAP6AXPEAX0@ZAEAPEAX$0A@@?$tuple@P6AXPEAX0@ZPEAX@std@@QEAA@AEAP6AXPEAX0@ZAEAPEAX@Z
    ??$forward@V?$tuple@P6AXPEAX0@ZPEAX@std@@@std@@YA$$QEAV?$tuple@P6AXPEAX0@ZPEAX@0@AEAV10@@Z
    ??$_Emplace_one_at_back@V?$tuple@P6AXPEAX0@ZPEAX@std@@@?$vector@V?$tuple@P6AXPEAX0@ZPEAX@std@@V?$allocator@V?$tuple@P6AXPEAX0@ZPEAX@std@@@2@@std@@AEAAAEAV?$tuple@P6AXPEAX0@ZPEAX@1@$$QEAV21@@Z
    ??0?$_Tree_unchecked_const_iterator@V?$_Tree_val@U?$_Tree_simple_types@U?$pair@QEBVObjectBase@Glib@@UExtraObjectBaseData@12@@std@@@std@@@std@@U_Iterator_base0@2@@std@@QEAA@PEAU?$_Tree_node@U?$pair@QEBVObjectBase@Glib@@UExtraObjectBaseData@12@@std@@PEAX@1@PEBV?$_Tree_val@U?$_Tree_simple_types@U?$pair@QEBVObjectBase@Glib@@UExtraObjectBaseData@12@@std@@@std@@@1@@Z
    ??E?$_Tree_unchecked_const_iterator@V?$_Tree_val@U?$_Tree_simple_types@U?$pair@QEBVObjectBase@Glib@@UExtraObjectBaseData@12@@std@@@std@@@std@@U_Iterator_base0@2@@std@@QEAAAEAV01@XZ
    ??E?$_Tree_unchecked_const_iterator@V?$_Tree_val@U?$_Tree_simple_types@U?$pair@QEBVObjectBase@Glib@@UExtraObjectBaseData@12@@std@@@std@@@std@@U_Iterator_base0@2@@std@@QEAA?AV01@H@Z
    ??8?$_Tree_unchecked_const_iterator@V?$_Tree_val@U?$_Tree_simple_types@U?$pair@QEBVObjectBase@Glib@@UExtraObjectBaseData@12@@std@@@std@@@std@@U_Iterator_base0@2@@std@@QEBA_NAEBV01@@Z
    ??9?$_Tree_unchecked_const_iterator@V?$_Tree_val@U?$_Tree_simple_types@U?$pair@QEBVObjectBase@Glib@@UExtraObjectBaseData@12@@std@@@std@@@std@@U_Iterator_base0@2@@std@@QEBA_NAEBV01@@Z
    ??0?$_Tree_unchecked_iterator@V?$_Tree_val@U?$_Tree_simple_types@U?$pair@QEBVObjectBase@Glib@@UExtraObjectBaseData@12@@std@@@std@@@std@@@std@@QEAA@PEAU?$_Tree_node@U?$pair@QEBVObjectBase@Glib@@UExtraObjectBaseData@12@@std@@PEAX@1@PEBV?$_Tree_val@U?$_Tree_simple_types@U?$pair@QEBVObjectBase@Glib@@UExtraObjectBaseData@12@@std@@@std@@@1@@Z
    ?pointer_to@?$pointer_traits@PEAU?$pair@QEBVObjectBase@Glib@@UExtraObjectBaseData@12@@std@@@std@@SAPEAU?$pair@QEBVObjectBase@Glib@@UExtraObjectBaseData@12@@2@AEAU32@@Z
    ??$_Find@PEBVObjectBase@Glib@@@?$_Tree@V?$_Tmap_traits@PEBVObjectBase@Glib@@UExtraObjectBaseData@12@U?$less@PEBVObjectBase@Glib@@@std@@V?$allocator@U?$pair@QEBVObjectBase@Glib@@UExtraObjectBaseData@12@@std@@@5@$0A@@std@@@std@@AEBAPEAU?$_Tree_node@U?$pair@QEBVObjectBase@Glib@@UExtraObjectBaseData@12@@std@@PEAX@1@AEBQEBVObjectBase@Glib@@@Z
    ??$_Erase_head@V?$allocator@U?$_Tree_node@U?$pair@QEBVObjectBase@Glib@@UExtraObjectBaseData@12@@std@@PEAX@std@@@std@@@?$_Tree_val@U?$_Tree_simple_types@U?$pair@QEBVObjectBase@Glib@@UExtraObjectBaseData@12@@std@@@std@@@std@@QEAAXAEAV?$allocator@U?$_Tree_node@U?$pair@QEBVObjectBase@Glib@@UExtraObjectBaseData@12@@std@@PEAX@std@@@1@@Z
    ?allocate@?$allocator@U_Container_proxy@std@@@std@@QEAAPEAU_Container_proxy@2@_K@Z
    ??$?0U?$_Tree_node@U?$pair@QEBVObjectBase@Glib@@UExtraObjectBaseData@12@@std@@PEAX@std@@@?$allocator@U_Container_proxy@std@@@std@@QEAA@AEBV?$allocator@U?$_Tree_node@U?$pair@QEBVObjectBase@Glib@@UExtraObjectBaseData@12@@std@@PEAX@std@@@1@@Z
    ??$_Delete_plain_internal@V?$allocator@U_Container_proxy@std@@@std@@@std@@YAXAEAV?$allocator@U_Container_proxy@std@@@0@QEAU_Container_proxy@0@@Z
    ??$move@AEAPEBVObjectBase@Glib@@@std@@YA$$QEAPEBVObjectBase@Glib@@AEAPEBV12@@Z
    ??$_Try_emplace@PEBVObjectBase@Glib@@$$V@?$map@PEBVObjectBase@Glib@@UExtraObjectBaseData@12@U?$less@PEBVObjectBase@Glib@@@std@@V?$allocator@U?$pair@QEBVObjectBase@Glib@@UExtraObjectBaseData@12@@std@@@5@@std@@AEAA?AU?$pair@PEAU?$_Tree_node@U?$pair@QEBVObjectBase@Glib@@UExtraObjectBaseData@12@@std@@PEAX@std@@_N@1@$$QEAPEBVObjectBase@Glib@@@Z
    ??$_Alloc_proxy@V?$allocator@U_Container_proxy@std@@@std@@@_Container_base12@std@@QEAAX$$QEAV?$allocator@U_Container_proxy@std@@@1@@Z
    ??$_Kfn@QEBVObjectBase@Glib@@UExtraObjectBaseData@12@@?$_Tmap_traits@PEBVObjectBase@Glib@@UExtraObjectBaseData@12@U?$less@PEBVObjectBase@Glib@@@std@@V?$allocator@U?$pair@QEBVObjectBase@Glib@@UExtraObjectBaseData@12@@std@@@5@$0A@@std@@SAAEBQEBVObjectBase@Glib@@AEBU?$pair@QEBVObjectBase@Glib@@UExtraObjectBaseData@12@@1@@Z
    ??$_Debug_lt_pred@AEBU?$less@PEBVObjectBase@Glib@@@std@@AEBQEBVObjectBase@Glib@@AEBQEBV34@@std@@YA_NAEBU?$less@PEBVObjectBase@Glib@@@0@AEBQEBVObjectBase@Glib@@1@Z
    ??$?0AEAPEAU?$_Tree_node@U?$pair@QEBVObjectBase@Glib@@UExtraObjectBaseData@12@@std@@PEAX@std@@AEAPEAU01@$0A@@?$pair@PEAU?$_Tree_node@U?$pair@QEBVObjectBase@Glib@@UExtraObjectBaseData@12@@std@@PEAX@std@@PEAU12@@std@@QEAA@AEAPEAU?$_Tree_node@U?$pair@QEBVObjectBase@Glib@@UExtraObjectBaseData@12@@std@@PEAX@1@0@Z
    ??$_Emplace_back_with_unused_capacity@AEAPEBVInterface_Class@Glib@@@?$vector@PEBVInterface_Class@Glib@@V?$allocator@PEBVInterface_Class@Glib@@@std@@@std@@AEAAAEAPEBVInterface_Class@Glib@@AEAPEBV23@@Z
    ??$_Emplace_reallocate@AEAPEBVInterface_Class@Glib@@@?$vector@PEBVInterface_Class@Glib@@V?$allocator@PEBVInterface_Class@Glib@@@std@@@std@@AEAAPEAPEBVInterface_Class@Glib@@QEAPEBV23@AEAPEBV23@@Z
    ??$?0U_Exact_args_t@std@@AEAP6AXPEAX0@ZAEAPEAX$0A@@?$tuple@P6AXPEAX0@ZPEAX@std@@QEAA@U_Exact_args_t@1@AEAP6AXPEAX1@ZAEAPEAX@Z
    ??$_Emplace_back_with_unused_capacity@V?$tuple@P6AXPEAX0@ZPEAX@std@@@?$vector@V?$tuple@P6AXPEAX0@ZPEAX@std@@V?$allocator@V?$tuple@P6AXPEAX0@ZPEAX@std@@@2@@std@@AEAAAEAV?$tuple@P6AXPEAX0@ZPEAX@1@$$QEAV21@@Z
    ??$_Emplace_reallocate@V?$tuple@P6AXPEAX0@ZPEAX@std@@@?$vector@V?$tuple@P6AXPEAX0@ZPEAX@std@@V?$allocator@V?$tuple@P6AXPEAX0@ZPEAX@std@@@2@@std@@AEAAPEAV?$tuple@P6AXPEAX0@ZPEAX@1@QEAV21@$$QEAV21@@Z
    ??$_Find_lower_bound@PEBVObjectBase@Glib@@@?$_Tree@V?$_Tmap_traits@PEBVObjectBase@Glib@@UExtraObjectBaseData@12@U?$less@PEBVObjectBase@Glib@@@std@@V?$allocator@U?$pair@QEBVObjectBase@Glib@@UExtraObjectBaseData@12@@std@@@5@$0A@@std@@@std@@IEBA?AU?$_Tree_find_result@PEAU?$_Tree_node@U?$pair@QEBVObjectBase@Glib@@UExtraObjectBaseData@12@@std@@PEAX@std@@@1@AEBQEBVObjectBase@Glib@@@Z
    ??$_Lower_bound_duplicate@PEBVObjectBase@Glib@@@?$_Tree@V?$_Tmap_traits@PEBVObjectBase@Glib@@UExtraObjectBaseData@12@U?$less@PEBVObjectBase@Glib@@@std@@V?$allocator@U?$pair@QEBVObjectBase@Glib@@UExtraObjectBaseData@12@@std@@@5@$0A@@std@@@std@@IEBA_NQEAU?$_Tree_node@U?$pair@QEBVObjectBase@Glib@@UExtraObjectBaseData@12@@std@@PEAX@1@AEBQEBVObjectBase@Glib@@@Z
    ??$_Erase_tree@V?$allocator@U?$_Tree_node@U?$pair@QEBVObjectBase@Glib@@UExtraObjectBaseData@12@@std@@PEAX@std@@@std@@@?$_Tree_val@U?$_Tree_simple_types@U?$pair@QEBVObjectBase@Glib@@UExtraObjectBaseData@12@@std@@@std@@@std@@QEAAXAEAV?$allocator@U?$_Tree_node@U?$pair@QEBVObjectBase@Glib@@UExtraObjectBaseData@12@@std@@PEAX@std@@@1@PEAU?$_Tree_node@U?$pair@QEBVObjectBase@Glib@@UExtraObjectBaseData@12@@std@@PEAX@1@@Z
    ??$_Freenode0@V?$allocator@U?$_Tree_node@U?$pair@QEBVObjectBase@Glib@@UExtraObjectBaseData@12@@std@@PEAX@std@@@std@@@?$_Tree_node@U?$pair@QEBVObjectBase@Glib@@UExtraObjectBaseData@12@@std@@PEAX@std@@SAXAEAV?$allocator@U?$_Tree_node@U?$pair@QEBVObjectBase@Glib@@UExtraObjectBaseData@12@@std@@PEAX@std@@@1@PEAU01@@Z
    ??$_Deallocate_plain@V?$allocator@U_Container_proxy@std@@@std@@@std@@YAXAEAV?$allocator@U_Container_proxy@std@@@0@QEAU_Container_proxy@0@@Z
    ??$?0AEBQEAU?$_Tree_node@U?$pair@QEBVObjectBase@Glib@@UExtraObjectBaseData@12@@std@@PEAX@std@@_N$0A@@?$pair@PEAU?$_Tree_node@U?$pair@QEBVObjectBase@Glib@@UExtraObjectBaseData@12@@std@@PEAX@std@@_N@std@@QEAA@AEBQEAU?$_Tree_node@U?$pair@QEBVObjectBase@Glib@@UExtraObjectBaseData@12@@std@@PEAX@1@$$QEA_N@Z
    ??$forward@PEBVObjectBase@Glib@@@std@@YA$$QEAPEBVObjectBase@Glib@@AEAPEBV12@@Z
    ??$forward_as_tuple@PEBVObjectBase@Glib@@@std@@YA?AV?$tuple@$$QEAPEBVObjectBase@Glib@@@0@$$QEAPEBVObjectBase@Glib@@@Z
    ??0?$tuple@$$QEAPEBVObjectBase@Glib@@@std@@QEAA@$$QEAV01@@Z
    ??$forward_as_tuple@$$V@std@@YA?AV?$tuple@$$V@0@XZ
    ??0?$_Alloc_construct_ptr@V?$allocator@U?$_Tree_node@U?$pair@QEBVObjectBase@Glib@@UExtraObjectBaseData@12@@std@@PEAX@std@@@std@@@std@@QEAA@AEAV?$allocator@U?$_Tree_node@U?$pair@QEBVObjectBase@Glib@@UExtraObjectBaseData@12@@std@@PEAX@std@@@1@@Z
    ?_Release@?$_Alloc_construct_ptr@V?$allocator@U?$_Tree_node@U?$pair@QEBVObjectBase@Glib@@UExtraObjectBaseData@12@@std@@PEAX@std@@@std@@@std@@QEAAPEAU?$_Tree_node@U?$pair@QEBVObjectBase@Glib@@UExtraObjectBaseData@12@@std@@PEAX@2@XZ
    ?_Allocate@?$_Alloc_construct_ptr@V?$allocator@U?$_Tree_node@U?$pair@QEBVObjectBase@Glib@@UExtraObjectBaseData@12@@std@@PEAX@std@@@std@@@std@@QEAAXXZ
    ??1?$_Alloc_construct_ptr@V?$allocator@U?$_Tree_node@U?$pair@QEBVObjectBase@Glib@@UExtraObjectBaseData@12@@std@@PEAX@std@@@std@@@std@@QEAA@XZ
    ??0?$_Tree_temp_node_alloc@V?$allocator@U?$_Tree_node@U?$pair@QEBVObjectBase@Glib@@UExtraObjectBaseData@12@@std@@PEAX@std@@@std@@@std@@QEAA@AEAV?$allocator@U?$_Tree_node@U?$pair@QEBVObjectBase@Glib@@UExtraObjectBaseData@12@@std@@PEAX@std@@@1@@Z
    ??1?$_Tree_temp_node_alloc@V?$allocator@U?$_Tree_node@U?$pair@QEBVObjectBase@Glib@@UExtraObjectBaseData@12@@std@@PEAX@std@@@std@@@std@@QEAA@XZ
    ??1?$_Tree_temp_node@V?$allocator@U?$_Tree_node@U?$pair@QEBVObjectBase@Glib@@UExtraObjectBaseData@12@@std@@PEAX@std@@@std@@@std@@QEAA@XZ
    ??$?0AEBUpiecewise_construct_t@std@@V?$tuple@$$QEAPEBVObjectBase@Glib@@@1@V?$tuple@$$V@1@@?$_Tree_temp_node@V?$allocator@U?$_Tree_node@U?$pair@QEBVObjectBase@Glib@@UExtraObjectBaseData@12@@std@@PEAX@std@@@std@@@std@@QEAA@AEAV?$allocator@U?$_Tree_node@U?$pair@QEBVObjectBase@Glib@@UExtraObjectBaseData@12@@std@@PEAX@std@@@1@PEAU?$_Tree_node@U?$pair@QEBVObjectBase@Glib@@UExtraObjectBaseData@12@@std@@PEAX@1@AEBUpiecewise_construct_t@1@$$QEAV?$tuple@$$QEAPEBVObjectBase@Glib@@@1@$$QEAV?$tuple@$$V@1@@Z
    ??$?0PEAU?$_Tree_node@U?$pair@QEBVObjectBase@Glib@@UExtraObjectBaseData@12@@std@@PEAX@std@@_N$0A@@?$pair@PEAU?$_Tree_node@U?$pair@QEBVObjectBase@Glib@@UExtraObjectBaseData@12@@std@@PEAX@std@@_N@std@@QEAA@$$QEAPEAU?$_Tree_node@U?$pair@QEBVObjectBase@Glib@@UExtraObjectBaseData@12@@std@@PEAX@1@$$QEA_N@Z
    ??0?$_Container_proxy_ptr12@V?$allocator@U_Container_proxy@std@@@std@@@std@@QEAA@AEAV?$allocator@U_Container_proxy@std@@@1@AEAU_Container_base12@1@@Z
    ??1?$_Container_proxy_ptr12@V?$allocator@U_Container_proxy@std@@@std@@@std@@QEAA@XZ
    ??$_Unfancy@U_Container_proxy@std@@@std@@YAPEAU_Container_proxy@0@PEAU10@@Z
    ??$_Construct_in_place@U_Container_proxy@std@@PEAU_Container_base12@2@@std@@YAXAEAU_Container_proxy@0@$$QEAPEAU_Container_base12@0@@Z
    ??$addressof@U?$pair@QEBVObjectBase@Glib@@UExtraObjectBaseData@12@@std@@@std@@YAPEAU?$pair@QEBVObjectBase@Glib@@UExtraObjectBaseData@12@@0@AEAU10@@Z
    ??$addressof@V?$_Tree_val@U?$_Tree_simple_types@U?$pair@QEBVObjectBase@Glib@@UExtraObjectBaseData@12@@std@@@std@@@std@@@std@@YAPEAV?$_Tree_val@U?$_Tree_simple_types@U?$pair@QEBVObjectBase@Glib@@UExtraObjectBaseData@12@@std@@@std@@@0@AEAV10@@Z
    ??$distance@V?$_Tree_unchecked_const_iterator@V?$_Tree_val@U?$_Tree_simple_types@U?$pair@QEBVObjectBase@Glib@@UExtraObjectBaseData@12@@std@@@std@@@std@@U_Iterator_base0@2@@std@@@std@@YA_JV?$_Tree_unchecked_const_iterator@V?$_Tree_val@U?$_Tree_simple_types@U?$pair@QEBVObjectBase@Glib@@UExtraObjectBaseData@12@@std@@@std@@@std@@U_Iterator_base0@2@@0@0@Z
    ??$_Freenode@V?$allocator@U?$_Tree_node@U?$pair@QEBVObjectBase@Glib@@UExtraObjectBaseData@12@@std@@PEAX@std@@@std@@@?$_Tree_node@U?$pair@QEBVObjectBase@Glib@@UExtraObjectBaseData@12@@std@@PEAX@std@@SAXAEAV?$allocator@U?$_Tree_node@U?$pair@QEBVObjectBase@Glib@@UExtraObjectBaseData@12@@std@@PEAX@std@@@1@PEAU01@@Z
    ??$?0AEBU?$less@PEBVObjectBase@Glib@@@std@@U_Zero_then_variadic_args_t@1@@?$_Compressed_pair@U?$less@PEBVObjectBase@Glib@@@std@@V?$_Compressed_pair@V?$allocator@U?$_Tree_node@U?$pair@QEBVObjectBase@Glib@@UExtraObjectBaseData@12@@std@@PEAX@std@@@std@@V?$_Tree_val@U?$_Tree_simple_types@U?$pair@QEBVObjectBase@Glib@@UExtraObjectBaseData@12@@std@@@std@@@2@$00@2@$00@std@@QEAA@U_One_then_variadic_args_t@1@AEBU?$less@PEBVObjectBase@Glib@@@1@$$QEAU_Zero_then_variadic_args_t@1@@Z
    ??$?0$$V@?$_Compressed_pair@V?$allocator@U?$_Tree_node@U?$pair@QEBVObjectBase@Glib@@UExtraObjectBaseData@12@@std@@PEAX@std@@@std@@V?$_Tree_val@U?$_Tree_simple_types@U?$pair@QEBVObjectBase@Glib@@UExtraObjectBaseData@12@@std@@@std@@@2@$00@std@@QEAA@U_Zero_then_variadic_args_t@1@@Z
    ??$_Deallocate@$0BA@@std@@YAXPEAX_K@Z
    ??$forward@AEAPEAU?$_Tree_node@U?$pair@QEBVObjectBase@Glib@@UExtraObjectBaseData@12@@std@@PEAX@std@@@std@@YAAEAPEAU?$_Tree_node@U?$pair@QEBVObjectBase@Glib@@UExtraObjectBaseData@12@@std@@PEAX@0@AEAPEAU10@@Z
    ??$_Construct_in_place@PEBVInterface_Class@Glib@@AEAPEBV12@@std@@YAXAEAPEBVInterface_Class@Glib@@0@Z
    ??$_Allocate_at_least_helper@V?$allocator@PEBVInterface_Class@Glib@@@std@@@std@@YAPEAPEBVInterface_Class@Glib@@AEAV?$allocator@PEBVInterface_Class@Glib@@@0@AEA_K@Z
    ??1_Reallocation_guard@?$vector@PEBVInterface_Class@Glib@@V?$allocator@PEBVInterface_Class@Glib@@@std@@@std@@QEAA@XZ
    ??$_Unfancy@PEBVInterface_Class@Glib@@@std@@YAPEAPEBVInterface_Class@Glib@@PEAPEBV12@@Z
    ??$construct@PEBVInterface_Class@Glib@@AEAPEBV12@@?$_Default_allocator_traits@V?$allocator@PEBVInterface_Class@Glib@@@std@@@std@@SAXAEAV?$allocator@PEBVInterface_Class@Glib@@@1@QEAPEBVInterface_Class@Glib@@AEAPEBV34@@Z
    ??$_Uninitialized_move@PEAPEBVInterface_Class@Glib@@V?$allocator@PEBVInterface_Class@Glib@@@std@@@std@@YAPEAPEBVInterface_Class@Glib@@QEAPEBV12@0PEAPEBV12@AEAV?$allocator@PEBVInterface_Class@Glib@@@0@@Z
    ??$?0U_Exact_args_t@std@@AEAPEAX$$V$0A@@?$tuple@PEAX@std@@QEAA@U_Exact_args_t@1@AEAPEAX@Z
    ??$?0AEAP6AXPEAX0@Z@?$_Tuple_val@P6AXPEAX0@Z@std@@QEAA@AEAP6AXPEAX0@Z@Z
    ??$_Construct_in_place@V?$tuple@P6AXPEAX0@ZPEAX@std@@V12@@std@@YAXAEAV?$tuple@P6AXPEAX0@ZPEAX@0@$$QEAV10@@Z
    ??$_Allocate_at_least_helper@V?$allocator@V?$tuple@P6AXPEAX0@ZPEAX@std@@@std@@@std@@YAPEAV?$tuple@P6AXPEAX0@ZPEAX@0@AEAV?$allocator@V?$tuple@P6AXPEAX0@ZPEAX@std@@@0@AEA_K@Z
    ??1_Reallocation_guard@?$vector@V?$tuple@P6AXPEAX0@ZPEAX@std@@V?$allocator@V?$tuple@P6AXPEAX0@ZPEAX@std@@@2@@std@@QEAA@XZ
    ??$_Unfancy@V?$tuple@P6AXPEAX0@ZPEAX@std@@@std@@YAPEAV?$tuple@P6AXPEAX0@ZPEAX@0@PEAV10@@Z
    ??$construct@V?$tuple@P6AXPEAX0@ZPEAX@std@@V12@@?$_Default_allocator_traits@V?$allocator@V?$tuple@P6AXPEAX0@ZPEAX@std@@@std@@@std@@SAXAEAV?$allocator@V?$tuple@P6AXPEAX0@ZPEAX@std@@@1@QEAV?$tuple@P6AXPEAX0@ZPEAX@1@$$QEAV31@@Z
    ??$_Uninitialized_move@PEAV?$tuple@P6AXPEAX0@ZPEAX@std@@V?$allocator@V?$tuple@P6AXPEAX0@ZPEAX@std@@@2@@std@@YAPEAV?$tuple@P6AXPEAX0@ZPEAX@0@QEAV10@0PEAV10@AEAV?$allocator@V?$tuple@P6AXPEAX0@ZPEAX@std@@@0@@Z
    ??$exchange@PEAU?$_Tree_node@U?$pair@QEBVObjectBase@Glib@@UExtraObjectBaseData@12@@std@@PEAX@std@@AEAPEAU12@@std@@YAPEAU?$_Tree_node@U?$pair@QEBVObjectBase@Glib@@UExtraObjectBaseData@12@@std@@PEAX@0@AEAPEAU10@0@Z
    ??$_Destroy_in_place@PEAU?$_Tree_node@U?$pair@QEBVObjectBase@Glib@@UExtraObjectBaseData@12@@std@@PEAX@std@@@std@@YAXAEAPEAU?$_Tree_node@U?$pair@QEBVObjectBase@Glib@@UExtraObjectBaseData@12@@std@@PEAX@0@@Z
    ?deallocate@?$_Default_allocator_traits@V?$allocator@U_Container_proxy@std@@@std@@@std@@SAXAEAV?$allocator@U_Container_proxy@std@@@2@QEAU_Container_proxy@2@_K@Z
    ??$forward@AEBQEAU?$_Tree_node@U?$pair@QEBVObjectBase@Glib@@UExtraObjectBaseData@12@@std@@PEAX@std@@@std@@YAAEBQEAU?$_Tree_node@U?$pair@QEBVObjectBase@Glib@@UExtraObjectBaseData@12@@std@@PEAX@0@AEBQEAU10@@Z
    ??$forward@_N@std@@YA$$QEA_NAEA_N@Z
    ??$?0PEBVObjectBase@Glib@@$$V$0A@@?$tuple@$$QEAPEBVObjectBase@Glib@@@std@@QEAA@$$QEAPEBVObjectBase@Glib@@@Z
    ??$forward@AEBUpiecewise_construct_t@std@@@std@@YAAEBUpiecewise_construct_t@0@AEBU10@@Z
    ??$forward@V?$tuple@$$QEAPEBVObjectBase@Glib@@@std@@@std@@YA$$QEAV?$tuple@$$QEAPEBVObjectBase@Glib@@@0@AEAV10@@Z
    ??$forward@V?$tuple@$$V@std@@@std@@YA$$QEAV?$tuple@$$V@0@AEAV10@@Z
    ??$construct@U?$pair@QEBVObjectBase@Glib@@UExtraObjectBaseData@12@@std@@AEBUpiecewise_construct_t@2@V?$tuple@$$QEAPEBVObjectBase@Glib@@@2@V?$tuple@$$V@2@@?$_Default_allocator_traits@V?$allocator@U?$_Tree_node@U?$pair@QEBVObjectBase@Glib@@UExtraObjectBaseData@12@@std@@PEAX@std@@@std@@@std@@SAXAEAV?$allocator@U?$_Tree_node@U?$pair@QEBVObjectBase@Glib@@UExtraObjectBaseData@12@@std@@PEAX@std@@@1@QEAU?$pair@QEBVObjectBase@Glib@@UExtraObjectBaseData@12@@1@AEBUpiecewise_construct_t@1@$$QEAV?$tuple@$$QEAPEBVObjectBase@Glib@@@1@$$QEAV?$tuple@$$V@1@@Z
    ??$_Construct_in_place@PEAU?$_Tree_node@U?$pair@QEBVObjectBase@Glib@@UExtraObjectBaseData@12@@std@@PEAX@std@@AEAPEAU12@@std@@YAXAEAPEAU?$_Tree_node@U?$pair@QEBVObjectBase@Glib@@UExtraObjectBaseData@12@@std@@PEAX@0@0@Z
    ??$forward@PEAU?$_Tree_node@U?$pair@QEBVObjectBase@Glib@@UExtraObjectBaseData@12@@std@@PEAX@std@@@std@@YA$$QEAPEAU?$_Tree_node@U?$pair@QEBVObjectBase@Glib@@UExtraObjectBaseData@12@@std@@PEAX@0@AEAPEAU10@@Z
    ??$swap@D$0A@@std@@YAXAEAD0@Z
    ??$addressof@U_Container_proxy@std@@@std@@YAPEAU_Container_proxy@0@AEAU10@@Z
    ??$forward@PEAU_Container_base12@std@@@std@@YA$$QEAPEAU_Container_base12@0@AEAPEAU10@@Z
    ??$_Adl_verify_range@V?$_Tree_unchecked_const_iterator@V?$_Tree_val@U?$_Tree_simple_types@U?$pair@QEBVObjectBase@Glib@@UExtraObjectBaseData@12@@std@@@std@@@std@@U_Iterator_base0@2@@std@@V12@@std@@YAXAEBV?$_Tree_unchecked_const_iterator@V?$_Tree_val@U?$_Tree_simple_types@U?$pair@QEBVObjectBase@Glib@@UExtraObjectBaseData@12@@std@@@std@@@std@@U_Iterator_base0@2@@0@0@Z
    ??$_Get_unwrapped@AEAV?$_Tree_unchecked_const_iterator@V?$_Tree_val@U?$_Tree_simple_types@U?$pair@QEBVObjectBase@Glib@@UExtraObjectBaseData@12@@std@@@std@@@std@@U_Iterator_base0@2@@std@@@std@@YA?A_TAEAV?$_Tree_unchecked_const_iterator@V?$_Tree_val@U?$_Tree_simple_types@U?$pair@QEBVObjectBase@Glib@@UExtraObjectBaseData@12@@std@@@std@@@std@@U_Iterator_base0@2@@0@@Z
    ??$destroy@U?$pair@QEBVObjectBase@Glib@@UExtraObjectBaseData@12@@std@@@?$_Default_allocator_traits@V?$allocator@U?$_Tree_node@U?$pair@QEBVObjectBase@Glib@@UExtraObjectBaseData@12@@std@@PEAX@std@@@std@@@std@@SAXAEAV?$allocator@U?$_Tree_node@U?$pair@QEBVObjectBase@Glib@@UExtraObjectBaseData@12@@std@@PEAX@std@@@1@QEAU?$pair@QEBVObjectBase@Glib@@UExtraObjectBaseData@12@@1@@Z
    ??$forward@AEBU?$less@PEBVObjectBase@Glib@@@std@@@std@@YAAEBU?$less@PEBVObjectBase@Glib@@@0@AEBU10@@Z
    ??$forward@U_Zero_then_variadic_args_t@std@@@std@@YA$$QEAU_Zero_then_variadic_args_t@0@AEAU10@@Z
    ??$addressof@U_Container_base12@std@@@std@@YAPEAU_Container_base12@0@AEAU10@@Z
    ??$exchange@PEAU?$_Tree_node@U?$pair@QEBVObjectBase@Glib@@UExtraObjectBaseData@12@@std@@PEAX@std@@$$T@std@@YAPEAU?$_Tree_node@U?$pair@QEBVObjectBase@Glib@@UExtraObjectBaseData@12@@std@@PEAX@0@AEAPEAU10@$$QEA$$T@Z
    ??$_Get_size_of_n@$0BA@@std@@YA_K_K@Z
    ??$_Allocate@$0BA@U_Default_allocate_traits@std@@@std@@YAPEAX_K@Z
    ??$addressof@$$CBV?$_Tree_val@U?$_Tree_simple_types@U?$pair@QEBVObjectBase@Glib@@UExtraObjectBaseData@12@@std@@@std@@@std@@@std@@YAPEBV?$_Tree_val@U?$_Tree_simple_types@U?$pair@QEBVObjectBase@Glib@@UExtraObjectBaseData@12@@std@@@std@@@0@AEBV10@@Z
    ??$_Buyheadnode@V?$allocator@U?$_Tree_node@U?$pair@QEBVObjectBase@Glib@@UExtraObjectBaseData@12@@std@@PEAX@std@@@std@@@?$_Tree_node@U?$pair@QEBVObjectBase@Glib@@UExtraObjectBaseData@12@@std@@PEAX@std@@SAPEAU01@AEAV?$allocator@U?$_Tree_node@U?$pair@QEBVObjectBase@Glib@@UExtraObjectBaseData@12@@std@@PEAX@std@@@1@@Z
    ??$_Max_limit@_J@std@@YA_JXZ
    ??$addressof@PEBVInterface_Class@Glib@@@std@@YAPEAPEBVInterface_Class@Glib@@AEAPEBV12@@Z
    ??$_Get_unwrapped@AEBQEAPEBVInterface_Class@Glib@@@std@@YA?A_TAEBQEAPEBVInterface_Class@Glib@@@Z
    ??$move@AEAPEBVInterface_Class@Glib@@@std@@YA$$QEAPEBVInterface_Class@Glib@@AEAPEBV12@@Z
    ??$_Copy_memmove@PEAPEBVInterface_Class@Glib@@PEAPEBV12@@std@@YAPEAPEBVInterface_Class@Glib@@PEAPEBV12@00@Z
    ??0?$_Uninitialized_backout_al@V?$allocator@PEBVInterface_Class@Glib@@@std@@@std@@QEAA@PEAPEBVInterface_Class@Glib@@AEAV?$allocator@PEBVInterface_Class@Glib@@@1@@Z
    ??1?$_Uninitialized_backout_al@V?$allocator@PEBVInterface_Class@Glib@@@std@@@std@@QEAA@XZ
    ?_Release@?$_Uninitialized_backout_al@V?$allocator@PEBVInterface_Class@Glib@@@std@@@std@@QEAAPEAPEBVInterface_Class@Glib@@XZ
    ??$_Emplace_back@PEBVInterface_Class@Glib@@@?$_Uninitialized_backout_al@V?$allocator@PEBVInterface_Class@Glib@@@std@@@std@@QEAAX$$QEAPEBVInterface_Class@Glib@@@Z
    ??$?0U_Exact_args_t@std@@$0A@@?$tuple@$$V@std@@QEAA@U_Exact_args_t@1@@Z
    ??$?0AEAPEAX@?$_Tuple_val@PEAX@std@@QEAA@AEAPEAX@Z
    ??$addressof@V?$tuple@P6AXPEAX0@ZPEAX@std@@@std@@YAPEAV?$tuple@P6AXPEAX0@ZPEAX@0@AEAV10@@Z
    ??$_Get_unwrapped@AEBQEAV?$tuple@P6AXPEAX0@ZPEAX@std@@@std@@YA?A_TAEBQEAV?$tuple@P6AXPEAX0@ZPEAX@0@@Z
    ??$move@AEAV?$tuple@P6AXPEAX0@ZPEAX@std@@@std@@YA$$QEAV?$tuple@P6AXPEAX0@ZPEAX@0@AEAV10@@Z
    ??0?$_Uninitialized_backout_al@V?$allocator@V?$tuple@P6AXPEAX0@ZPEAX@std@@@std@@@std@@QEAA@PEAV?$tuple@P6AXPEAX0@ZPEAX@1@AEAV?$allocator@V?$tuple@P6AXPEAX0@ZPEAX@std@@@1@@Z
    ??1?$_Uninitialized_backout_al@V?$allocator@V?$tuple@P6AXPEAX0@ZPEAX@std@@@std@@@std@@QEAA@XZ
    ?_Release@?$_Uninitialized_backout_al@V?$allocator@V?$tuple@P6AXPEAX0@ZPEAX@std@@@std@@@std@@QEAAPEAV?$tuple@P6AXPEAX0@ZPEAX@2@XZ
    ??$_Emplace_back@V?$tuple@P6AXPEAX0@ZPEAX@std@@@?$_Uninitialized_backout_al@V?$allocator@V?$tuple@P6AXPEAX0@ZPEAX@std@@@std@@@std@@QEAAX$$QEAV?$tuple@P6AXPEAX0@ZPEAX@1@@Z
    ??$?0U_Exact_args_t@std@@PEBVObjectBase@Glib@@$$V$0A@@?$tuple@$$QEAPEBVObjectBase@Glib@@@std@@QEAA@U_Exact_args_t@1@$$QEAPEBVObjectBase@Glib@@@Z
    ??$?0$$QEAPEBVObjectBase@Glib@@$$Z$$V@?$pair@QEBVObjectBase@Glib@@UExtraObjectBaseData@12@@std@@QEAA@Upiecewise_construct_t@1@V?$tuple@$$QEAPEBVObjectBase@Glib@@@1@V?$tuple@$$V@1@@Z
    ??$addressof@PEAU?$_Tree_node@U?$pair@QEBVObjectBase@Glib@@UExtraObjectBaseData@12@@std@@PEAX@std@@@std@@YAPEAPEAU?$_Tree_node@U?$pair@QEBVObjectBase@Glib@@UExtraObjectBaseData@12@@std@@PEAX@0@AEAPEAU10@@Z
    ??$move@AEAD@std@@YA$$QEADAEAD@Z
    ??$_Allocate_manually_vector_aligned@U_Default_allocate_traits@std@@@std@@YAPEAX_K@Z
    ??$_Construct_in_place@PEAU?$_Tree_node@U?$pair@QEBVObjectBase@Glib@@UExtraObjectBaseData@12@@std@@PEAX@std@@AEBQEAU12@@std@@YAXAEAPEAU?$_Tree_node@U?$pair@QEBVObjectBase@Glib@@UExtraObjectBaseData@12@@std@@PEAX@0@AEBQEAU10@@Z
    ??$_Destroy_range@V?$allocator@V?$tuple@P6AXPEAX0@ZPEAX@std@@@std@@@std@@YAXPEAV?$tuple@P6AXPEAX0@ZPEAX@0@QEAV10@AEAV?$allocator@V?$tuple@P6AXPEAX0@ZPEAX@std@@@0@@Z
    ??$_Destroy_range@V?$allocator@PEBVInterface_Class@Glib@@@std@@@std@@YAXPEAPEBVInterface_Class@Glib@@QEAPEBV12@AEAV?$allocator@PEBVInterface_Class@Glib@@@0@@Z
    ??$_To_address@PEAPEBVInterface_Class@Glib@@@std@@YA?A_PAEBQEAPEBVInterface_Class@Glib@@@Z
    ??$move@AEAPEAPEBVInterface_Class@Glib@@@std@@YA$$QEAPEAPEBVInterface_Class@Glib@@AEAPEAPEBV12@@Z
    ??$_Copy_memmove_tail@PEAPEBVInterface_Class@Glib@@@std@@YAPEAPEBVInterface_Class@Glib@@QEBDQEAPEBV12@_K2@Z
    ??$forward@PEBVInterface_Class@Glib@@@std@@YA$$QEAPEBVInterface_Class@Glib@@AEAPEBV12@@Z
    ??$construct@PEBVInterface_Class@Glib@@PEBV12@@?$_Default_allocator_traits@V?$allocator@PEBVInterface_Class@Glib@@@std@@@std@@SAXAEAV?$allocator@PEBVInterface_Class@Glib@@@1@QEAPEBVInterface_Class@Glib@@$$QEAPEBV34@@Z
    ??$?0PEBVObjectBase@Glib@@@?$_Tuple_val@$$QEAPEBVObjectBase@Glib@@@std@@QEAA@$$QEAPEBVObjectBase@Glib@@@Z
    ??$?0V?$tuple@$$QEAPEBVObjectBase@Glib@@@std@@V?$tuple@$$V@1@$0A@$$Z$S@?$pair@QEBVObjectBase@Glib@@UExtraObjectBaseData@12@@std@@AEAA@AEAV?$tuple@$$QEAPEBVObjectBase@Glib@@@1@AEAV?$tuple@$$V@1@U?$integer_sequence@_K$0A@@1@U?$integer_sequence@_K$S@1@@Z
    ??$_Get_size_of_n@$0HA@@std@@YA_K_K@Z
    ??$?0V?$tuple@P6AXPEAX0@ZPEAX@std@@@?$allocator@U_Container_proxy@std@@@std@@QEAA@AEBV?$allocator@V?$tuple@P6AXPEAX0@ZPEAX@std@@@1@@Z
    ??$exchange@PEAU_Container_proxy@std@@$$T@std@@YAPEAU_Container_proxy@0@AEAPEAU10@$$QEA$$T@Z
    ??$?0PEBVInterface_Class@Glib@@@?$allocator@U_Container_proxy@std@@@std@@QEAA@AEBV?$allocator@PEBVInterface_Class@Glib@@@1@@Z
    ??$_Get_size_of_n@$07@std@@YA_K_K@Z
    ??$move@AEAV?$tuple@$$QEAPEBVObjectBase@Glib@@@std@@@std@@YA$$QEAV?$tuple@$$QEAPEBVObjectBase@Glib@@@0@AEAV10@@Z
    ??$_Tuple_get@$0A@$$QEAPEBVObjectBase@Glib@@@std@@YA$$QEA_P$$QEAV?$tuple@$$QEAPEBVObjectBase@Glib@@@0@@Z
    ??$?0$$V@?$_Compressed_pair@V?$allocator@V?$tuple@P6AXPEAX0@ZPEAX@std@@@std@@V?$_Vector_val@U?$_Simple_types@V?$tuple@P6AXPEAX0@ZPEAX@std@@@std@@@2@$00@std@@QEAA@U_Zero_then_variadic_args_t@1@@Z
    ??$?0$$V@?$_Compressed_pair@V?$allocator@PEBVInterface_Class@Glib@@@std@@V?$_Vector_val@U?$_Simple_types@PEBVInterface_Class@Glib@@@std@@@2@$00@std@@QEAA@U_Zero_then_variadic_args_t@1@@Z
    ??_7exception@std@@6B@
    ??_C@_0BC@EOODALEL@Unknown?5exception@
    ??_7bad_alloc@std@@6B@
    ??_7bad_array_new_length@std@@6B@
    ??_C@_0BF@KINCDENJ@bad?5array?5new?5length@
    ??_R0?AVexception@std@@@8
    _CT??_R0?AVexception@std@@@8??0exception@std@@QEAA@AEBV01@@Z24
    _TI3?AVbad_array_new_length@std@@
    _CTA3?AVbad_array_new_length@std@@
    ??_R0?AVbad_array_new_length@std@@@8
    _CT??_R0?AVbad_array_new_length@std@@@8??0bad_array_new_length@std@@QEAA@AEBV01@@Z24
    ??_R0?AVbad_alloc@std@@@8
    _CT??_R0?AVbad_alloc@std@@@8??0bad_alloc@std@@QEAA@AEBV01@@Z24
    ??_C@_0BB@FCMFBGOM@invalid?5argument@
    ??_C@_02DKCKIIND@?$CFs@
    ??_C@_0GC@KLECFGLI@C?3?2Program?5Files?2Microsoft?5Visu@
    ??_C@_0BJ@LFDBABJJ@ITERATOR?5LIST?5CORRUPTED?$CB@
    ??_C@_0BB@GCADKGJO@map?1set?5too?5long@
    ?extra_object_base_data@ObjectBase@Glib@@0V?$map@PEBVObjectBase@Glib@@UExtraObjectBaseData@12@U?$less@PEBVObjectBase@Glib@@@std@@V?$allocator@U?$pair@QEBVObjectBase@Glib@@UExtraObjectBaseData@12@@std@@@5@@std@@A
    ??_7ObjectBase@Glib@@6B@
    ??_C@_0GD@GOKHNLI@C?3?2Program?5Files?2Microsoft?5Visu@
    ??_C@_0DA@GGPHOHEL@map?1set?5erase?5iterator?5from?5inc@
    ??_C@_0GA@IINHIBAD@C?3?2Program?5Files?2Microsoft?5Visu@
    ??_C@_0CE@JAJNKOFK@cannot?5erase?5map?1set?5end?$CI?$CJ?5iter@
    ??_C@_0BP@OLDKBHLM@map?1set?5iterators?5incompatible@
    ??_C@_0DG@KGHKKGBC@null?5pointer?5cannot?5point?5to?5a?5@
    ??_C@_0BD@FEEMDEPI@invalid?5comparator@
    ??_C@_0DG@LCFNIIPB@cannot?5dereference?5value?9initia@
    ??_C@_0CI@OKFEHCEB@cannot?5dereference?5end?5map?1set?5@
    ??_C@_0BA@FOIKENOD@vector?5too?5long@
    ??_R4exception@std@@6B@
    ??_R3exception@std@@8
    ??_R2exception@std@@8
    ??_R1A@?0A@EA@exception@std@@8
    ??_R4bad_array_new_length@std@@6B@
    ??_R3bad_array_new_length@std@@8
    ??_R2bad_array_new_length@std@@8
    ??_R1A@?0A@EA@bad_array_new_length@std@@8
    ??_R1A@?0A@EA@bad_alloc@std@@8
    ??_R3bad_alloc@std@@8
    ??_R2bad_alloc@std@@8
    ??_R4bad_alloc@std@@6B@
    ??_R4ObjectBase@Glib@@6B@
    ??_R0?AVObjectBase@Glib@@@8
    ??_R3ObjectBase@Glib@@8
    ??_R2ObjectBase@Glib@@8
    ??_R1A@?0A@EA@ObjectBase@Glib@@8
    ??_R1A@73FA@trackable@sigc@@8
    ??_R0?AUtrackable@sigc@@@8
    ??_R3trackable@sigc@@8
    ??_R2trackable@sigc@@8
    ??_R1A@?0A@EA@trackable@sigc@@8
    ?__empty_global_delete@@YAXPEAX@Z
    ?__empty_global_delete@@YAXPEAX_K@Z
    ??0Exception@Glib@@QEAA@AEBV01@@Z
    ?convert_const_gchar_ptr_to_ustring@Glib@@YA?AVustring@1@PEBD@Z
    ?convert_return_gchar_ptr_to_ustring@Glib@@YA?AVustring@1@PEAD@Z
    ??$make_unique_ptr_gfree@D@Glib@@YA?AV?$unique_ptr@$$BY0A@DP6AXPEAX@Z@std@@PEAD@Z
    ??1?$unique_ptr@$$BY0A@DP6AXPEAX@Z@std@@QEAA@XZ
    ?get_deleter@?$unique_ptr@$$BY0A@DP6AXPEAX@Z@std@@QEAAAEAP6AXPEAX@ZXZ
    ?get@?$unique_ptr@$$BY0A@DP6AXPEAX@Z@std@@QEBAPEADXZ
    ?release@?$unique_ptr@$$BY0A@DP6AXPEAX@Z@std@@QEAAPEADXZ
    ?_Get_first@?$_Compressed_pair@P6AXPEAX@ZPEAD$0A@@std@@QEAAAEAP6AXPEAX@ZXZ
    ?gobj@OptionGroup@Glib@@QEBAPEBU_GOptionGroup@@XZ
    ??0OptionError@Glib@@QEAA@W4Code@01@AEBVustring@1@@Z
    ??0OptionError@Glib@@QEAA@PEAU_GError@@@Z
    ?code@OptionError@Glib@@QEBA?AW4Code@12@XZ
    ?throw_func@OptionError@Glib@@CAXPEAU_GError@@@Z
    ??1OptionError@Glib@@UEAA@XZ
    ??0OptionError@Glib@@QEAA@AEBV01@@Z
    ??0OptionContext@Glib@@QEAA@AEBVustring@1@@Z
    ??0OptionContext@Glib@@QEAA@PEAU_GOptionContext@@_N@Z
    ??0OptionContext@Glib@@QEAA@$$QEAV01@@Z
    ??4OptionContext@Glib@@QEAAAEAV01@$$QEAV01@@Z
    ??1OptionContext@Glib@@UEAA@XZ
    ?set_help_enabled@OptionContext@Glib@@QEAAX_N@Z
    ?get_help_enabled@OptionContext@Glib@@QEBA_NXZ
    ?set_ignore_unknown_options@OptionContext@Glib@@QEAAX_N@Z
    ?get_ignore_unknown_options@OptionContext@Glib@@QEBA_NXZ
    ?set_strict_posix@OptionContext@Glib@@QEAAX_N@Z
    ?get_strict_posix@OptionContext@Glib@@QEBA_NXZ
    ?parse@OptionContext@Glib@@QEAA_NAEAHAEAPEAPEAD@Z
    ?parse@OptionContext@Glib@@QEAA_NAEAPEAPEAD@Z
    ?add_group@OptionContext@Glib@@QEAAXAEAVOptionGroup@2@@Z
    ?set_main_group@OptionContext@Glib@@QEAAXAEAVOptionGroup@2@@Z
    ?get_help@OptionContext@Glib@@QEBA?AVustring@2@_NAEBVOptionGroup@2@@Z
    ?get_help@OptionContext@Glib@@QEBA?AVustring@2@_N@Z
    ?gobj@OptionContext@Glib@@QEAAPEAU_GOptionContext@@XZ
    ?gobj@OptionContext@Glib@@QEBAPEBU_GOptionContext@@XZ
    ?set_summary@OptionContext@Glib@@QEAAXAEBVustring@2@@Z
    ?get_summary@OptionContext@Glib@@QEBA?AVustring@2@XZ
    ?set_description@OptionContext@Glib@@QEAAXAEBVustring@2@@Z
    ?get_description@OptionContext@Glib@@QEBA?AVustring@2@XZ
    ?set_translation_domain@OptionContext@Glib@@QEAAXAEBVustring@2@@Z
    ?set_translate_func@OptionContext@Glib@@QEAAXAEBV?$slot@Vustring@Glib@@AEBV12@Unil@sigc@@U34@U34@U34@U34@U34@@sigc@@@Z
    ??R?$slot1@Vustring@Glib@@AEBV12@@sigc@@QEBA?AVustring@Glib@@AEBV23@@Z
    ??0?$slot1@Vustring@Glib@@AEBV12@@sigc@@QEAA@AEBV01@@Z
    ??1?$slot1@Vustring@Glib@@AEBV12@@sigc@@QEAA@XZ
    ??0?$slot@Vustring@Glib@@AEBV12@Unil@sigc@@U34@U34@U34@U34@U34@@sigc@@QEAA@AEBV01@@Z
    ??1?$slot@Vustring@Glib@@AEBV12@Unil@sigc@@U34@U34@U34@U34@U34@@sigc@@QEAA@XZ
    ??$move@AEAPEAU_GOptionContext@@@std@@YA$$QEAPEAU_GOptionContext@@AEAPEAU1@@Z
    ??$move@AEA_N@std@@YA$$QEA_NAEA_N@Z
    ??$?0PEADP6AXPEAX@Z$0A@$0A@@?$unique_ptr@$$BY0A@DP6AXPEAX@Z@std@@QEAA@PEAD$$QEAP6AXPEAX@Z@Z
    ??$?0P6AXPEAX@Z$0A@@?$unique_ptr@$$BY0A@DP6AXPEAX@Z@std@@QEAA@$$QEAV01@@Z
    ??$function_pointer_cast@P6A?AVustring@Glib@@PEAUslot_rep@internal@sigc@@AEBV12@@ZP6APEAXPEAX@Z@internal@sigc@@YAP6A?AVustring@Glib@@PEAUslot_rep@01@AEBV23@@ZP6APEAXPEAX@Z@Z
    ??$move@AEAP6AXPEAX@Z@std@@YA$$QEAP6AXPEAX@ZAEAP6AX0@Z@Z
    ??$?0P6AXPEAX@ZAEAPEAD@?$_Compressed_pair@P6AXPEAX@ZPEAD$0A@@std@@QEAA@U_One_then_variadic_args_t@1@$$QEAP6AXPEAX@ZAEAPEAD@Z
    ??$forward@P6AXPEAX@Z@std@@YA$$QEAP6AXPEAX@ZAEAP6AX0@Z@Z
    ??$?0P6AXPEAX@ZPEAD@?$_Compressed_pair@P6AXPEAX@ZPEAD$0A@@std@@QEAA@U_One_then_variadic_args_t@1@$$QEAP6AXPEAX@Z$$QEAPEAD@Z
    ??$forward@AEAPEAD@std@@YAAEAPEADAEAPEAD@Z
    ??$forward@PEAD@std@@YA$$QEAPEADAEAPEAD@Z
    ??$exchange@PEAD$$T@std@@YAPEADAEAPEAD$$QEA$$T@Z
    ??_7Exception@Glib@@6B@
    ??_7OptionError@Glib@@6B@
    ??_7OptionContext@Glib@@6B@
    _TI3?AVOptionError@Glib@@
    _CTA3?AVOptionError@Glib@@
    ??_R0?AVOptionError@Glib@@@8
    _CT??_R0?AVOptionError@Glib@@@8??0OptionError@Glib@@QEAA@AEBV01@@Z16
    ??_R0?AVError@Glib@@@8
    _CT??_R0?AVError@Glib@@@8??0Error@Glib@@QEAA@AEBV01@@Z16
    ??_R0?AVException@Glib@@@8
    _CT??_R0?AVException@Glib@@@8??0Exception@Glib@@QEAA@AEBV01@@Z8
    ??_R4Exception@Glib@@6B@
    ??_R3Exception@Glib@@8
    ??_R2Exception@Glib@@8
    ??_R1A@?0A@EA@Exception@Glib@@8
    ??_R4OptionContext@Glib@@6B@
    ??_R0?AVOptionContext@Glib@@@8
    ??_R3OptionContext@Glib@@8
    ??_R2OptionContext@Glib@@8
    ??_R1A@?0A@EA@OptionContext@Glib@@8
    ??_R4OptionError@Glib@@6B@
    ??_R3OptionError@Glib@@8
    ??_R2OptionError@Glib@@8
    ??_R1A@?0A@EA@OptionError@Glib@@8
    ??_R1A@?0A@EA@Error@Glib@@8
    ??_R3Error@Glib@@8
    ??_R2Error@Glib@@8
    ?__empty_global_delete@@YAXPEAX@Z
    ?__empty_global_delete@@YAXPEAX_K@Z
    ?convert_const_gchar_ptr_to_ustring@Glib@@YA?AVustring@1@PEBD@Z
    ??0OptionEntry@Glib@@QEAA@XZ
    ??0OptionEntry@Glib@@QEAA@AEBV01@@Z
    ??0OptionEntry@Glib@@QEAA@$$QEAV01@@Z
    ??4OptionEntry@Glib@@QEAAAEAV01@$$QEAV01@@Z
    ??1OptionEntry@Glib@@UEAA@XZ
    ??4OptionEntry@Glib@@QEAAAEAV01@AEBV01@@Z
    ?get_long_name@OptionEntry@Glib@@QEBA?AVustring@2@XZ
    ?set_long_name@OptionEntry@Glib@@QEAAXAEBVustring@2@@Z
    ?get_short_name@OptionEntry@Glib@@QEBADXZ
    ?set_short_name@OptionEntry@Glib@@QEAAXAEBD@Z
    ?get_flags@OptionEntry@Glib@@QEBAHXZ
    ?set_flags@OptionEntry@Glib@@QEAAXAEBH@Z
    ?get_description@OptionEntry@Glib@@QEBA?AVustring@2@XZ
    ?set_description@OptionEntry@Glib@@QEAAXAEBVustring@2@@Z
    ?get_arg_description@OptionEntry@Glib@@QEBA?AVustring@2@XZ
    ?set_arg_description@OptionEntry@Glib@@QEAAXAEBVustring@2@@Z
    ?gobj@OptionEntry@Glib@@QEAAPEAU_GOptionEntry@@XZ
    ?gobj@OptionEntry@Glib@@QEBAPEBU_GOptionEntry@@XZ
    ?release_gobject@OptionEntry@Glib@@AEAAXXZ
    ??$move@AEAPEAU_GOptionEntry@@@std@@YA$$QEAPEAU_GOptionEntry@@AEAPEAU1@@Z
    ??_7OptionEntry@Glib@@6B@
    ??_R4OptionEntry@Glib@@6B@
    ??_R0?AVOptionEntry@Glib@@@8
    ??_R3OptionEntry@Glib@@8
    ??_R2OptionEntry@Glib@@8
    ??_R1A@?0A@EA@OptionEntry@Glib@@8
    ?__empty_global_delete@@YAXPEAX@Z
    ?__empty_global_delete@@YAXPEAX_K@Z
    ??2@YAPEAX_KPEAX@Z
    ??0exception@std@@QEAA@QEBDH@Z
    ??0exception@std@@QEAA@AEBV01@@Z
    ??1exception@std@@UEAA@XZ
    ?what@exception@std@@UEBAPEBDXZ
    ??0bad_alloc@std@@AEAA@QEBD@Z
    ??1bad_alloc@std@@UEAA@XZ
    ??0bad_alloc@std@@QEAA@AEBV01@@Z
    ??0bad_array_new_length@std@@QEAA@XZ
    ??1bad_array_new_length@std@@UEAA@XZ
    ??0bad_array_new_length@std@@QEAA@AEBV01@@Z
    ?copy@?$_Char_traits@DH@std@@SAPEADQEADQEBD_K@Z
    ?move@?$_Char_traits@DH@std@@SAPEADQEADQEBD_K@Z
    ?length@?$_Narrow_char_traits@DH@std@@SA_KQEBD@Z
    ?assign@?$_Narrow_char_traits@DH@std@@SAXAEADAEBD@Z
    ?_Throw_bad_array_new_length@std@@YAXXZ
    ?_Allocate@_Default_allocate_traits@std@@SAPEAX_K@Z
    ?_Adjust_manually_vector_aligned@std@@YAXAEAPEAXAEA_K@Z
    ?_Adopt@_Iterator_base0@std@@QEAAXPEBX@Z
    ??0_Container_proxy@std@@QEAA@PEAU_Container_base12@1@@Z
    ??0_Container_base12@std@@QEAA@XZ
    ?_Orphan_all@_Container_base12@std@@QEAAXXZ
    ?_Swap_proxy_and_iterators@_Container_base12@std@@QEAAXAEAU12@@Z
    ?_Orphan_all_unlocked_v3@_Container_base12@std@@AEAAXXZ
    ?_Swap_proxy_and_iterators_unlocked@_Container_base12@std@@AEAAXAEAU12@@Z
    ?_Orphan_all_locked_v3@_Container_base12@std@@AEAAXXZ
    ?_Swap_proxy_and_iterators_locked@_Container_base12@std@@AEAAXAEAU12@@Z
    ??0_Iterator_base12@std@@QEAA@XZ
    ??4_Iterator_base12@std@@QEAAAEAU01@AEBU01@@Z
    ??1_Iterator_base12@std@@QEAA@XZ
    ?_Adopt@_Iterator_base12@std@@QEAAXPEBU_Container_base12@2@@Z
    ?_Getcont@_Iterator_base12@std@@QEBAPEBU_Container_base12@2@XZ
    ?_Assign_unlocked@_Iterator_base12@std@@AEAAXAEBU12@@Z
    ?_Assign_locked@_Iterator_base12@std@@AEAAXAEBU12@@Z
    ?_Adopt_unlocked@_Iterator_base12@std@@AEAAXPEBU_Container_base12@2@@Z
    ?_Adopt_locked@_Iterator_base12@std@@AEAAXPEBU_Container_base12@2@@Z
    ?_Orphan_me_unlocked_v3@_Iterator_base12@std@@AEAAXXZ
    ?_Orphan_me_locked_v3@_Iterator_base12@std@@AEAAXXZ
    ??$exchange@PEAU_Iterator_base12@std@@$$T@std@@YAPEAU_Iterator_base12@0@AEAPEAU10@$$QEA$$T@Z
    ?_Release@_Basic_container_proxy_ptr12@std@@QEAAXXZ
    ??0_Basic_container_proxy_ptr12@std@@IEAA@XZ
    ?_Xlen_string@std@@YAXXZ
    ??0?$allocator@D@std@@QEAA@XZ
    ?deallocate@?$allocator@D@std@@QEAAXQEAD_K@Z
    ?allocate@?$allocator@D@std@@QEAAPEAD_K@Z
    ?max_size@?$_Default_allocator_traits@V?$allocator@D@std@@@std@@SA_KAEBV?$allocator@D@2@@Z
    ??0?$_String_val@U?$_Simple_types@D@std@@@std@@QEAA@XZ
    ?_Myptr@?$_String_val@U?$_Simple_types@D@std@@@std@@QEAAPEADXZ
    ?_Large_mode_engaged@?$_String_val@U?$_Simple_types@D@std@@@std@@QEBA_NXZ
    ?_Activate_SSO_buffer@?$_String_val@U?$_Simple_types@D@std@@@std@@QEAAXXZ
    ??0_Bxty@?$_String_val@U?$_Simple_types@D@std@@@std@@QEAA@XZ
    ??1_Bxty@?$_String_val@U?$_Simple_types@D@std@@@std@@QEAA@XZ
    ?_Switch_to_buf@_Bxty@?$_String_val@U?$_Simple_types@D@std@@@std@@QEAAXXZ
    ??1?$_String_val@U?$_Simple_types@D@std@@@std@@QEAA@XZ
    ??0?$basic_string@DU?$char_traits@D@std@@V?$allocator@D@2@@std@@QEAA@QEBD@Z
    ?_Deallocate_for_capacity@?$basic_string@DU?$char_traits@D@std@@V?$allocator@D@2@@std@@CAXAEAV?$allocator@D@2@QEAD_K@Z
    ??0?$basic_string@DU?$char_traits@D@std@@V?$allocator@D@2@@std@@QEAA@$$QEAV01@@Z
    ?_Take_contents@?$basic_string@DU?$char_traits@D@std@@V?$allocator@D@2@@std@@AEAAXAEAV12@@Z
    ??1?$basic_string@DU?$char_traits@D@std@@V?$allocator@D@2@@std@@QEAA@XZ
    ??4?$basic_string@DU?$char_traits@D@std@@V?$allocator@D@2@@std@@QEAAAEAV01@QEBD@Z
    ?assign@?$basic_string@DU?$char_traits@D@std@@V?$allocator@D@2@@std@@QEAAAEAV12@QEBD_K@Z
    ?assign@?$basic_string@DU?$char_traits@D@std@@V?$allocator@D@2@@std@@QEAAAEAV12@QEBD@Z
    ?max_size@?$basic_string@DU?$char_traits@D@std@@V?$allocator@D@2@@std@@QEBA_KXZ
    ?_Calculate_growth@?$basic_string@DU?$char_traits@D@std@@V?$allocator@D@2@@std@@CA_K_K00@Z
    ?_Calculate_growth@?$basic_string@DU?$char_traits@D@std@@V?$allocator@D@2@@std@@AEBA_K_K@Z
    ?_Tidy_deallocate@?$basic_string@DU?$char_traits@D@std@@V?$allocator@D@2@@std@@AEAAXXZ
    ?_Swap_proxy_and_iterators@?$basic_string@DU?$char_traits@D@std@@V?$allocator@D@2@@std@@AEAAXAEAV12@@Z
    ?_Getal@?$basic_string@DU?$char_traits@D@std@@V?$allocator@D@2@@std@@AEAAAEAV?$allocator@D@2@XZ
    ?_Getal@?$basic_string@DU?$char_traits@D@std@@V?$allocator@D@2@@std@@AEBAAEBV?$allocator@D@2@XZ
    ?_Get_first@?$_Compressed_pair@V?$allocator@D@std@@V?$_String_val@U?$_Simple_types@D@std@@@2@$00@std@@QEAAAEAV?$allocator@D@2@XZ
    ?_Get_first@?$_Compressed_pair@V?$allocator@D@std@@V?$_String_val@U?$_Simple_types@D@std@@@2@$00@std@@QEBAAEBV?$allocator@D@2@XZ
    ??1?$_Compressed_pair@V?$allocator@D@std@@V?$_String_val@U?$_Simple_types@D@std@@@2@$00@std@@QEAA@XZ
    ??MGlib@@YA_NAEBVustring@0@0@Z
    ??HGlib@@YA?AVustring@0@PEBDAEBV10@@Z
    ??0?$tuple@$$V@std@@QEAA@AEBV01@@Z
    ?_Throw_tree_length_error@std@@YAXXZ
    ?gobj@OptionEntry@Glib@@QEAAPEAU_GOptionEntry@@XZ
    ?gobj@OptionEntry@Glib@@QEBAPEBU_GOptionEntry@@XZ
    ??0OptionGroup@Glib@@QEAA@AEBVustring@1@00@Z
    ??0OptionGroup@Glib@@QEAA@PEAU_GOptionGroup@@@Z
    ??0OptionGroup@Glib@@QEAA@$$QEAV01@@Z
    ??4OptionGroup@Glib@@QEAAAEAV01@$$QEAV01@@Z
    ??1OptionGroup@Glib@@UEAA@XZ
    ?on_pre_parse@OptionGroup@Glib@@UEAA_NAEAVOptionContext@2@AEAV12@@Z
    ?on_post_parse@OptionGroup@Glib@@UEAA_NAEAVOptionContext@2@AEAV12@@Z
    ?on_error@OptionGroup@Glib@@UEAAXAEAVOptionContext@2@AEAV12@@Z
    ?add_entry@OptionGroup@Glib@@QEAAXAEBVOptionEntry@2@@Z
    ?add_entry@OptionGroup@Glib@@QEAAXAEBVOptionEntry@2@AEA_N@Z
    ?add_entry@OptionGroup@Glib@@QEAAXAEBVOptionEntry@2@AEAH@Z
    ?add_entry@OptionGroup@Glib@@QEAAXAEBVOptionEntry@2@AEAN@Z
    ?add_entry@OptionGroup@Glib@@QEAAXAEBVOptionEntry@2@AEAVustring@2@@Z
    ?add_entry_filename@OptionGroup@Glib@@QEAAXAEBVOptionEntry@2@AEAV?$basic_string@DU?$char_traits@D@std@@V?$allocator@D@2@@std@@@Z
    ?add_entry@OptionGroup@Glib@@QEAAXAEBVOptionEntry@2@AEAV?$vector@Vustring@Glib@@V?$allocator@Vustring@Glib@@@std@@@std@@@Z
    ?add_entry_filename@OptionGroup@Glib@@QEAAXAEBVOptionEntry@2@AEAV?$vector@V?$basic_string@DU?$char_traits@D@std@@V?$allocator@D@2@@std@@V?$allocator@V?$basic_string@DU?$char_traits@D@std@@V?$allocator@D@2@@std@@@2@@std@@@Z
    ?add_entry@OptionGroup@Glib@@QEAAXAEBVOptionEntry@2@AEBV?$slot@_NAEBVustring@Glib@@AEBV12@_NUnil@sigc@@U34@U34@U34@@sigc@@@Z
    ?add_entry_filename@OptionGroup@Glib@@QEAAXAEBVOptionEntry@2@AEBV?$slot@_NAEBVustring@Glib@@AEBV?$basic_string@DU?$char_traits@D@std@@V?$allocator@D@2@@std@@_NUnil@sigc@@U56@U56@U56@@sigc@@@Z
    ?set_translate_func@OptionGroup@Glib@@QEAAXAEBV?$slot@Vustring@Glib@@AEBV12@Unil@sigc@@U34@U34@U34@U34@U34@@sigc@@@Z
    ?set_translation_domain@OptionGroup@Glib@@QEAAXAEBVustring@2@@Z
    ?gobj@OptionGroup@Glib@@QEAAPEAU_GOptionGroup@@XZ
    ?gobj_give_ownership@OptionGroup@Glib@@QEAAPEAU_GOptionGroup@@XZ
    ??0CppOptionEntry@OptionGroup@Glib@@QEAA@XZ
    ?allocate_c_arg@CppOptionEntry@OptionGroup@Glib@@QEAAXXZ
    ?set_c_arg_default@CppOptionEntry@OptionGroup@Glib@@QEAAXPEAX@Z
    ?convert_c_to_cpp@CppOptionEntry@OptionGroup@Glib@@QEAAXXZ
    ?release_c_arg@CppOptionEntry@OptionGroup@Glib@@QEAAXXZ
    ?add_entry_with_wrapper@OptionGroup@Glib@@IEAAXAEBVOptionEntry@2@W4GOptionArg@@PEAX@Z
    ?post_parse_callback@OptionGroup@Glib@@KAHPEAU_GOptionContext@@PEAU_GOptionGroup@@PEAXPEAPEAU_GError@@@Z
    ?option_arg_callback@OptionGroup@Glib@@KAHPEBD0PEAXPEAPEAU_GError@@@Z
    ??0?$allocator@U?$_Tree_node@U?$pair@$$CBVustring@Glib@@VCppOptionEntry@OptionGroup@2@@std@@PEAX@std@@@std@@QEAA@XZ
    ?deallocate@?$allocator@U?$_Tree_node@U?$pair@$$CBVustring@Glib@@VCppOptionEntry@OptionGroup@2@@std@@PEAX@std@@@std@@QEAAXQEAU?$_Tree_node@U?$pair@$$CBVustring@Glib@@VCppOptionEntry@OptionGroup@2@@std@@PEAX@2@_K@Z
    ?allocate@?$allocator@U?$_Tree_node@U?$pair@$$CBVustring@Glib@@VCppOptionEntry@OptionGroup@2@@std@@PEAX@std@@@std@@QEAAPEAU?$_Tree_node@U?$pair@$$CBVustring@Glib@@VCppOptionEntry@OptionGroup@2@@std@@PEAX@2@_K@Z
    ?deallocate@?$_Default_allocator_traits@V?$allocator@U?$_Tree_node@U?$pair@$$CBVustring@Glib@@VCppOptionEntry@OptionGroup@2@@std@@PEAX@std@@@std@@@std@@SAXAEAV?$allocator@U?$_Tree_node@U?$pair@$$CBVustring@Glib@@VCppOptionEntry@OptionGroup@2@@std@@PEAX@std@@@2@QEAU?$_Tree_node@U?$pair@$$CBVustring@Glib@@VCppOptionEntry@OptionGroup@2@@std@@PEAX@2@_K@Z
    ?max_size@?$_Default_allocator_traits@V?$allocator@U?$_Tree_node@U?$pair@$$CBVustring@Glib@@VCppOptionEntry@OptionGroup@2@@std@@PEAX@std@@@std@@@std@@SA_KAEBV?$allocator@U?$_Tree_node@U?$pair@$$CBVustring@Glib@@VCppOptionEntry@OptionGroup@2@@std@@PEAX@std@@@2@@Z
    ??0?$_Tree@V?$_Tmap_traits@Vustring@Glib@@VCppOptionEntry@OptionGroup@2@U?$less@Vustring@Glib@@@std@@V?$allocator@U?$pair@$$CBVustring@Glib@@VCppOptionEntry@OptionGroup@2@@std@@@6@$0A@@std@@@std@@QEAA@AEBU?$less@Vustring@Glib@@@1@@Z
    ??0?$_Tree@V?$_Tmap_traits@Vustring@Glib@@VCppOptionEntry@OptionGroup@2@U?$less@Vustring@Glib@@@std@@V?$allocator@U?$pair@$$CBVustring@Glib@@VCppOptionEntry@OptionGroup@2@@std@@@6@$0A@@std@@@std@@QEAA@$$QEAV01@@Z
    ??4?$_Tree@V?$_Tmap_traits@Vustring@Glib@@VCppOptionEntry@OptionGroup@2@U?$less@Vustring@Glib@@@std@@V?$allocator@U?$pair@$$CBVustring@Glib@@VCppOptionEntry@OptionGroup@2@@std@@@6@$0A@@std@@@std@@QEAAAEAV01@$$QEAV01@@Z
    ?_Swap_val_excluding_comp@?$_Tree@V?$_Tmap_traits@Vustring@Glib@@VCppOptionEntry@OptionGroup@2@U?$less@Vustring@Glib@@@std@@V?$allocator@U?$pair@$$CBVustring@Glib@@VCppOptionEntry@OptionGroup@2@@std@@@6@$0A@@std@@@std@@AEAAXAEAV12@@Z
    ??1?$_Tree@V?$_Tmap_traits@Vustring@Glib@@VCppOptionEntry@OptionGroup@2@U?$less@Vustring@Glib@@@std@@V?$allocator@U?$pair@$$CBVustring@Glib@@VCppOptionEntry@OptionGroup@2@@std@@@6@$0A@@std@@@std@@QEAA@XZ
    ?begin@?$_Tree@V?$_Tmap_traits@Vustring@Glib@@VCppOptionEntry@OptionGroup@2@U?$less@Vustring@Glib@@@std@@V?$allocator@U?$pair@$$CBVustring@Glib@@VCppOptionEntry@OptionGroup@2@@std@@@6@$0A@@std@@@std@@QEAA?AV?$_Tree_iterator@V?$_Tree_val@U?$_Tree_simple_types@U?$pair@$$CBVustring@Glib@@VCppOptionEntry@OptionGroup@2@@std@@@std@@@std@@@2@XZ
    ?begin@?$_Tree@V?$_Tmap_traits@Vustring@Glib@@VCppOptionEntry@OptionGroup@2@U?$less@Vustring@Glib@@@std@@V?$allocator@U?$pair@$$CBVustring@Glib@@VCppOptionEntry@OptionGroup@2@@std@@@6@$0A@@std@@@std@@QEBA?AV?$_Tree_const_iterator@V?$_Tree_val@U?$_Tree_simple_types@U?$pair@$$CBVustring@Glib@@VCppOptionEntry@OptionGroup@2@@std@@@std@@@std@@@2@XZ
    ?end@?$_Tree@V?$_Tmap_traits@Vustring@Glib@@VCppOptionEntry@OptionGroup@2@U?$less@Vustring@Glib@@@std@@V?$allocator@U?$pair@$$CBVustring@Glib@@VCppOptionEntry@OptionGroup@2@@std@@@6@$0A@@std@@@std@@QEAA?AV?$_Tree_iterator@V?$_Tree_val@U?$_Tree_simple_types@U?$pair@$$CBVustring@Glib@@VCppOptionEntry@OptionGroup@2@@std@@@std@@@std@@@2@XZ
    ?end@?$_Tree@V?$_Tmap_traits@Vustring@Glib@@VCppOptionEntry@OptionGroup@2@U?$less@Vustring@Glib@@@std@@V?$allocator@U?$pair@$$CBVustring@Glib@@VCppOptionEntry@OptionGroup@2@@std@@@6@$0A@@std@@@std@@QEBA?AV?$_Tree_const_iterator@V?$_Tree_val@U?$_Tree_simple_types@U?$pair@$$CBVustring@Glib@@VCppOptionEntry@OptionGroup@2@@std@@@std@@@std@@@2@XZ
    ?_Unchecked_begin@?$_Tree@V?$_Tmap_traits@Vustring@Glib@@VCppOptionEntry@OptionGroup@2@U?$less@Vustring@Glib@@@std@@V?$allocator@U?$pair@$$CBVustring@Glib@@VCppOptionEntry@OptionGroup@2@@std@@@6@$0A@@std@@@std@@QEAA?AV?$_Tree_unchecked_iterator@V?$_Tree_val@U?$_Tree_simple_types@U?$pair@$$CBVustring@Glib@@VCppOptionEntry@OptionGroup@2@@std@@@std@@@std@@@2@XZ
    ?_Unchecked_end@?$_Tree@V?$_Tmap_traits@Vustring@Glib@@VCppOptionEntry@OptionGroup@2@U?$less@Vustring@Glib@@@std@@V?$allocator@U?$pair@$$CBVustring@Glib@@VCppOptionEntry@OptionGroup@2@@std@@@6@$0A@@std@@@std@@QEBA?AU_Default_sentinel@2@XZ
    ?max_size@?$_Tree@V?$_Tmap_traits@Vustring@Glib@@VCppOptionEntry@OptionGroup@2@U?$less@Vustring@Glib@@@std@@V?$allocator@U?$pair@$$CBVustring@Glib@@VCppOptionEntry@OptionGroup@2@@std@@@6@$0A@@std@@@std@@QEBA_KXZ
    ?key_comp@?$_Tree@V?$_Tmap_traits@Vustring@Glib@@VCppOptionEntry@OptionGroup@2@U?$less@Vustring@Glib@@@std@@V?$allocator@U?$pair@$$CBVustring@Glib@@VCppOptionEntry@OptionGroup@2@@std@@@6@$0A@@std@@@std@@QEBA?AU?$less@Vustring@Glib@@@2@XZ
    ?clear@?$_Tree@V?$_Tmap_traits@Vustring@Glib@@VCppOptionEntry@OptionGroup@2@U?$less@Vustring@Glib@@@std@@V?$allocator@U?$pair@$$CBVustring@Glib@@VCppOptionEntry@OptionGroup@2@@std@@@6@$0A@@std@@@std@@QEAAXXZ
    ?find@?$_Tree@V?$_Tmap_traits@Vustring@Glib@@VCppOptionEntry@OptionGroup@2@U?$less@Vustring@Glib@@@std@@V?$allocator@U?$pair@$$CBVustring@Glib@@VCppOptionEntry@OptionGroup@2@@std@@@6@$0A@@std@@@std@@QEAA?AV?$_Tree_iterator@V?$_Tree_val@U?$_Tree_simple_types@U?$pair@$$CBVustring@Glib@@VCppOptionEntry@OptionGroup@2@@std@@@std@@@std@@@2@AEBVustring@Glib@@@Z
    ?find@?$_Tree@V?$_Tmap_traits@Vustring@Glib@@VCppOptionEntry@OptionGroup@2@U?$less@Vustring@Glib@@@std@@V?$allocator@U?$pair@$$CBVustring@Glib@@VCppOptionEntry@OptionGroup@2@@std@@@6@$0A@@std@@@std@@QEBA?AV?$_Tree_const_iterator@V?$_Tree_val@U?$_Tree_simple_types@U?$pair@$$CBVustring@Glib@@VCppOptionEntry@OptionGroup@2@@std@@@std@@@std@@@2@AEBVustring@Glib@@@Z
    ?_Check_grow_by_1@?$_Tree@V?$_Tmap_traits@Vustring@Glib@@VCppOptionEntry@OptionGroup@2@U?$less@Vustring@Glib@@@std@@V?$allocator@U?$pair@$$CBVustring@Glib@@VCppOptionEntry@OptionGroup@2@@std@@@6@$0A@@std@@@std@@IEAAXXZ
    ?_Alloc_sentinel_and_proxy@?$_Tree@V?$_Tmap_traits@Vustring@Glib@@VCppOptionEntry@OptionGroup@2@U?$less@Vustring@Glib@@@std@@V?$allocator@U?$pair@$$CBVustring@Glib@@VCppOptionEntry@OptionGroup@2@@std@@@6@$0A@@std@@@std@@IEAAXXZ
    ?_Getcomp@?$_Tree@V?$_Tmap_traits@Vustring@Glib@@VCppOptionEntry@OptionGroup@2@U?$less@Vustring@Glib@@@std@@V?$allocator@U?$pair@$$CBVustring@Glib@@VCppOptionEntry@OptionGroup@2@@std@@@6@$0A@@std@@@std@@IEAAAEAU?$less@Vustring@Glib@@@2@XZ
    ?_Getcomp@?$_Tree@V?$_Tmap_traits@Vustring@Glib@@VCppOptionEntry@OptionGroup@2@U?$less@Vustring@Glib@@@std@@V?$allocator@U?$pair@$$CBVustring@Glib@@VCppOptionEntry@OptionGroup@2@@std@@@6@$0A@@std@@@std@@IEBAAEBU?$less@Vustring@Glib@@@2@XZ
    ?_Getal@?$_Tree@V?$_Tmap_traits@Vustring@Glib@@VCppOptionEntry@OptionGroup@2@U?$less@Vustring@Glib@@@std@@V?$allocator@U?$pair@$$CBVustring@Glib@@VCppOptionEntry@OptionGroup@2@@std@@@6@$0A@@std@@@std@@IEAAAEAV?$allocator@U?$_Tree_node@U?$pair@$$CBVustring@Glib@@VCppOptionEntry@OptionGroup@2@@std@@PEAX@std@@@2@XZ
    ?_Getal@?$_Tree@V?$_Tmap_traits@Vustring@Glib@@VCppOptionEntry@OptionGroup@2@U?$less@Vustring@Glib@@@std@@V?$allocator@U?$pair@$$CBVustring@Glib@@VCppOptionEntry@OptionGroup@2@@std@@@6@$0A@@std@@@std@@IEBAAEBV?$allocator@U?$_Tree_node@U?$pair@$$CBVustring@Glib@@VCppOptionEntry@OptionGroup@2@@std@@PEAX@std@@@2@XZ
    ?_Get_scary@?$_Tree@V?$_Tmap_traits@Vustring@Glib@@VCppOptionEntry@OptionGroup@2@U?$less@Vustring@Glib@@@std@@V?$allocator@U?$pair@$$CBVustring@Glib@@VCppOptionEntry@OptionGroup@2@@std@@@6@$0A@@std@@@std@@IEAAPEAV?$_Tree_val@U?$_Tree_simple_types@U?$pair@$$CBVustring@Glib@@VCppOptionEntry@OptionGroup@2@@std@@@std@@@2@XZ
    ?_Get_scary@?$_Tree@V?$_Tmap_traits@Vustring@Glib@@VCppOptionEntry@OptionGroup@2@U?$less@Vustring@Glib@@@std@@V?$allocator@U?$pair@$$CBVustring@Glib@@VCppOptionEntry@OptionGroup@2@@std@@@6@$0A@@std@@@std@@IEBAPEBV?$_Tree_val@U?$_Tree_simple_types@U?$pair@$$CBVustring@Glib@@VCppOptionEntry@OptionGroup@2@@std@@@std@@@2@XZ
    ??R?$less@Vustring@Glib@@@std@@QEBA_NAEBVustring@Glib@@0@Z
    ??0?$_Tree_val@U?$_Tree_simple_types@U?$pair@$$CBVustring@Glib@@VCppOptionEntry@OptionGroup@2@@std@@@std@@@std@@QEAA@XZ
    ?_Min@?$_Tree_val@U?$_Tree_simple_types@U?$pair@$$CBVustring@Glib@@VCppOptionEntry@OptionGroup@2@@std@@@std@@@std@@SAPEAU?$_Tree_node@U?$pair@$$CBVustring@Glib@@VCppOptionEntry@OptionGroup@2@@std@@PEAX@2@PEAU32@@Z
    ?_Lrotate@?$_Tree_val@U?$_Tree_simple_types@U?$pair@$$CBVustring@Glib@@VCppOptionEntry@OptionGroup@2@@std@@@std@@@std@@QEAAXPEAU?$_Tree_node@U?$pair@$$CBVustring@Glib@@VCppOptionEntry@OptionGroup@2@@std@@PEAX@2@@Z
    ?_Rrotate@?$_Tree_val@U?$_Tree_simple_types@U?$pair@$$CBVustring@Glib@@VCppOptionEntry@OptionGroup@2@@std@@@std@@@std@@QEAAXPEAU?$_Tree_node@U?$pair@$$CBVustring@Glib@@VCppOptionEntry@OptionGroup@2@@std@@PEAX@2@@Z
    ?_Insert_node@?$_Tree_val@U?$_Tree_simple_types@U?$pair@$$CBVustring@Glib@@VCppOptionEntry@OptionGroup@2@@std@@@std@@@std@@QEAAPEAU?$_Tree_node@U?$pair@$$CBVustring@Glib@@VCppOptionEntry@OptionGroup@2@@std@@PEAX@2@U?$_Tree_id@PEAU?$_Tree_node@U?$pair@$$CBVustring@Glib@@VCppOptionEntry@OptionGroup@2@@std@@PEAX@std@@@2@QEAU32@@Z
    ?_Orphan_ptr@?$_Tree_val@U?$_Tree_simple_types@U?$pair@$$CBVustring@Glib@@VCppOptionEntry@OptionGroup@2@@std@@@std@@@std@@QEAAXQEAU?$_Tree_node@U?$pair@$$CBVustring@Glib@@VCppOptionEntry@OptionGroup@2@@std@@PEAX@2@@Z
    ?_Get_first@?$_Compressed_pair@V?$allocator@U?$_Tree_node@U?$pair@$$CBVustring@Glib@@VCppOptionEntry@OptionGroup@2@@std@@PEAX@std@@@std@@V?$_Tree_val@U?$_Tree_simple_types@U?$pair@$$CBVustring@Glib@@VCppOptionEntry@OptionGroup@2@@std@@@std@@@2@$00@std@@QEAAAEAV?$allocator@U?$_Tree_node@U?$pair@$$CBVustring@Glib@@VCppOptionEntry@OptionGroup@2@@std@@PEAX@std@@@2@XZ
    ?_Get_first@?$_Compressed_pair@V?$allocator@U?$_Tree_node@U?$pair@$$CBVustring@Glib@@VCppOptionEntry@OptionGroup@2@@std@@PEAX@std@@@std@@V?$_Tree_val@U?$_Tree_simple_types@U?$pair@$$CBVustring@Glib@@VCppOptionEntry@OptionGroup@2@@std@@@std@@@2@$00@std@@QEBAAEBV?$allocator@U?$_Tree_node@U?$pair@$$CBVustring@Glib@@VCppOptionEntry@OptionGroup@2@@std@@PEAX@std@@@2@XZ
    ?_Get_first@?$_Compressed_pair@U?$less@Vustring@Glib@@@std@@V?$_Compressed_pair@V?$allocator@U?$_Tree_node@U?$pair@$$CBVustring@Glib@@VCppOptionEntry@OptionGroup@2@@std@@PEAX@std@@@std@@V?$_Tree_val@U?$_Tree_simple_types@U?$pair@$$CBVustring@Glib@@VCppOptionEntry@OptionGroup@2@@std@@@std@@@2@$00@2@$00@std@@QEAAAEAU?$less@Vustring@Glib@@@2@XZ
    ?_Get_first@?$_Compressed_pair@U?$less@Vustring@Glib@@@std@@V?$_Compressed_pair@V?$allocator@U?$_Tree_node@U?$pair@$$CBVustring@Glib@@VCppOptionEntry@OptionGroup@2@@std@@PEAX@std@@@std@@V?$_Tree_val@U?$_Tree_simple_types@U?$pair@$$CBVustring@Glib@@VCppOptionEntry@OptionGroup@2@@std@@@std@@@2@$00@2@$00@std@@QEBAAEBU?$less@Vustring@Glib@@@2@XZ
    ??0?$map@Vustring@Glib@@VCppOptionEntry@OptionGroup@2@U?$less@Vustring@Glib@@@std@@V?$allocator@U?$pair@$$CBVustring@Glib@@VCppOptionEntry@OptionGroup@2@@std@@@6@@std@@QEAA@XZ
    ??0?$map@Vustring@Glib@@VCppOptionEntry@OptionGroup@2@U?$less@Vustring@Glib@@@std@@V?$allocator@U?$pair@$$CBVustring@Glib@@VCppOptionEntry@OptionGroup@2@@std@@@6@@std@@QEAA@$$QEAV01@@Z
    ??4?$map@Vustring@Glib@@VCppOptionEntry@OptionGroup@2@U?$less@Vustring@Glib@@@std@@V?$allocator@U?$pair@$$CBVustring@Glib@@VCppOptionEntry@OptionGroup@2@@std@@@6@@std@@QEAAAEAV01@$$QEAV01@@Z
    ??A?$map@Vustring@Glib@@VCppOptionEntry@OptionGroup@2@U?$less@Vustring@Glib@@@std@@V?$allocator@U?$pair@$$CBVustring@Glib@@VCppOptionEntry@OptionGroup@2@@std@@@6@@std@@QEAAAEAVCppOptionEntry@OptionGroup@Glib@@AEBVustring@4@@Z
    ??1?$map@Vustring@Glib@@VCppOptionEntry@OptionGroup@2@U?$less@Vustring@Glib@@@std@@V?$allocator@U?$pair@$$CBVustring@Glib@@VCppOptionEntry@OptionGroup@2@@std@@@6@@std@@QEAA@XZ
    ?release_gobject@OptionGroup@Glib@@AEAAXXZ
    ??1OptionError@Glib@@UEAA@XZ
    ??R?$slot3@_NAEBVustring@Glib@@AEBV12@_N@sigc@@QEBA_NAEBVustring@Glib@@0AEB_N@Z
    ??0?$slot3@_NAEBVustring@Glib@@AEBV12@_N@sigc@@QEAA@AEBV01@@Z
    ??1?$slot3@_NAEBVustring@Glib@@AEBV12@_N@sigc@@QEAA@XZ
    ??0?$slot@_NAEBVustring@Glib@@AEBV12@_NUnil@sigc@@U34@U34@U34@@sigc@@QEAA@AEBV01@@Z
    ??1?$slot@_NAEBVustring@Glib@@AEBV12@_NUnil@sigc@@U34@U34@U34@@sigc@@QEAA@XZ
    ??R?$slot3@_NAEBVustring@Glib@@AEBV?$basic_string@DU?$char_traits@D@std@@V?$allocator@D@2@@std@@_N@sigc@@QEBA_NAEBVustring@Glib@@AEBV?$basic_string@DU?$char_traits@D@std@@V?$allocator@D@2@@std@@AEB_N@Z
    ??0?$slot3@_NAEBVustring@Glib@@AEBV?$basic_string@DU?$char_traits@D@std@@V?$allocator@D@2@@std@@_N@sigc@@QEAA@AEBV01@@Z
    ??1?$slot3@_NAEBVustring@Glib@@AEBV?$basic_string@DU?$char_traits@D@std@@V?$allocator@D@2@@std@@_N@sigc@@QEAA@XZ
    ??0?$slot@_NAEBVustring@Glib@@AEBV?$basic_string@DU?$char_traits@D@std@@V?$allocator@D@2@@std@@_NUnil@sigc@@U56@U56@U56@@sigc@@QEAA@AEBV01@@Z
    ??1?$slot@_NAEBVustring@Glib@@AEBV?$basic_string@DU?$char_traits@D@std@@V?$allocator@D@2@@std@@_NUnil@sigc@@U56@U56@U56@@sigc@@QEAA@XZ
    ??R?$slot1@Vustring@Glib@@AEBV12@@sigc@@QEBA?AVustring@Glib@@AEBV23@@Z
    ??0?$slot1@Vustring@Glib@@AEBV12@@sigc@@QEAA@AEBV01@@Z
    ??1?$slot1@Vustring@Glib@@AEBV12@@sigc@@QEAA@XZ
    ??0?$slot@Vustring@Glib@@AEBV12@Unil@sigc@@U34@U34@U34@U34@U34@@sigc@@QEAA@AEBV01@@Z
    ??1?$slot@Vustring@Glib@@AEBV12@Unil@sigc@@U34@U34@U34@U34@U34@@sigc@@QEAA@XZ
    ??0?$_Tree_unchecked_const_iterator@V?$_Tree_val@U?$_Tree_simple_types@U?$pair@$$CBVustring@Glib@@VCppOptionEntry@OptionGroup@2@@std@@@std@@@std@@U_Iterator_base0@2@@std@@QEAA@PEAU?$_Tree_node@U?$pair@$$CBVustring@Glib@@VCppOptionEntry@OptionGroup@2@@std@@PEAX@1@PEBV?$_Tree_val@U?$_Tree_simple_types@U?$pair@$$CBVustring@Glib@@VCppOptionEntry@OptionGroup@2@@std@@@std@@@1@@Z
    ??D?$_Tree_unchecked_const_iterator@V?$_Tree_val@U?$_Tree_simple_types@U?$pair@$$CBVustring@Glib@@VCppOptionEntry@OptionGroup@2@@std@@@std@@@std@@U_Iterator_base0@2@@std@@QEBAAEBU?$pair@$$CBVustring@Glib@@VCppOptionEntry@OptionGroup@2@@1@XZ
    ??E?$_Tree_unchecked_const_iterator@V?$_Tree_val@U?$_Tree_simple_types@U?$pair@$$CBVustring@Glib@@VCppOptionEntry@OptionGroup@2@@std@@@std@@@std@@U_Iterator_base0@2@@std@@QEAAAEAV01@XZ
    ??9?$_Tree_unchecked_const_iterator@V?$_Tree_val@U?$_Tree_simple_types@U?$pair@$$CBVustring@Glib@@VCppOptionEntry@OptionGroup@2@@std@@@std@@@std@@U_Iterator_base0@2@@std@@QEBA_NU_Default_sentinel@1@@Z
    ??D?$_Tree_unchecked_iterator@V?$_Tree_val@U?$_Tree_simple_types@U?$pair@$$CBVustring@Glib@@VCppOptionEntry@OptionGroup@2@@std@@@std@@@std@@@std@@QEBAAEAU?$pair@$$CBVustring@Glib@@VCppOptionEntry@OptionGroup@2@@1@XZ
    ??E?$_Tree_unchecked_iterator@V?$_Tree_val@U?$_Tree_simple_types@U?$pair@$$CBVustring@Glib@@VCppOptionEntry@OptionGroup@2@@std@@@std@@@std@@@std@@QEAAAEAV01@XZ
    ??0?$_Tree_unchecked_iterator@V?$_Tree_val@U?$_Tree_simple_types@U?$pair@$$CBVustring@Glib@@VCppOptionEntry@OptionGroup@2@@std@@@std@@@std@@@std@@QEAA@PEAU?$_Tree_node@U?$pair@$$CBVustring@Glib@@VCppOptionEntry@OptionGroup@2@@std@@PEAX@1@PEBV?$_Tree_val@U?$_Tree_simple_types@U?$pair@$$CBVustring@Glib@@VCppOptionEntry@OptionGroup@2@@std@@@std@@@1@@Z
    ??1?$pair@$$CBVustring@Glib@@VCppOptionEntry@OptionGroup@2@@std@@QEAA@XZ
    ??0?$_Tree_unchecked_const_iterator@V?$_Tree_val@U?$_Tree_simple_types@U?$pair@$$CBVustring@Glib@@VCppOptionEntry@OptionGroup@2@@std@@@std@@@std@@U_Iterator_base12@2@@std@@QEAA@PEAU?$_Tree_node@U?$pair@$$CBVustring@Glib@@VCppOptionEntry@OptionGroup@2@@std@@PEAX@1@PEBV?$_Tree_val@U?$_Tree_simple_types@U?$pair@$$CBVustring@Glib@@VCppOptionEntry@OptionGroup@2@@std@@@std@@@1@@Z
    ??E?$_Tree_unchecked_const_iterator@V?$_Tree_val@U?$_Tree_simple_types@U?$pair@$$CBVustring@Glib@@VCppOptionEntry@OptionGroup@2@@std@@@std@@@std@@U_Iterator_base12@2@@std@@QEAAAEAV01@XZ
    ??1?$_Tree_unchecked_const_iterator@V?$_Tree_val@U?$_Tree_simple_types@U?$pair@$$CBVustring@Glib@@VCppOptionEntry@OptionGroup@2@@std@@@std@@@std@@U_Iterator_base12@2@@std@@QEAA@XZ
    ??4?$_Tree_unchecked_const_iterator@V?$_Tree_val@U?$_Tree_simple_types@U?$pair@$$CBVustring@Glib@@VCppOptionEntry@OptionGroup@2@@std@@@std@@@std@@U_Iterator_base12@2@@std@@QEAAAEAV01@$$QEAV01@@Z
    ??D?$_Tree_const_iterator@V?$_Tree_val@U?$_Tree_simple_types@U?$pair@$$CBVustring@Glib@@VCppOptionEntry@OptionGroup@2@@std@@@std@@@std@@@std@@QEBAAEBU?$pair@$$CBVustring@Glib@@VCppOptionEntry@OptionGroup@2@@1@XZ
    ??C?$_Tree_const_iterator@V?$_Tree_val@U?$_Tree_simple_types@U?$pair@$$CBVustring@Glib@@VCppOptionEntry@OptionGroup@2@@std@@@std@@@std@@@std@@QEBAPEBU?$pair@$$CBVustring@Glib@@VCppOptionEntry@OptionGroup@2@@1@XZ
    ??E?$_Tree_const_iterator@V?$_Tree_val@U?$_Tree_simple_types@U?$pair@$$CBVustring@Glib@@VCppOptionEntry@OptionGroup@2@@std@@@std@@@std@@@std@@QEAAAEAV01@XZ
    ??8?$_Tree_const_iterator@V?$_Tree_val@U?$_Tree_simple_types@U?$pair@$$CBVustring@Glib@@VCppOptionEntry@OptionGroup@2@@std@@@std@@@std@@@std@@QEBA_NAEBV01@@Z
    ??9?$_Tree_const_iterator@V?$_Tree_val@U?$_Tree_simple_types@U?$pair@$$CBVustring@Glib@@VCppOptionEntry@OptionGroup@2@@std@@@std@@@std@@@std@@QEBA_NAEBV01@@Z
    ??1?$_Tree_const_iterator@V?$_Tree_val@U?$_Tree_simple_types@U?$pair@$$CBVustring@Glib@@VCppOptionEntry@OptionGroup@2@@std@@@std@@@std@@@std@@QEAA@XZ
    ??4?$_Tree_const_iterator@V?$_Tree_val@U?$_Tree_simple_types@U?$pair@$$CBVustring@Glib@@VCppOptionEntry@OptionGroup@2@@std@@@std@@@std@@@std@@QEAAAEAV01@$$QEAV01@@Z
    ??0?$_Tree_const_iterator@V?$_Tree_val@U?$_Tree_simple_types@U?$pair@$$CBVustring@Glib@@VCppOptionEntry@OptionGroup@2@@std@@@std@@@std@@@std@@QEAA@PEAU?$_Tree_node@U?$pair@$$CBVustring@Glib@@VCppOptionEntry@OptionGroup@2@@std@@PEAX@1@PEBV?$_Tree_val@U?$_Tree_simple_types@U?$pair@$$CBVustring@Glib@@VCppOptionEntry@OptionGroup@2@@std@@@std@@@1@@Z
    ??$move@AEAV?$map@Vustring@Glib@@VCppOptionEntry@OptionGroup@2@U?$less@Vustring@Glib@@@std@@V?$allocator@U?$pair@$$CBVustring@Glib@@VCppOptionEntry@OptionGroup@2@@std@@@6@@std@@@std@@YA$$QEAV?$map@Vustring@Glib@@VCppOptionEntry@OptionGroup@2@U?$less@Vustring@Glib@@@std@@V?$allocator@U?$pair@$$CBVustring@Glib@@VCppOptionEntry@OptionGroup@2@@std@@@6@@0@AEAV10@@Z
    ??$move@AEAPEAU_GOptionGroup@@@std@@YA$$QEAPEAU_GOptionGroup@@AEAPEAU1@@Z
    ??$move@AEA_N@std@@YA$$QEA_NAEA_N@Z
    ?deallocate@?$allocator@Vustring@Glib@@@std@@QEAAXQEAVustring@Glib@@_K@Z
    ?allocate@?$allocator@Vustring@Glib@@@std@@QEAAPEAVustring@Glib@@_K@Z
    ?max_size@?$_Default_allocator_traits@V?$allocator@Vustring@Glib@@@std@@@std@@SA_KAEBV?$allocator@Vustring@Glib@@@2@@Z
    ?clear@?$vector@Vustring@Glib@@V?$allocator@Vustring@Glib@@@std@@@std@@QEAAXXZ
    ?max_size@?$vector@Vustring@Glib@@V?$allocator@Vustring@Glib@@@std@@@std@@QEBA_KXZ
    ?capacity@?$vector@Vustring@Glib@@V?$allocator@Vustring@Glib@@@std@@@std@@QEBA_KXZ
    ?_Calculate_growth@?$vector@Vustring@Glib@@V?$allocator@Vustring@Glib@@@std@@@std@@AEBA_K_K@Z
    ?_Change_array@?$vector@Vustring@Glib@@V?$allocator@Vustring@Glib@@@std@@@std@@AEAAXQEAVustring@Glib@@_K1@Z
    ?_Xlength@?$vector@Vustring@Glib@@V?$allocator@Vustring@Glib@@@std@@@std@@CAXXZ
    ?_Orphan_range_unlocked@?$vector@Vustring@Glib@@V?$allocator@Vustring@Glib@@@std@@@std@@AEBAXPEAVustring@Glib@@0@Z
    ?_Orphan_range_locked@?$vector@Vustring@Glib@@V?$allocator@Vustring@Glib@@@std@@@std@@AEBAXPEAVustring@Glib@@0@Z
    ?_Orphan_range@?$vector@Vustring@Glib@@V?$allocator@Vustring@Glib@@@std@@@std@@AEBAXPEAVustring@Glib@@0@Z
    ?_Getal@?$vector@Vustring@Glib@@V?$allocator@Vustring@Glib@@@std@@@std@@AEAAAEAV?$allocator@Vustring@Glib@@@2@XZ
    ?_Getal@?$vector@Vustring@Glib@@V?$allocator@Vustring@Glib@@@std@@@std@@AEBAAEBV?$allocator@Vustring@Glib@@@2@XZ
    ?_Get_first@?$_Compressed_pair@V?$allocator@Vustring@Glib@@@std@@V?$_Vector_val@U?$_Simple_types@Vustring@Glib@@@std@@@2@$00@std@@QEAAAEAV?$allocator@Vustring@Glib@@@2@XZ
    ?_Get_first@?$_Compressed_pair@V?$allocator@Vustring@Glib@@@std@@V?$_Vector_val@U?$_Simple_types@Vustring@Glib@@@std@@@2@$00@std@@QEBAAEBV?$allocator@Vustring@Glib@@@2@XZ
    ?deallocate@?$allocator@V?$basic_string@DU?$char_traits@D@std@@V?$allocator@D@2@@std@@@std@@QEAAXQEAV?$basic_string@DU?$char_traits@D@std@@V?$allocator@D@2@@2@_K@Z
    ?allocate@?$allocator@V?$basic_string@DU?$char_traits@D@std@@V?$allocator@D@2@@std@@@std@@QEAAPEAV?$basic_string@DU?$char_traits@D@std@@V?$allocator@D@2@@2@_K@Z
    ?max_size@?$_Default_allocator_traits@V?$allocator@V?$basic_string@DU?$char_traits@D@std@@V?$allocator@D@2@@std@@@std@@@std@@SA_KAEBV?$allocator@V?$basic_string@DU?$char_traits@D@std@@V?$allocator@D@2@@std@@@2@@Z
    ?clear@?$vector@V?$basic_string@DU?$char_traits@D@std@@V?$allocator@D@2@@std@@V?$allocator@V?$basic_string@DU?$char_traits@D@std@@V?$allocator@D@2@@std@@@2@@std@@QEAAXXZ
    ?max_size@?$vector@V?$basic_string@DU?$char_traits@D@std@@V?$allocator@D@2@@std@@V?$allocator@V?$basic_string@DU?$char_traits@D@std@@V?$allocator@D@2@@std@@@2@@std@@QEBA_KXZ
    ?capacity@?$vector@V?$basic_string@DU?$char_traits@D@std@@V?$allocator@D@2@@std@@V?$allocator@V?$basic_string@DU?$char_traits@D@std@@V?$allocator@D@2@@std@@@2@@std@@QEBA_KXZ
    ?_Calculate_growth@?$vector@V?$basic_string@DU?$char_traits@D@std@@V?$allocator@D@2@@std@@V?$allocator@V?$basic_string@DU?$char_traits@D@std@@V?$allocator@D@2@@std@@@2@@std@@AEBA_K_K@Z
    ?_Change_array@?$vector@V?$basic_string@DU?$char_traits@D@std@@V?$allocator@D@2@@std@@V?$allocator@V?$basic_string@DU?$char_traits@D@std@@V?$allocator@D@2@@std@@@2@@std@@AEAAXQEAV?$basic_string@DU?$char_traits@D@std@@V?$allocator@D@2@@2@_K1@Z
    ?_Xlength@?$vector@V?$basic_string@DU?$char_traits@D@std@@V?$allocator@D@2@@std@@V?$allocator@V?$basic_string@DU?$char_traits@D@std@@V?$allocator@D@2@@std@@@2@@std@@CAXXZ
    ?_Orphan_range_unlocked@?$vector@V?$basic_string@DU?$char_traits@D@std@@V?$allocator@D@2@@std@@V?$allocator@V?$basic_string@DU?$char_traits@D@std@@V?$allocator@D@2@@std@@@2@@std@@AEBAXPEAV?$basic_string@DU?$char_traits@D@std@@V?$allocator@D@2@@2@0@Z
    ?_Orphan_range_locked@?$vector@V?$basic_string@DU?$char_traits@D@std@@V?$allocator@D@2@@std@@V?$allocator@V?$basic_string@DU?$char_traits@D@std@@V?$allocator@D@2@@std@@@2@@std@@AEBAXPEAV?$basic_string@DU?$char_traits@D@std@@V?$allocator@D@2@@2@0@Z
    ?_Orphan_range@?$vector@V?$basic_string@DU?$char_traits@D@std@@V?$allocator@D@2@@std@@V?$allocator@V?$basic_string@DU?$char_traits@D@std@@V?$allocator@D@2@@std@@@2@@std@@AEBAXPEAV?$basic_string@DU?$char_traits@D@std@@V?$allocator@D@2@@2@0@Z
    ?_Getal@?$vector@V?$basic_string@DU?$char_traits@D@std@@V?$allocator@D@2@@std@@V?$allocator@V?$basic_string@DU?$char_traits@D@std@@V?$allocator@D@2@@std@@@2@@std@@AEAAAEAV?$allocator@V?$basic_string@DU?$char_traits@D@std@@V?$allocator@D@2@@std@@@2@XZ
    ?_Getal@?$vector@V?$basic_string@DU?$char_traits@D@std@@V?$allocator@D@2@@std@@V?$allocator@V?$basic_string@DU?$char_traits@D@std@@V?$allocator@D@2@@std@@@2@@std@@AEBAAEBV?$allocator@V?$basic_string@DU?$char_traits@D@std@@V?$allocator@D@2@@std@@@2@XZ
    ?_Get_first@?$_Compressed_pair@V?$allocator@V?$basic_string@DU?$char_traits@D@std@@V?$allocator@D@2@@std@@@std@@V?$_Vector_val@U?$_Simple_types@V?$basic_string@DU?$char_traits@D@std@@V?$allocator@D@2@@std@@@std@@@2@$00@std@@QEAAAEAV?$allocator@V?$basic_string@DU?$char_traits@D@std@@V?$allocator@D@2@@std@@@2@XZ
    ?_Get_first@?$_Compressed_pair@V?$allocator@V?$basic_string@DU?$char_traits@D@std@@V?$allocator@D@2@@std@@@std@@V?$_Vector_val@U?$_Simple_types@V?$basic_string@DU?$char_traits@D@std@@V?$allocator@D@2@@std@@@std@@@2@$00@std@@QEBAAEBV?$allocator@V?$basic_string@DU?$char_traits@D@std@@V?$allocator@D@2@@std@@@2@XZ
    ??D?$_Tree_iterator@V?$_Tree_val@U?$_Tree_simple_types@U?$pair@$$CBVustring@Glib@@VCppOptionEntry@OptionGroup@2@@std@@@std@@@std@@@std@@QEBAAEAU?$pair@$$CBVustring@Glib@@VCppOptionEntry@OptionGroup@2@@1@XZ
    ??C?$_Tree_iterator@V?$_Tree_val@U?$_Tree_simple_types@U?$pair@$$CBVustring@Glib@@VCppOptionEntry@OptionGroup@2@@std@@@std@@@std@@@std@@QEBAPEAU?$pair@$$CBVustring@Glib@@VCppOptionEntry@OptionGroup@2@@1@XZ
    ??E?$_Tree_iterator@V?$_Tree_val@U?$_Tree_simple_types@U?$pair@$$CBVustring@Glib@@VCppOptionEntry@OptionGroup@2@@std@@@std@@@std@@@std@@QEAAAEAV01@XZ
    ??1?$_Tree_iterator@V?$_Tree_val@U?$_Tree_simple_types@U?$pair@$$CBVustring@Glib@@VCppOptionEntry@OptionGroup@2@@std@@@std@@@std@@@std@@QEAA@XZ
    ??0?$_Tree_iterator@V?$_Tree_val@U?$_Tree_simple_types@U?$pair@$$CBVustring@Glib@@VCppOptionEntry@OptionGroup@2@@std@@@std@@@std@@@std@@QEAA@PEAU?$_Tree_node@U?$pair@$$CBVustring@Glib@@VCppOptionEntry@OptionGroup@2@@std@@PEAX@1@PEBV?$_Tree_val@U?$_Tree_simple_types@U?$pair@$$CBVustring@Glib@@VCppOptionEntry@OptionGroup@2@@std@@@std@@@1@@Z
    ??$emplace_back@AEAPEAD@?$vector@Vustring@Glib@@V?$allocator@Vustring@Glib@@@std@@@std@@QEAAXAEAPEAD@Z
    ??$emplace_back@AEAPEAD@?$vector@V?$basic_string@DU?$char_traits@D@std@@V?$allocator@D@2@@std@@V?$allocator@V?$basic_string@DU?$char_traits@D@std@@V?$allocator@D@2@@std@@@2@@std@@QEAAXAEAPEAD@Z
    ??$min@_K@std@@YAAEB_KAEB_K0@Z
    ??$forward@AEAPEAD@std@@YAAEAPEADAEAPEAD@Z
    ??$_Emplace_one_at_back@AEAPEAD@?$vector@Vustring@Glib@@V?$allocator@Vustring@Glib@@@std@@@std@@AEAAAEAVustring@Glib@@AEAPEAD@Z
    ??$_Emplace_one_at_back@AEAPEAD@?$vector@V?$basic_string@DU?$char_traits@D@std@@V?$allocator@D@2@@std@@V?$allocator@V?$basic_string@DU?$char_traits@D@std@@V?$allocator@D@2@@std@@@2@@std@@AEAAAEAV?$basic_string@DU?$char_traits@D@std@@V?$allocator@D@2@@1@AEAPEAD@Z
    ??$function_pointer_cast@P6A?AVustring@Glib@@PEAUslot_rep@internal@sigc@@AEBV12@@ZP6APEAXPEAX@Z@internal@sigc@@YAP6A?AVustring@Glib@@PEAUslot_rep@01@AEBV23@@ZP6APEAXPEAX@Z@Z
    ??$function_pointer_cast@P6A_NPEAUslot_rep@internal@sigc@@AEBVustring@Glib@@AEBV?$basic_string@DU?$char_traits@D@std@@V?$allocator@D@2@@std@@AEB_N@ZP6APEAXPEAX@Z@internal@sigc@@YAP6A_NPEAUslot_rep@01@AEBVustring@Glib@@AEBV?$basic_string@DU?$char_traits@D@std@@V?$allocator@D@2@@std@@AEB_N@ZP6APEAXPEAX@Z@Z
    ??$function_pointer_cast@P6A_NPEAUslot_rep@internal@sigc@@AEBVustring@Glib@@1AEB_N@ZP6APEAXPEAX@Z@internal@sigc@@YAP6A_NPEAUslot_rep@01@AEBVustring@Glib@@1AEB_N@ZP6APEAXPEAX@Z@Z
    ?pointer_to@?$pointer_traits@PEAU?$pair@$$CBVustring@Glib@@VCppOptionEntry@OptionGroup@2@@std@@@std@@SAPEAU?$pair@$$CBVustring@Glib@@VCppOptionEntry@OptionGroup@2@@2@AEAU32@@Z
    ?pointer_to@?$pointer_traits@PEBU?$pair@$$CBVustring@Glib@@VCppOptionEntry@OptionGroup@2@@std@@@std@@SAPEBU?$pair@$$CBVustring@Glib@@VCppOptionEntry@OptionGroup@2@@2@AEBU32@@Z
    ??$_Find@Vustring@Glib@@@?$_Tree@V?$_Tmap_traits@Vustring@Glib@@VCppOptionEntry@OptionGroup@2@U?$less@Vustring@Glib@@@std@@V?$allocator@U?$pair@$$CBVustring@Glib@@VCppOptionEntry@OptionGroup@2@@std@@@6@$0A@@std@@@std@@AEBAPEAU?$_Tree_node@U?$pair@$$CBVustring@Glib@@VCppOptionEntry@OptionGroup@2@@std@@PEAX@1@AEBVustring@Glib@@@Z
    ??$_Erase_head@V?$allocator@U?$_Tree_node@U?$pair@$$CBVustring@Glib@@VCppOptionEntry@OptionGroup@2@@std@@PEAX@std@@@std@@@?$_Tree_val@U?$_Tree_simple_types@U?$pair@$$CBVustring@Glib@@VCppOptionEntry@OptionGroup@2@@std@@@std@@@std@@QEAAXAEAV?$allocator@U?$_Tree_node@U?$pair@$$CBVustring@Glib@@VCppOptionEntry@OptionGroup@2@@std@@PEAX@std@@@1@@Z
    ?allocate@?$allocator@U_Container_proxy@std@@@std@@QEAAPEAU_Container_proxy@2@_K@Z
    ??$?0U?$_Tree_node@U?$pair@$$CBVustring@Glib@@VCppOptionEntry@OptionGroup@2@@std@@PEAX@std@@@?$allocator@U_Container_proxy@std@@@std@@QEAA@AEBV?$allocator@U?$_Tree_node@U?$pair@$$CBVustring@Glib@@VCppOptionEntry@OptionGroup@2@@std@@PEAX@std@@@1@@Z
    ??$_Delete_plain_internal@V?$allocator@U_Container_proxy@std@@@std@@@std@@YAXAEAV?$allocator@U_Container_proxy@std@@@0@QEAU_Container_proxy@0@@Z
    ??$_Try_emplace@AEBVustring@Glib@@$$V@?$map@Vustring@Glib@@VCppOptionEntry@OptionGroup@2@U?$less@Vustring@Glib@@@std@@V?$allocator@U?$pair@$$CBVustring@Glib@@VCppOptionEntry@OptionGroup@2@@std@@@6@@std@@AEAA?AU?$pair@PEAU?$_Tree_node@U?$pair@$$CBVustring@Glib@@VCppOptionEntry@OptionGroup@2@@std@@PEAX@std@@_N@1@AEBVustring@Glib@@@Z
    ??$_Destroy_range@V?$allocator@Vustring@Glib@@@std@@@std@@YAXPEAVustring@Glib@@QEAV12@AEAV?$allocator@Vustring@Glib@@@0@@Z
    ??$_Destroy_range@V?$allocator@V?$basic_string@DU?$char_traits@D@std@@V?$allocator@D@2@@std@@@std@@@std@@YAXPEAV?$basic_string@DU?$char_traits@D@std@@V?$allocator@D@2@@0@QEAV10@AEAV?$allocator@V?$basic_string@DU?$char_traits@D@std@@V?$allocator@D@2@@std@@@0@@Z
    ??$move@AEAV?$basic_string@DU?$char_traits@D@std@@V?$allocator@D@2@@std@@@std@@YA$$QEAV?$basic_string@DU?$char_traits@D@std@@V?$allocator@D@2@@0@AEAV10@@Z
    ??$_Alloc_proxy@V?$allocator@U_Container_proxy@std@@@std@@@_Container_base12@std@@QEAAX$$QEAV?$allocator@U_Container_proxy@std@@@1@@Z
    ??$_Convert_size@_K_K@std@@YA_K_K@Z
    ??$?0D@?$allocator@U_Container_proxy@std@@@std@@QEAA@AEBV?$allocator@D@1@@Z
    ??$move@AEAV?$allocator@D@std@@@std@@YA$$QEAV?$allocator@D@0@AEAV10@@Z
    ??$?0V?$allocator@D@std@@$$V@?$_Compressed_pair@V?$allocator@D@std@@V?$_String_val@U?$_Simple_types@D@std@@@2@$00@std@@QEAA@U_One_then_variadic_args_t@1@$$QEAV?$allocator@D@1@@Z
    ??$?0$$V@?$_Compressed_pair@V?$allocator@D@std@@V?$_String_val@U?$_Simple_types@D@std@@@2@$00@std@@QEAA@U_Zero_then_variadic_args_t@1@@Z
    ??$_Construct@$00PEBD@?$basic_string@DU?$char_traits@D@std@@V?$allocator@D@2@@std@@AEAAXQEBD_K@Z
    ??$_Emplace_back_with_unused_capacity@AEAPEAD@?$vector@Vustring@Glib@@V?$allocator@Vustring@Glib@@@std@@@std@@AEAAAEAVustring@Glib@@AEAPEAD@Z
    ??$_Emplace_reallocate@AEAPEAD@?$vector@Vustring@Glib@@V?$allocator@Vustring@Glib@@@std@@@std@@AEAAPEAVustring@Glib@@QEAV23@AEAPEAD@Z
    ??$_Emplace_back_with_unused_capacity@AEAPEAD@?$vector@V?$basic_string@DU?$char_traits@D@std@@V?$allocator@D@2@@std@@V?$allocator@V?$basic_string@DU?$char_traits@D@std@@V?$allocator@D@2@@std@@@2@@std@@AEAAAEAV?$basic_string@DU?$char_traits@D@std@@V?$allocator@D@2@@1@AEAPEAD@Z
    ??$_Emplace_reallocate@AEAPEAD@?$vector@V?$basic_string@DU?$char_traits@D@std@@V?$allocator@D@2@@std@@V?$allocator@V?$basic_string@DU?$char_traits@D@std@@V?$allocator@D@2@@std@@@2@@std@@AEAAPEAV?$basic_string@DU?$char_traits@D@std@@V?$allocator@D@2@@1@QEAV21@AEAPEAD@Z
    ??$_Find_lower_bound@Vustring@Glib@@@?$_Tree@V?$_Tmap_traits@Vustring@Glib@@VCppOptionEntry@OptionGroup@2@U?$less@Vustring@Glib@@@std@@V?$allocator@U?$pair@$$CBVustring@Glib@@VCppOptionEntry@OptionGroup@2@@std@@@6@$0A@@std@@@std@@IEBA?AU?$_Tree_find_result@PEAU?$_Tree_node@U?$pair@$$CBVustring@Glib@@VCppOptionEntry@OptionGroup@2@@std@@PEAX@std@@@1@AEBVustring@Glib@@@Z
    ??$_Lower_bound_duplicate@Vustring@Glib@@@?$_Tree@V?$_Tmap_traits@Vustring@Glib@@VCppOptionEntry@OptionGroup@2@U?$less@Vustring@Glib@@@std@@V?$allocator@U?$pair@$$CBVustring@Glib@@VCppOptionEntry@OptionGroup@2@@std@@@6@$0A@@std@@@std@@IEBA_NQEAU?$_Tree_node@U?$pair@$$CBVustring@Glib@@VCppOptionEntry@OptionGroup@2@@std@@PEAX@1@AEBVustring@Glib@@@Z
    ??$_Erase_tree@V?$allocator@U?$_Tree_node@U?$pair@$$CBVustring@Glib@@VCppOptionEntry@OptionGroup@2@@std@@PEAX@std@@@std@@@?$_Tree_val@U?$_Tree_simple_types@U?$pair@$$CBVustring@Glib@@VCppOptionEntry@OptionGroup@2@@std@@@std@@@std@@QEAAXAEAV?$allocator@U?$_Tree_node@U?$pair@$$CBVustring@Glib@@VCppOptionEntry@OptionGroup@2@@std@@PEAX@std@@@1@PEAU?$_Tree_node@U?$pair@$$CBVustring@Glib@@VCppOptionEntry@OptionGroup@2@@std@@PEAX@1@@Z
    ??$_Freenode0@V?$allocator@U?$_Tree_node@U?$pair@$$CBVustring@Glib@@VCppOptionEntry@OptionGroup@2@@std@@PEAX@std@@@std@@@?$_Tree_node@U?$pair@$$CBVustring@Glib@@VCppOptionEntry@OptionGroup@2@@std@@PEAX@std@@SAXAEAV?$allocator@U?$_Tree_node@U?$pair@$$CBVustring@Glib@@VCppOptionEntry@OptionGroup@2@@std@@PEAX@std@@@1@PEAU01@@Z
    ??$_Deallocate_plain@V?$allocator@U_Container_proxy@std@@@std@@@std@@YAXAEAV?$allocator@U_Container_proxy@std@@@0@QEAU_Container_proxy@0@@Z
    ??$?0AEBQEAU?$_Tree_node@U?$pair@$$CBVustring@Glib@@VCppOptionEntry@OptionGroup@2@@std@@PEAX@std@@_N$0A@@?$pair@PEAU?$_Tree_node@U?$pair@$$CBVustring@Glib@@VCppOptionEntry@OptionGroup@2@@std@@PEAX@std@@_N@std@@QEAA@AEBQEAU?$_Tree_node@U?$pair@$$CBVustring@Glib@@VCppOptionEntry@OptionGroup@2@@std@@PEAX@1@$$QEA_N@Z
    ??$forward@AEBVustring@Glib@@@std@@YAAEBVustring@Glib@@AEBV12@@Z
    ??$forward_as_tuple@AEBVustring@Glib@@@std@@YA?AV?$tuple@AEBVustring@Glib@@@0@AEBVustring@Glib@@@Z
    ??0?$tuple@AEBVustring@Glib@@@std@@QEAA@$$QEAV01@@Z
    ??$forward_as_tuple@$$V@std@@YA?AV?$tuple@$$V@0@XZ
    ??0?$_Alloc_construct_ptr@V?$allocator@U?$_Tree_node@U?$pair@$$CBVustring@Glib@@VCppOptionEntry@OptionGroup@2@@std@@PEAX@std@@@std@@@std@@QEAA@AEAV?$allocator@U?$_Tree_node@U?$pair@$$CBVustring@Glib@@VCppOptionEntry@OptionGroup@2@@std@@PEAX@std@@@1@@Z
    ?_Release@?$_Alloc_construct_ptr@V?$allocator@U?$_Tree_node@U?$pair@$$CBVustring@Glib@@VCppOptionEntry@OptionGroup@2@@std@@PEAX@std@@@std@@@std@@QEAAPEAU?$_Tree_node@U?$pair@$$CBVustring@Glib@@VCppOptionEntry@OptionGroup@2@@std@@PEAX@2@XZ
    ?_Allocate@?$_Alloc_construct_ptr@V?$allocator@U?$_Tree_node@U?$pair@$$CBVustring@Glib@@VCppOptionEntry@OptionGroup@2@@std@@PEAX@std@@@std@@@std@@QEAAXXZ
    ??1?$_Alloc_construct_ptr@V?$allocator@U?$_Tree_node@U?$pair@$$CBVustring@Glib@@VCppOptionEntry@OptionGroup@2@@std@@PEAX@std@@@std@@@std@@QEAA@XZ
    ??0?$_Tree_temp_node_alloc@V?$allocator@U?$_Tree_node@U?$pair@$$CBVustring@Glib@@VCppOptionEntry@OptionGroup@2@@std@@PEAX@std@@@std@@@std@@QEAA@AEAV?$allocator@U?$_Tree_node@U?$pair@$$CBVustring@Glib@@VCppOptionEntry@OptionGroup@2@@std@@PEAX@std@@@1@@Z
    ??1?$_Tree_temp_node_alloc@V?$allocator@U?$_Tree_node@U?$pair@$$CBVustring@Glib@@VCppOptionEntry@OptionGroup@2@@std@@PEAX@std@@@std@@@std@@QEAA@XZ
    ??1?$_Tree_temp_node@V?$allocator@U?$_Tree_node@U?$pair@$$CBVustring@Glib@@VCppOptionEntry@OptionGroup@2@@std@@PEAX@std@@@std@@@std@@QEAA@XZ
    ??$?0AEBUpiecewise_construct_t@std@@V?$tuple@AEBVustring@Glib@@@1@V?$tuple@$$V@1@@?$_Tree_temp_node@V?$allocator@U?$_Tree_node@U?$pair@$$CBVustring@Glib@@VCppOptionEntry@OptionGroup@2@@std@@PEAX@std@@@std@@@std@@QEAA@AEAV?$allocator@U?$_Tree_node@U?$pair@$$CBVustring@Glib@@VCppOptionEntry@OptionGroup@2@@std@@PEAX@std@@@1@PEAU?$_Tree_node@U?$pair@$$CBVustring@Glib@@VCppOptionEntry@OptionGroup@2@@std@@PEAX@1@AEBUpiecewise_construct_t@1@$$QEAV?$tuple@AEBVustring@Glib@@@1@$$QEAV?$tuple@$$V@1@@Z
    ??$?0PEAU?$_Tree_node@U?$pair@$$CBVustring@Glib@@VCppOptionEntry@OptionGroup@2@@std@@PEAX@std@@_N$0A@@?$pair@PEAU?$_Tree_node@U?$pair@$$CBVustring@Glib@@VCppOptionEntry@OptionGroup@2@@std@@PEAX@std@@_N@std@@QEAA@$$QEAPEAU?$_Tree_node@U?$pair@$$CBVustring@Glib@@VCppOptionEntry@OptionGroup@2@@std@@PEAX@1@$$QEA_N@Z
    ??$_Unfancy@Vustring@Glib@@@std@@YAPEAVustring@Glib@@PEAV12@@Z
    ??$destroy@Vustring@Glib@@@?$_Default_allocator_traits@V?$allocator@Vustring@Glib@@@std@@@std@@SAXAEAV?$allocator@Vustring@Glib@@@1@QEAVustring@Glib@@@Z
    ??$_Unfancy@V?$basic_string@DU?$char_traits@D@std@@V?$allocator@D@2@@std@@@std@@YAPEAV?$basic_string@DU?$char_traits@D@std@@V?$allocator@D@2@@0@PEAV10@@Z
    ??$destroy@V?$basic_string@DU?$char_traits@D@std@@V?$allocator@D@2@@std@@@?$_Default_allocator_traits@V?$allocator@V?$basic_string@DU?$char_traits@D@std@@V?$allocator@D@2@@std@@@std@@@std@@SAXAEAV?$allocator@V?$basic_string@DU?$char_traits@D@std@@V?$allocator@D@2@@std@@@1@QEAV?$basic_string@DU?$char_traits@D@std@@V?$allocator@D@2@@1@@Z
    ??0?$_Container_proxy_ptr12@V?$allocator@U_Container_proxy@std@@@std@@@std@@QEAA@AEAV?$allocator@U_Container_proxy@std@@@1@AEAU_Container_base12@1@@Z
    ??1?$_Container_proxy_ptr12@V?$allocator@U_Container_proxy@std@@@std@@@std@@QEAA@XZ
    ??$_Unfancy@U_Container_proxy@std@@@std@@YAPEAU_Container_proxy@0@PEAU10@@Z
    ??$_Construct_in_place@U_Container_proxy@std@@PEAU_Container_base12@2@@std@@YAXAEAU_Container_proxy@0@$$QEAPEAU_Container_base12@0@@Z
    ??$forward@V?$allocator@D@std@@@std@@YA$$QEAV?$allocator@D@0@AEAV10@@Z
    ??$_Allocate_for_capacity@$0A@@?$basic_string@DU?$char_traits@D@std@@V?$allocator@D@2@@std@@CAPEADAEAV?$allocator@D@1@AEA_K@Z
    ??$_Construct_in_place@PEADAEBQEAD@std@@YAXAEAPEADAEBQEAD@Z
    ??$_Unfancy@D@std@@YAPEADPEAD@Z
    ??$addressof@$$CBU?$pair@$$CBVustring@Glib@@VCppOptionEntry@OptionGroup@2@@std@@@std@@YAPEBU?$pair@$$CBVustring@Glib@@VCppOptionEntry@OptionGroup@2@@0@AEBU10@@Z
    ??$addressof@U?$pair@$$CBVustring@Glib@@VCppOptionEntry@OptionGroup@2@@std@@@std@@YAPEAU?$pair@$$CBVustring@Glib@@VCppOptionEntry@OptionGroup@2@@0@AEAU10@@Z
    ??$addressof@$$CBV?$_Tree_val@U?$_Tree_simple_types@U?$pair@$$CBVustring@Glib@@VCppOptionEntry@OptionGroup@2@@std@@@std@@@std@@@std@@YAPEBV?$_Tree_val@U?$_Tree_simple_types@U?$pair@$$CBVustring@Glib@@VCppOptionEntry@OptionGroup@2@@std@@@std@@@0@AEBV10@@Z
    ??$addressof@V?$_Tree_val@U?$_Tree_simple_types@U?$pair@$$CBVustring@Glib@@VCppOptionEntry@OptionGroup@2@@std@@@std@@@std@@@std@@YAPEAV?$_Tree_val@U?$_Tree_simple_types@U?$pair@$$CBVustring@Glib@@VCppOptionEntry@OptionGroup@2@@std@@@std@@@0@AEAV10@@Z
    ??$addressof@V?$_Tree@V?$_Tmap_traits@Vustring@Glib@@VCppOptionEntry@OptionGroup@2@U?$less@Vustring@Glib@@@std@@V?$allocator@U?$pair@$$CBVustring@Glib@@VCppOptionEntry@OptionGroup@2@@std@@@6@$0A@@std@@@std@@@std@@YAPEAV?$_Tree@V?$_Tmap_traits@Vustring@Glib@@VCppOptionEntry@OptionGroup@2@U?$less@Vustring@Glib@@@std@@V?$allocator@U?$pair@$$CBVustring@Glib@@VCppOptionEntry@OptionGroup@2@@std@@@6@$0A@@std@@@0@AEAV10@@Z
    ??$_Pocma@V?$allocator@U?$_Tree_node@U?$pair@$$CBVustring@Glib@@VCppOptionEntry@OptionGroup@2@@std@@PEAX@std@@@std@@@std@@YAXAEAV?$allocator@U?$_Tree_node@U?$pair@$$CBVustring@Glib@@VCppOptionEntry@OptionGroup@2@@std@@PEAX@std@@@0@0@Z
    ??$move@AEAV?$allocator@U?$_Tree_node@U?$pair@$$CBVustring@Glib@@VCppOptionEntry@OptionGroup@2@@std@@PEAX@std@@@std@@@std@@YA$$QEAV?$allocator@U?$_Tree_node@U?$pair@$$CBVustring@Glib@@VCppOptionEntry@OptionGroup@2@@std@@PEAX@std@@@0@AEAV10@@Z
    ??$?0U?$less@Vustring@Glib@@@std@@U_One_then_variadic_args_t@1@V?$allocator@U?$_Tree_node@U?$pair@$$CBVustring@Glib@@VCppOptionEntry@OptionGroup@2@@std@@PEAX@std@@@1@@?$_Compressed_pair@U?$less@Vustring@Glib@@@std@@V?$_Compressed_pair@V?$allocator@U?$_Tree_node@U?$pair@$$CBVustring@Glib@@VCppOptionEntry@OptionGroup@2@@std@@PEAX@std@@@std@@V?$_Tree_val@U?$_Tree_simple_types@U?$pair@$$CBVustring@Glib@@VCppOptionEntry@OptionGroup@2@@std@@@std@@@2@$00@2@$00@std@@QEAA@U_One_then_variadic_args_t@1@$$QEAU?$less@Vustring@Glib@@@1@$$QEAU21@$$QEAV?$allocator@U?$_Tree_node@U?$pair@$$CBVustring@Glib@@VCppOptionEntry@OptionGroup@2@@std@@PEAX@std@@@1@@Z
    ??$?0V?$allocator@U?$_Tree_node@U?$pair@$$CBVustring@Glib@@VCppOptionEntry@OptionGroup@2@@std@@PEAX@std@@@std@@$$V@?$_Compressed_pair@V?$allocator@U?$_Tree_node@U?$pair@$$CBVustring@Glib@@VCppOptionEntry@OptionGroup@2@@std@@PEAX@std@@@std@@V?$_Tree_val@U?$_Tree_simple_types@U?$pair@$$CBVustring@Glib@@VCppOptionEntry@OptionGroup@2@@std@@@std@@@2@$00@std@@QEAA@U_One_then_variadic_args_t@1@$$QEAV?$allocator@U?$_Tree_node@U?$pair@$$CBVustring@Glib@@VCppOptionEntry@OptionGroup@2@@std@@PEAX@std@@@1@@Z
    ??$?0AEBU?$less@Vustring@Glib@@@std@@U_Zero_then_variadic_args_t@1@@?$_Compressed_pair@U?$less@Vustring@Glib@@@std@@V?$_Compressed_pair@V?$allocator@U?$_Tree_node@U?$pair@$$CBVustring@Glib@@VCppOptionEntry@OptionGroup@2@@std@@PEAX@std@@@std@@V?$_Tree_val@U?$_Tree_simple_types@U?$pair@$$CBVustring@Glib@@VCppOptionEntry@OptionGroup@2@@std@@@std@@@2@$00@2@$00@std@@QEAA@U_One_then_variadic_args_t@1@AEBU?$less@Vustring@Glib@@@1@$$QEAU_Zero_then_variadic_args_t@1@@Z
    ??$?0$$V@?$_Compressed_pair@V?$allocator@U?$_Tree_node@U?$pair@$$CBVustring@Glib@@VCppOptionEntry@OptionGroup@2@@std@@PEAX@std@@@std@@V?$_Tree_val@U?$_Tree_simple_types@U?$pair@$$CBVustring@Glib@@VCppOptionEntry@OptionGroup@2@@std@@@std@@@2@$00@std@@QEAA@U_Zero_then_variadic_args_t@1@@Z
    ??$addressof@V?$_String_val@U?$_Simple_types@D@std@@@std@@@std@@YAPEAV?$_String_val@U?$_Simple_types@D@std@@@0@AEAV10@@Z
    ??$_Construct_in_place@PEADAEAPEAD@std@@YAXAEAPEAD0@Z
    ??$max@_K@std@@YAAEB_KAEB_K0@Z
    ??$_Deallocate@$0BA@@std@@YAXPEAX_K@Z
    ??$construct@Vustring@Glib@@AEAPEAD@?$_Default_allocator_traits@V?$allocator@Vustring@Glib@@@std@@@std@@SAXAEAV?$allocator@Vustring@Glib@@@1@QEAVustring@Glib@@AEAPEAD@Z
    ??$_Allocate_at_least_helper@V?$allocator@Vustring@Glib@@@std@@@std@@YAPEAVustring@Glib@@AEAV?$allocator@Vustring@Glib@@@0@AEA_K@Z
    ??1_Reallocation_guard@?$vector@Vustring@Glib@@V?$allocator@Vustring@Glib@@@std@@@std@@QEAA@XZ
    ??$_Uninitialized_copy@PEAVustring@Glib@@PEAV12@V?$allocator@Vustring@Glib@@@std@@@std@@YAPEAVustring@Glib@@PEAV12@00AEAV?$allocator@Vustring@Glib@@@0@@Z
    ??$_Uninitialized_move@PEAVustring@Glib@@V?$allocator@Vustring@Glib@@@std@@@std@@YAPEAVustring@Glib@@QEAV12@0PEAV12@AEAV?$allocator@Vustring@Glib@@@0@@Z
    ??$construct@V?$basic_string@DU?$char_traits@D@std@@V?$allocator@D@2@@std@@AEAPEAD@?$_Default_allocator_traits@V?$allocator@V?$basic_string@DU?$char_traits@D@std@@V?$allocator@D@2@@std@@@std@@@std@@SAXAEAV?$allocator@V?$basic_string@DU?$char_traits@D@std@@V?$allocator@D@2@@std@@@1@QEAV?$basic_string@DU?$char_traits@D@std@@V?$allocator@D@2@@1@AEAPEAD@Z
    ??$_Allocate_at_least_helper@V?$allocator@V?$basic_string@DU?$char_traits@D@std@@V?$allocator@D@2@@std@@@std@@@std@@YAPEAV?$basic_string@DU?$char_traits@D@std@@V?$allocator@D@2@@0@AEAV?$allocator@V?$basic_string@DU?$char_traits@D@std@@V?$allocator@D@2@@std@@@0@AEA_K@Z
    ??1_Reallocation_guard@?$vector@V?$basic_string@DU?$char_traits@D@std@@V?$allocator@D@2@@std@@V?$allocator@V?$basic_string@DU?$char_traits@D@std@@V?$allocator@D@2@@std@@@2@@std@@QEAA@XZ
    ??$_Uninitialized_move@PEAV?$basic_string@DU?$char_traits@D@std@@V?$allocator@D@2@@std@@V?$allocator@V?$basic_string@DU?$char_traits@D@std@@V?$allocator@D@2@@std@@@2@@std@@YAPEAV?$basic_string@DU?$char_traits@D@std@@V?$allocator@D@2@@0@QEAV10@0PEAV10@AEAV?$allocator@V?$basic_string@DU?$char_traits@D@std@@V?$allocator@D@2@@std@@@0@@Z
    ??$_Kfn@$$CBVustring@Glib@@VCppOptionEntry@OptionGroup@2@@?$_Tmap_traits@Vustring@Glib@@VCppOptionEntry@OptionGroup@2@U?$less@Vustring@Glib@@@std@@V?$allocator@U?$pair@$$CBVustring@Glib@@VCppOptionEntry@OptionGroup@2@@std@@@6@$0A@@std@@SAAEBVustring@Glib@@AEBU?$pair@$$CBVustring@Glib@@VCppOptionEntry@OptionGroup@2@@1@@Z
    ??$_Debug_lt_pred@AEBU?$less@Vustring@Glib@@@std@@AEBVustring@Glib@@AEBV34@@std@@YA_NAEBU?$less@Vustring@Glib@@@0@AEBVustring@Glib@@1@Z
    ??$exchange@PEAU?$_Tree_node@U?$pair@$$CBVustring@Glib@@VCppOptionEntry@OptionGroup@2@@std@@PEAX@std@@AEAPEAU12@@std@@YAPEAU?$_Tree_node@U?$pair@$$CBVustring@Glib@@VCppOptionEntry@OptionGroup@2@@std@@PEAX@0@AEAPEAU10@0@Z
    ??$_Freenode@V?$allocator@U?$_Tree_node@U?$pair@$$CBVustring@Glib@@VCppOptionEntry@OptionGroup@2@@std@@PEAX@std@@@std@@@?$_Tree_node@U?$pair@$$CBVustring@Glib@@VCppOptionEntry@OptionGroup@2@@std@@PEAX@std@@SAXAEAV?$allocator@U?$_Tree_node@U?$pair@$$CBVustring@Glib@@VCppOptionEntry@OptionGroup@2@@std@@PEAX@std@@@1@PEAU01@@Z
    ??$_Destroy_in_place@PEAU?$_Tree_node@U?$pair@$$CBVustring@Glib@@VCppOptionEntry@OptionGroup@2@@std@@PEAX@std@@@std@@YAXAEAPEAU?$_Tree_node@U?$pair@$$CBVustring@Glib@@VCppOptionEntry@OptionGroup@2@@std@@PEAX@0@@Z
    ?deallocate@?$_Default_allocator_traits@V?$allocator@U_Container_proxy@std@@@std@@@std@@SAXAEAV?$allocator@U_Container_proxy@std@@@2@QEAU_Container_proxy@2@_K@Z
    ??$forward@AEBQEAU?$_Tree_node@U?$pair@$$CBVustring@Glib@@VCppOptionEntry@OptionGroup@2@@std@@PEAX@std@@@std@@YAAEBQEAU?$_Tree_node@U?$pair@$$CBVustring@Glib@@VCppOptionEntry@OptionGroup@2@@std@@PEAX@0@AEBQEAU10@@Z
    ??$forward@_N@std@@YA$$QEA_NAEA_N@Z
    ??$?0AEBVustring@Glib@@$0A@@?$tuple@AEBVustring@Glib@@@std@@QEAA@AEBVustring@Glib@@@Z
    ??$forward@AEBUpiecewise_construct_t@std@@@std@@YAAEBUpiecewise_construct_t@0@AEBU10@@Z
    ??$forward@V?$tuple@AEBVustring@Glib@@@std@@@std@@YA$$QEAV?$tuple@AEBVustring@Glib@@@0@AEAV10@@Z
    ??$forward@V?$tuple@$$V@std@@@std@@YA$$QEAV?$tuple@$$V@0@AEAV10@@Z
    ??$construct@U?$pair@$$CBVustring@Glib@@VCppOptionEntry@OptionGroup@2@@std@@AEBUpiecewise_construct_t@2@V?$tuple@AEBVustring@Glib@@@2@V?$tuple@$$V@2@@?$_Default_allocator_traits@V?$allocator@U?$_Tree_node@U?$pair@$$CBVustring@Glib@@VCppOptionEntry@OptionGroup@2@@std@@PEAX@std@@@std@@@std@@SAXAEAV?$allocator@U?$_Tree_node@U?$pair@$$CBVustring@Glib@@VCppOptionEntry@OptionGroup@2@@std@@PEAX@std@@@1@QEAU?$pair@$$CBVustring@Glib@@VCppOptionEntry@OptionGroup@2@@1@AEBUpiecewise_construct_t@1@$$QEAV?$tuple@AEBVustring@Glib@@@1@$$QEAV?$tuple@$$V@1@@Z
    ??$_Construct_in_place@PEAU?$_Tree_node@U?$pair@$$CBVustring@Glib@@VCppOptionEntry@OptionGroup@2@@std@@PEAX@std@@AEAPEAU12@@std@@YAXAEAPEAU?$_Tree_node@U?$pair@$$CBVustring@Glib@@VCppOptionEntry@OptionGroup@2@@std@@PEAX@0@0@Z
    ??$forward@PEAU?$_Tree_node@U?$pair@$$CBVustring@Glib@@VCppOptionEntry@OptionGroup@2@@std@@PEAX@std@@@std@@YA$$QEAPEAU?$_Tree_node@U?$pair@$$CBVustring@Glib@@VCppOptionEntry@OptionGroup@2@@std@@PEAX@0@AEAPEAU10@@Z
    ??$addressof@U_Container_proxy@std@@@std@@YAPEAU_Container_proxy@0@AEAU10@@Z
    ??$forward@PEAU_Container_base12@std@@@std@@YA$$QEAPEAU_Container_base12@0@AEAPEAU10@@Z
    ??$_Allocate_at_least_helper@V?$allocator@D@std@@@std@@YAPEADAEAV?$allocator@D@0@AEA_K@Z
    ??$addressof@PEAD@std@@YAPEAPEADAEAPEAD@Z
    ??$forward@AEBQEAD@std@@YAAEBQEADAEBQEAD@Z
    ??$forward@U?$less@Vustring@Glib@@@std@@@std@@YA$$QEAU?$less@Vustring@Glib@@@0@AEAU10@@Z
    ??$forward@U_One_then_variadic_args_t@std@@@std@@YA$$QEAU_One_then_variadic_args_t@0@AEAU10@@Z
    ??$forward@V?$allocator@U?$_Tree_node@U?$pair@$$CBVustring@Glib@@VCppOptionEntry@OptionGroup@2@@std@@PEAX@std@@@std@@@std@@YA$$QEAV?$allocator@U?$_Tree_node@U?$pair@$$CBVustring@Glib@@VCppOptionEntry@OptionGroup@2@@std@@PEAX@std@@@0@AEAV10@@Z
    ??$forward@AEBU?$less@Vustring@Glib@@@std@@@std@@YAAEBU?$less@Vustring@Glib@@@0@AEBU10@@Z
    ??$forward@U_Zero_then_variadic_args_t@std@@@std@@YA$$QEAU_Zero_then_variadic_args_t@0@AEAU10@@Z
    ??$addressof@U_Container_base12@std@@@std@@YAPEAU_Container_base12@0@AEAU10@@Z
    ??$exchange@PEAU?$_Tree_node@U?$pair@$$CBVustring@Glib@@VCppOptionEntry@OptionGroup@2@@std@@PEAX@std@@$$T@std@@YAPEAU?$_Tree_node@U?$pair@$$CBVustring@Glib@@VCppOptionEntry@OptionGroup@2@@std@@PEAX@0@AEAPEAU10@$$QEA$$T@Z
    ??$destroy@U?$pair@$$CBVustring@Glib@@VCppOptionEntry@OptionGroup@2@@std@@@?$_Default_allocator_traits@V?$allocator@U?$_Tree_node@U?$pair@$$CBVustring@Glib@@VCppOptionEntry@OptionGroup@2@@std@@PEAX@std@@@std@@@std@@SAXAEAV?$allocator@U?$_Tree_node@U?$pair@$$CBVustring@Glib@@VCppOptionEntry@OptionGroup@2@@std@@PEAX@std@@@1@QEAU?$pair@$$CBVustring@Glib@@VCppOptionEntry@OptionGroup@2@@1@@Z
    ??$_Get_size_of_n@$0BA@@std@@YA_K_K@Z
    ??$_Allocate@$0BA@U_Default_allocate_traits@std@@@std@@YAPEAX_K@Z
    ??$_Buyheadnode@V?$allocator@U?$_Tree_node@U?$pair@$$CBVustring@Glib@@VCppOptionEntry@OptionGroup@2@@std@@PEAX@std@@@std@@@?$_Tree_node@U?$pair@$$CBVustring@Glib@@VCppOptionEntry@OptionGroup@2@@std@@PEAX@std@@SAPEAU01@AEAV?$allocator@U?$_Tree_node@U?$pair@$$CBVustring@Glib@@VCppOptionEntry@OptionGroup@2@@std@@PEAX@std@@@1@@Z
    ??$swap@PEAU?$_Tree_node@U?$pair@$$CBVustring@Glib@@VCppOptionEntry@OptionGroup@2@@std@@PEAX@std@@$0A@@std@@YAXAEAPEAU?$_Tree_node@U?$pair@$$CBVustring@Glib@@VCppOptionEntry@OptionGroup@2@@std@@PEAX@0@0@Z
    ??$swap@_K$0A@@std@@YAXAEA_K0@Z
    ??$_Destroy_in_place@PEAD@std@@YAXAEAPEAD@Z
    ??$_Max_limit@_J@std@@YA_JXZ
    ??R<lambda_66f57f934f28d61049862f64df852ff0>@@QEBA@QEAD_KQEBD@Z
    ??$_Reallocate_for@V<lambda_66f57f934f28d61049862f64df852ff0>@@PEBD@?$basic_string@DU?$char_traits@D@std@@V?$allocator@D@2@@std@@AEAAAEAV01@_KV<lambda_66f57f934f28d61049862f64df852ff0>@@PEBD@Z
    ??$move@AEAPEAVustring@Glib@@@std@@YA$$QEAPEAVustring@Glib@@AEAPEAV12@@Z
    ??$_Get_unwrapped@PEAVustring@Glib@@@std@@YA?A_T$$QEAPEAVustring@Glib@@@Z
    ??0?$_Uninitialized_backout_al@V?$allocator@Vustring@Glib@@@std@@@std@@QEAA@PEAVustring@Glib@@AEAV?$allocator@Vustring@Glib@@@1@@Z
    ??1?$_Uninitialized_backout_al@V?$allocator@Vustring@Glib@@@std@@@std@@QEAA@XZ
    ?_Release@?$_Uninitialized_backout_al@V?$allocator@Vustring@Glib@@@std@@@std@@QEAAPEAVustring@Glib@@XZ
    ??$_Emplace_back@AEAVustring@Glib@@@?$_Uninitialized_backout_al@V?$allocator@Vustring@Glib@@@std@@@std@@QEAAXAEAVustring@Glib@@@Z
    ??$_Get_unwrapped@AEBQEAVustring@Glib@@@std@@YA?A_TAEBQEAVustring@Glib@@@Z
    ??$move@AEAVustring@Glib@@@std@@YA$$QEAVustring@Glib@@AEAV12@@Z
    ??$_Emplace_back@Vustring@Glib@@@?$_Uninitialized_backout_al@V?$allocator@Vustring@Glib@@@std@@@std@@QEAAX$$QEAVustring@Glib@@@Z
    ??$_Get_unwrapped@AEBQEAV?$basic_string@DU?$char_traits@D@std@@V?$allocator@D@2@@std@@@std@@YA?A_TAEBQEAV?$basic_string@DU?$char_traits@D@std@@V?$allocator@D@2@@0@@Z
    ??0?$_Uninitialized_backout_al@V?$allocator@V?$basic_string@DU?$char_traits@D@std@@V?$allocator@D@2@@std@@@std@@@std@@QEAA@PEAV?$basic_string@DU?$char_traits@D@std@@V?$allocator@D@2@@1@AEAV?$allocator@V?$basic_string@DU?$char_traits@D@std@@V?$allocator@D@2@@std@@@1@@Z
    ??1?$_Uninitialized_backout_al@V?$allocator@V?$basic_string@DU?$char_traits@D@std@@V?$allocator@D@2@@std@@@std@@@std@@QEAA@XZ
    ?_Release@?$_Uninitialized_backout_al@V?$allocator@V?$basic_string@DU?$char_traits@D@std@@V?$allocator@D@2@@std@@@std@@@std@@QEAAPEAV?$basic_string@DU?$char_traits@D@std@@V?$allocator@D@2@@2@XZ
    ??$_Emplace_back@V?$basic_string@DU?$char_traits@D@std@@V?$allocator@D@2@@std@@@?$_Uninitialized_backout_al@V?$allocator@V?$basic_string@DU?$char_traits@D@std@@V?$allocator@D@2@@std@@@std@@@std@@QEAAX$$QEAV?$basic_string@DU?$char_traits@D@std@@V?$allocator@D@2@@1@@Z
    ??$?0U_Exact_args_t@std@@AEBVustring@Glib@@$$V$0A@@?$tuple@AEBVustring@Glib@@@std@@QEAA@U_Exact_args_t@1@AEBVustring@Glib@@@Z
    ??$?0AEBVustring@Glib@@$$Z$$V@?$pair@$$CBVustring@Glib@@VCppOptionEntry@OptionGroup@2@@std@@QEAA@Upiecewise_construct_t@1@V?$tuple@AEBVustring@Glib@@@1@V?$tuple@$$V@1@@Z
    ??$addressof@PEAU?$_Tree_node@U?$pair@$$CBVustring@Glib@@VCppOptionEntry@OptionGroup@2@@std@@PEAX@std@@@std@@YAPEAPEAU?$_Tree_node@U?$pair@$$CBVustring@Glib@@VCppOptionEntry@OptionGroup@2@@std@@PEAX@0@AEAPEAU10@@Z
    ??$forward@AEAPEAU?$_Tree_node@U?$pair@$$CBVustring@Glib@@VCppOptionEntry@OptionGroup@2@@std@@PEAX@std@@@std@@YAAEAPEAU?$_Tree_node@U?$pair@$$CBVustring@Glib@@VCppOptionEntry@OptionGroup@2@@std@@PEAX@0@AEAPEAU10@@Z
    ??$_Allocate_manually_vector_aligned@U_Default_allocate_traits@std@@@std@@YAPEAX_K@Z
    ??$_Construct_in_place@PEAU?$_Tree_node@U?$pair@$$CBVustring@Glib@@VCppOptionEntry@OptionGroup@2@@std@@PEAX@std@@AEBQEAU12@@std@@YAXAEAPEAU?$_Tree_node@U?$pair@$$CBVustring@Glib@@VCppOptionEntry@OptionGroup@2@@std@@PEAX@0@AEBQEAU10@@Z
    ??$move@AEAPEAU?$_Tree_node@U?$pair@$$CBVustring@Glib@@VCppOptionEntry@OptionGroup@2@@std@@PEAX@std@@@std@@YA$$QEAPEAU?$_Tree_node@U?$pair@$$CBVustring@Glib@@VCppOptionEntry@OptionGroup@2@@std@@PEAX@0@AEAPEAU10@@Z
    ??$move@AEA_K@std@@YA$$QEA_KAEA_K@Z
    ??$forward@AEAVustring@Glib@@@std@@YAAEAVustring@Glib@@AEAV12@@Z
    ??$construct@Vustring@Glib@@AEAV12@@?$_Default_allocator_traits@V?$allocator@Vustring@Glib@@@std@@@std@@SAXAEAV?$allocator@Vustring@Glib@@@1@QEAVustring@Glib@@AEAV34@@Z
    ??$forward@Vustring@Glib@@@std@@YA$$QEAVustring@Glib@@AEAV12@@Z
    ??$construct@Vustring@Glib@@V12@@?$_Default_allocator_traits@V?$allocator@Vustring@Glib@@@std@@@std@@SAXAEAV?$allocator@Vustring@Glib@@@1@QEAVustring@Glib@@$$QEAV34@@Z
    ??$forward@V?$basic_string@DU?$char_traits@D@std@@V?$allocator@D@2@@std@@@std@@YA$$QEAV?$basic_string@DU?$char_traits@D@std@@V?$allocator@D@2@@0@AEAV10@@Z
    ??$construct@V?$basic_string@DU?$char_traits@D@std@@V?$allocator@D@2@@std@@V12@@?$_Default_allocator_traits@V?$allocator@V?$basic_string@DU?$char_traits@D@std@@V?$allocator@D@2@@std@@@std@@@std@@SAXAEAV?$allocator@V?$basic_string@DU?$char_traits@D@std@@V?$allocator@D@2@@std@@@1@QEAV?$basic_string@DU?$char_traits@D@std@@V?$allocator@D@2@@1@$$QEAV31@@Z
    ??$?0U_Exact_args_t@std@@$0A@@?$tuple@$$V@std@@QEAA@U_Exact_args_t@1@@Z
    ??$?0AEBVustring@Glib@@@?$_Tuple_val@AEBVustring@Glib@@@std@@QEAA@AEBVustring@Glib@@@Z
    ??$?0V?$tuple@AEBVustring@Glib@@@std@@V?$tuple@$$V@1@$0A@$$Z$S@?$pair@$$CBVustring@Glib@@VCppOptionEntry@OptionGroup@2@@std@@AEAA@AEAV?$tuple@AEBVustring@Glib@@@1@AEAV?$tuple@$$V@1@U?$integer_sequence@_K$0A@@1@U?$integer_sequence@_K$S@1@@Z
    ??$_Get_size_of_n@$0GI@@std@@YA_K_K@Z
    ??$_Get_size_of_n@$0CI@@std@@YA_K_K@Z
    ??$_Get_size_of_n@$00@std@@YA_K_K@Z
    ??$move@AEAV?$tuple@AEBVustring@Glib@@@std@@@std@@YA$$QEAV?$tuple@AEBVustring@Glib@@@0@AEAV10@@Z
    ??$_Tuple_get@$0A@AEBVustring@Glib@@@std@@YA$$QEA_P$$QEAV?$tuple@AEBVustring@Glib@@@0@@Z
    ??_7exception@std@@6B@
    ??_C@_0BC@EOODALEL@Unknown?5exception@
    ??_7bad_alloc@std@@6B@
    ??_7bad_array_new_length@std@@6B@
    ??_C@_0BF@KINCDENJ@bad?5array?5new?5length@
    ??_R0?AVexception@std@@@8
    _CT??_R0?AVexception@std@@@8??0exception@std@@QEAA@AEBV01@@Z24
    _TI3?AVbad_array_new_length@std@@
    _CTA3?AVbad_array_new_length@std@@
    ??_R0?AVbad_array_new_length@std@@@8
    _CT??_R0?AVbad_array_new_length@std@@@8??0bad_array_new_length@std@@QEAA@AEBV01@@Z24
    ??_R0?AVbad_alloc@std@@@8
    _CT??_R0?AVbad_alloc@std@@@8??0bad_alloc@std@@QEAA@AEBV01@@Z24
    ??_C@_0BB@FCMFBGOM@invalid?5argument@
    ??_C@_02DKCKIIND@?$CFs@
    ??_C@_0GC@KLECFGLI@C?3?2Program?5Files?2Microsoft?5Visu@
    ??_C@_0BJ@LFDBABJJ@ITERATOR?5LIST?5CORRUPTED?$CB@
    ??_C@_0BA@JFNIOLAK@string?5too?5long@
    ??_C@_0BB@GCADKGJO@map?1set?5too?5long@
    ??_7OptionGroup@Glib@@6B@
    ??_R0?AVError@Glib@@@8
    ??_C@_0GD@GOKHNLI@C?3?2Program?5Files?2Microsoft?5Visu@
    ??_C@_0BP@OLDKBHLM@map?1set?5iterators?5incompatible@
    ??_C@_0GA@IINHIBAD@C?3?2Program?5Files?2Microsoft?5Visu@
    ??_C@_0DE@DMNPKCGM@cannot?5increment?5value?9initiali@
    ??_C@_0CG@NLEHEOHN@cannot?5increment?5end?5map?1set?5it@
    ??_C@_0DG@LCFNIIPB@cannot?5dereference?5value?9initia@
    ??_C@_0CI@OKFEHCEB@cannot?5dereference?5end?5map?1set?5@
    ??_C@_0DG@KGHKKGBC@null?5pointer?5cannot?5point?5to?5a?5@
    ??_C@_0BD@FEEMDEPI@invalid?5comparator@
    ??_C@_0BA@FOIKENOD@vector?5too?5long@
    ??_R4exception@std@@6B@
    ??_R3exception@std@@8
    ??_R2exception@std@@8
    ??_R1A@?0A@EA@exception@std@@8
    ??_R4bad_array_new_length@std@@6B@
    ??_R3bad_array_new_length@std@@8
    ??_R2bad_array_new_length@std@@8
    ??_R1A@?0A@EA@bad_array_new_length@std@@8
    ??_R1A@?0A@EA@bad_alloc@std@@8
    ??_R3bad_alloc@std@@8
    ??_R2bad_alloc@std@@8
    ??_R4bad_alloc@std@@6B@
    ??_R4OptionGroup@Glib@@6B@
    ??_R0?AVOptionGroup@Glib@@@8
    ??_R3OptionGroup@Glib@@8
    ??_R2OptionGroup@Glib@@8
    ??_R1A@?0A@EA@OptionGroup@Glib@@8
    ?__empty_global_delete@@YAXPEAX@Z
    ?__empty_global_delete@@YAXPEAX_K@Z
    ??0PatternSpec@Glib@@QEAA@AEBVustring@1@@Z
    ??0PatternSpec@Glib@@QEAA@PEAU_GPatternSpec@@@Z
    ??1PatternSpec@Glib@@QEAA@XZ
    ?match@PatternSpec@Glib@@QEBA_NAEBVustring@2@@Z
    ?match@PatternSpec@Glib@@QEBA_NAEBVustring@2@0@Z
    ??8PatternSpec@Glib@@QEBA_NAEBV01@@Z
    ??9PatternSpec@Glib@@QEBA_NAEBV01@@Z
    ?__empty_global_delete@@YAXPEAX@Z
    ?__empty_global_delete@@YAXPEAX_K@Z
    ??2@YAPEAX_KPEAX@Z
    ??0exception@std@@QEAA@QEBDH@Z
    ??0exception@std@@QEAA@AEBV01@@Z
    ??1exception@std@@UEAA@XZ
    ?what@exception@std@@UEBAPEBDXZ
    ??0bad_alloc@std@@AEAA@QEBD@Z
    ??1bad_alloc@std@@UEAA@XZ
    ??0bad_alloc@std@@QEAA@AEBV01@@Z
    ??0bad_array_new_length@std@@QEAA@XZ
    ??1bad_array_new_length@std@@UEAA@XZ
    ??0bad_array_new_length@std@@QEAA@AEBV01@@Z
    ?_Throw_bad_array_new_length@std@@YAXXZ
    ?_Allocate@_Default_allocate_traits@std@@SAPEAX_K@Z
    ?_Adjust_manually_vector_aligned@std@@YAXAEAPEAXAEA_K@Z
    ??0_Container_proxy@std@@QEAA@PEAU_Container_base12@1@@Z
    ??0_Container_base12@std@@QEAA@XZ
    ?_Orphan_all@_Container_base12@std@@QEAAXXZ
    ?_Orphan_all_unlocked_v3@_Container_base12@std@@AEAAXXZ
    ?_Orphan_all_locked_v3@_Container_base12@std@@AEAAXXZ
    ??0_Iterator_base12@std@@QEAA@XZ
    ??1_Iterator_base12@std@@QEAA@XZ
    ?_Adopt@_Iterator_base12@std@@QEAAXPEBU_Container_base12@2@@Z
    ?_Getcont@_Iterator_base12@std@@QEBAPEBU_Container_base12@2@XZ
    ?_Adopt_unlocked@_Iterator_base12@std@@AEAAXPEBU_Container_base12@2@@Z
    ?_Adopt_locked@_Iterator_base12@std@@AEAAXPEBU_Container_base12@2@@Z
    ?_Orphan_me_unlocked_v3@_Iterator_base12@std@@AEAAXXZ
    ?_Orphan_me_locked_v3@_Iterator_base12@std@@AEAAXXZ
    ??$exchange@PEAU_Iterator_base12@std@@$$T@std@@YAPEAU_Iterator_base12@0@AEAPEAU10@$$QEA$$T@Z
    ?_Release@_Basic_container_proxy_ptr12@std@@QEAAXXZ
    ??0_Basic_container_proxy_ptr12@std@@IEAA@XZ
    ?gobj@ValueBase@Glib@@QEAAPEAU_GValue@@XZ
    ?gobj@ValueBase@Glib@@QEBAPEBU_GValue@@XZ
    ??0?$tuple@$$V@std@@QEAA@AEBV01@@Z
    ?custom_get_property_callback@Glib@@YAXPEAU_GObject@@IPEAU_GValue@@PEAU_GParamSpec@@@Z
    ?custom_set_property_callback@Glib@@YAXPEAU_GObject@@IPEBU_GValue@@PEAU_GParamSpec@@@Z
    ?get_name@PropertyBase@Glib@@QEBA?AVustring@2@XZ
    ?get_nick@PropertyBase@Glib@@QEBA?AVustring@2@XZ
    ?get_blurb@PropertyBase@Glib@@QEBA?AVustring@2@XZ
    ?notify@PropertyBase@Glib@@QEAAXXZ
    ??0PropertyBase@Glib@@IEAA@AEAVObject@1@_K@Z
    ??1PropertyBase@Glib@@IEAA@XZ
    ?lookup_property@PropertyBase@Glib@@IEAA_NAEBVustring@2@@Z
    ?install_property@PropertyBase@Glib@@IEAAXPEAU_GParamSpec@@@Z
    ?get_name_internal@PropertyBase@Glib@@IEBAPEBDXZ
    ?_Throw_tree_length_error@std@@YAXXZ
    ?gobj@ObjectBase@Glib@@QEAAPEAU_GObject@@XZ
    ?convert_const_gchar_ptr_to_ustring@Glib@@YA?AVustring@1@PEBD@Z
    ??0?$allocator@PEAU_GValue@@@std@@QEAA@XZ
    ?deallocate@?$allocator@PEAU_GValue@@@std@@QEAAXQEAPEAU_GValue@@_K@Z
    ?allocate@?$allocator@PEAU_GValue@@@std@@QEAAPEAPEAU_GValue@@_K@Z
    ?max_size@?$_Default_allocator_traits@V?$allocator@PEAU_GValue@@@std@@@std@@SA_KAEBV?$allocator@PEAU_GValue@@@2@@Z
    ??0?$vector@PEAU_GValue@@V?$allocator@PEAU_GValue@@@std@@@std@@QEAA@XZ
    ??1?$vector@PEAU_GValue@@V?$allocator@PEAU_GValue@@@std@@@std@@QEAA@XZ
    ?size@?$vector@PEAU_GValue@@V?$allocator@PEAU_GValue@@@std@@@std@@QEBA_KXZ
    ?max_size@?$vector@PEAU_GValue@@V?$allocator@PEAU_GValue@@@std@@@std@@QEBA_KXZ
    ?capacity@?$vector@PEAU_GValue@@V?$allocator@PEAU_GValue@@@std@@@std@@QEBA_KXZ
    ??A?$vector@PEAU_GValue@@V?$allocator@PEAU_GValue@@@std@@@std@@QEAAAEAPEAU_GValue@@_K@Z
    ?_Calculate_growth@?$vector@PEAU_GValue@@V?$allocator@PEAU_GValue@@@std@@@std@@AEBA_K_K@Z
    ?_Change_array@?$vector@PEAU_GValue@@V?$allocator@PEAU_GValue@@@std@@@std@@AEAAXQEAPEAU_GValue@@_K1@Z
    ?_Tidy@?$vector@PEAU_GValue@@V?$allocator@PEAU_GValue@@@std@@@std@@AEAAXXZ
    ?_Xlength@?$vector@PEAU_GValue@@V?$allocator@PEAU_GValue@@@std@@@std@@CAXXZ
    ?_Orphan_range_unlocked@?$vector@PEAU_GValue@@V?$allocator@PEAU_GValue@@@std@@@std@@AEBAXPEAPEAU_GValue@@0@Z
    ?_Orphan_range_locked@?$vector@PEAU_GValue@@V?$allocator@PEAU_GValue@@@std@@@std@@AEBAXPEAPEAU_GValue@@0@Z
    ?_Orphan_range@?$vector@PEAU_GValue@@V?$allocator@PEAU_GValue@@@std@@@std@@AEBAXPEAPEAU_GValue@@0@Z
    ?_Getal@?$vector@PEAU_GValue@@V?$allocator@PEAU_GValue@@@std@@@std@@AEAAAEAV?$allocator@PEAU_GValue@@@2@XZ
    ?_Getal@?$vector@PEAU_GValue@@V?$allocator@PEAU_GValue@@@std@@@std@@AEBAAEBV?$allocator@PEAU_GValue@@@2@XZ
    ??0?$_Vector_val@U?$_Simple_types@PEAU_GValue@@@std@@@std@@QEAA@XZ
    ?_Get_first@?$_Compressed_pair@V?$allocator@PEAU_GValue@@@std@@V?$_Vector_val@U?$_Simple_types@PEAU_GValue@@@std@@@2@$00@std@@QEAAAEAV?$allocator@PEAU_GValue@@@2@XZ
    ?_Get_first@?$_Compressed_pair@V?$allocator@PEAU_GValue@@@std@@V?$_Vector_val@U?$_Simple_types@PEAU_GValue@@@std@@@2@$00@std@@QEBAAEBV?$allocator@PEAU_GValue@@@2@XZ
    ??0?$allocator@PEAVPropertyBase@Glib@@@std@@QEAA@XZ
    ?deallocate@?$allocator@PEAVPropertyBase@Glib@@@std@@QEAAXQEAPEAVPropertyBase@Glib@@_K@Z
    ?allocate@?$allocator@PEAVPropertyBase@Glib@@@std@@QEAAPEAPEAVPropertyBase@Glib@@_K@Z
    ?max_size@?$_Default_allocator_traits@V?$allocator@PEAVPropertyBase@Glib@@@std@@@std@@SA_KAEBV?$allocator@PEAVPropertyBase@Glib@@@2@@Z
    ??0?$vector@PEAVPropertyBase@Glib@@V?$allocator@PEAVPropertyBase@Glib@@@std@@@std@@QEAA@XZ
    ??1?$vector@PEAVPropertyBase@Glib@@V?$allocator@PEAVPropertyBase@Glib@@@std@@@std@@QEAA@XZ
    ?size@?$vector@PEAVPropertyBase@Glib@@V?$allocator@PEAVPropertyBase@Glib@@@std@@@std@@QEBA_KXZ
    ?max_size@?$vector@PEAVPropertyBase@Glib@@V?$allocator@PEAVPropertyBase@Glib@@@std@@@std@@QEBA_KXZ
    ?capacity@?$vector@PEAVPropertyBase@Glib@@V?$allocator@PEAVPropertyBase@Glib@@@std@@@std@@QEBA_KXZ
    ??A?$vector@PEAVPropertyBase@Glib@@V?$allocator@PEAVPropertyBase@Glib@@@std@@@std@@QEAAAEAPEAVPropertyBase@Glib@@_K@Z
    ?_Calculate_growth@?$vector@PEAVPropertyBase@Glib@@V?$allocator@PEAVPropertyBase@Glib@@@std@@@std@@AEBA_K_K@Z
    ?_Change_array@?$vector@PEAVPropertyBase@Glib@@V?$allocator@PEAVPropertyBase@Glib@@@std@@@std@@AEAAXQEAPEAVPropertyBase@Glib@@_K1@Z
    ?_Tidy@?$vector@PEAVPropertyBase@Glib@@V?$allocator@PEAVPropertyBase@Glib@@@std@@@std@@AEAAXXZ
    ?_Xlength@?$vector@PEAVPropertyBase@Glib@@V?$allocator@PEAVPropertyBase@Glib@@@std@@@std@@CAXXZ
    ?_Orphan_range_unlocked@?$vector@PEAVPropertyBase@Glib@@V?$allocator@PEAVPropertyBase@Glib@@@std@@@std@@AEBAXPEAPEAVPropertyBase@Glib@@0@Z
    ?_Orphan_range_locked@?$vector@PEAVPropertyBase@Glib@@V?$allocator@PEAVPropertyBase@Glib@@@std@@@std@@AEBAXPEAPEAVPropertyBase@Glib@@0@Z
    ?_Orphan_range@?$vector@PEAVPropertyBase@Glib@@V?$allocator@PEAVPropertyBase@Glib@@@std@@@std@@AEBAXPEAPEAVPropertyBase@Glib@@0@Z
    ?_Getal@?$vector@PEAVPropertyBase@Glib@@V?$allocator@PEAVPropertyBase@Glib@@@std@@@std@@AEAAAEAV?$allocator@PEAVPropertyBase@Glib@@@2@XZ
    ?_Getal@?$vector@PEAVPropertyBase@Glib@@V?$allocator@PEAVPropertyBase@Glib@@@std@@@std@@AEBAAEBV?$allocator@PEAVPropertyBase@Glib@@@2@XZ
    ??0?$_Vector_val@U?$_Simple_types@PEAVPropertyBase@Glib@@@std@@@std@@QEAA@XZ
    ?_Get_first@?$_Compressed_pair@V?$allocator@PEAVPropertyBase@Glib@@@std@@V?$_Vector_val@U?$_Simple_types@PEAVPropertyBase@Glib@@@std@@@2@$00@std@@QEAAAEAV?$allocator@PEAVPropertyBase@Glib@@@2@XZ
    ?_Get_first@?$_Compressed_pair@V?$allocator@PEAVPropertyBase@Glib@@@std@@V?$_Vector_val@U?$_Simple_types@PEAVPropertyBase@Glib@@@std@@@2@$00@std@@QEBAAEBV?$allocator@PEAVPropertyBase@Glib@@@2@XZ
    ??0?$allocator@U?$_Tree_node@U?$pair@$$CBIPEAU_GValue@@@std@@PEAX@std@@@std@@QEAA@XZ
    ?deallocate@?$allocator@U?$_Tree_node@U?$pair@$$CBIPEAU_GValue@@@std@@PEAX@std@@@std@@QEAAXQEAU?$_Tree_node@U?$pair@$$CBIPEAU_GValue@@@std@@PEAX@2@_K@Z
    ?allocate@?$allocator@U?$_Tree_node@U?$pair@$$CBIPEAU_GValue@@@std@@PEAX@std@@@std@@QEAAPEAU?$_Tree_node@U?$pair@$$CBIPEAU_GValue@@@std@@PEAX@2@_K@Z
    ?deallocate@?$_Default_allocator_traits@V?$allocator@U?$_Tree_node@U?$pair@$$CBIPEAU_GValue@@@std@@PEAX@std@@@std@@@std@@SAXAEAV?$allocator@U?$_Tree_node@U?$pair@$$CBIPEAU_GValue@@@std@@PEAX@std@@@2@QEAU?$_Tree_node@U?$pair@$$CBIPEAU_GValue@@@std@@PEAX@2@_K@Z
    ?max_size@?$_Default_allocator_traits@V?$allocator@U?$_Tree_node@U?$pair@$$CBIPEAU_GValue@@@std@@PEAX@std@@@std@@@std@@SA_KAEBV?$allocator@U?$_Tree_node@U?$pair@$$CBIPEAU_GValue@@@std@@PEAX@std@@@2@@Z
    ??0?$_Tree@V?$_Tmap_traits@IPEAU_GValue@@U?$less@I@std@@V?$allocator@U?$pair@$$CBIPEAU_GValue@@@std@@@3@$0A@@std@@@std@@QEAA@AEBU?$less@I@1@@Z
    ??1?$_Tree@V?$_Tmap_traits@IPEAU_GValue@@U?$less@I@std@@V?$allocator@U?$pair@$$CBIPEAU_GValue@@@std@@@3@$0A@@std@@@std@@QEAA@XZ
    ?begin@?$_Tree@V?$_Tmap_traits@IPEAU_GValue@@U?$less@I@std@@V?$allocator@U?$pair@$$CBIPEAU_GValue@@@std@@@3@$0A@@std@@@std@@QEAA?AV?$_Tree_iterator@V?$_Tree_val@U?$_Tree_simple_types@U?$pair@$$CBIPEAU_GValue@@@std@@@std@@@std@@@2@XZ
    ?end@?$_Tree@V?$_Tmap_traits@IPEAU_GValue@@U?$less@I@std@@V?$allocator@U?$pair@$$CBIPEAU_GValue@@@std@@@3@$0A@@std@@@std@@QEAA?AV?$_Tree_iterator@V?$_Tree_val@U?$_Tree_simple_types@U?$pair@$$CBIPEAU_GValue@@@std@@@std@@@std@@@2@XZ
    ?max_size@?$_Tree@V?$_Tmap_traits@IPEAU_GValue@@U?$less@I@std@@V?$allocator@U?$pair@$$CBIPEAU_GValue@@@std@@@3@$0A@@std@@@std@@QEBA_KXZ
    ?find@?$_Tree@V?$_Tmap_traits@IPEAU_GValue@@U?$less@I@std@@V?$allocator@U?$pair@$$CBIPEAU_GValue@@@std@@@3@$0A@@std@@@std@@QEAA?AV?$_Tree_iterator@V?$_Tree_val@U?$_Tree_simple_types@U?$pair@$$CBIPEAU_GValue@@@std@@@std@@@std@@@2@AEBI@Z
    ?_Check_grow_by_1@?$_Tree@V?$_Tmap_traits@IPEAU_GValue@@U?$less@I@std@@V?$allocator@U?$pair@$$CBIPEAU_GValue@@@std@@@3@$0A@@std@@@std@@IEAAXXZ
    ?_Alloc_sentinel_and_proxy@?$_Tree@V?$_Tmap_traits@IPEAU_GValue@@U?$less@I@std@@V?$allocator@U?$pair@$$CBIPEAU_GValue@@@std@@@3@$0A@@std@@@std@@IEAAXXZ
    ?_Getcomp@?$_Tree@V?$_Tmap_traits@IPEAU_GValue@@U?$less@I@std@@V?$allocator@U?$pair@$$CBIPEAU_GValue@@@std@@@3@$0A@@std@@@std@@IEBAAEBU?$less@I@2@XZ
    ?_Getal@?$_Tree@V?$_Tmap_traits@IPEAU_GValue@@U?$less@I@std@@V?$allocator@U?$pair@$$CBIPEAU_GValue@@@std@@@3@$0A@@std@@@std@@IEAAAEAV?$allocator@U?$_Tree_node@U?$pair@$$CBIPEAU_GValue@@@std@@PEAX@std@@@2@XZ
    ?_Getal@?$_Tree@V?$_Tmap_traits@IPEAU_GValue@@U?$less@I@std@@V?$allocator@U?$pair@$$CBIPEAU_GValue@@@std@@@3@$0A@@std@@@std@@IEBAAEBV?$allocator@U?$_Tree_node@U?$pair@$$CBIPEAU_GValue@@@std@@PEAX@std@@@2@XZ
    ?_Get_scary@?$_Tree@V?$_Tmap_traits@IPEAU_GValue@@U?$less@I@std@@V?$allocator@U?$pair@$$CBIPEAU_GValue@@@std@@@3@$0A@@std@@@std@@IEAAPEAV?$_Tree_val@U?$_Tree_simple_types@U?$pair@$$CBIPEAU_GValue@@@std@@@std@@@2@XZ
    ?_Get_scary@?$_Tree@V?$_Tmap_traits@IPEAU_GValue@@U?$less@I@std@@V?$allocator@U?$pair@$$CBIPEAU_GValue@@@std@@@3@$0A@@std@@@std@@IEBAPEBV?$_Tree_val@U?$_Tree_simple_types@U?$pair@$$CBIPEAU_GValue@@@std@@@std@@@2@XZ
    ??R?$less@I@std@@QEBA_NAEBI0@Z
    ??0?$_Tree_val@U?$_Tree_simple_types@U?$pair@$$CBIPEAU_GValue@@@std@@@std@@@std@@QEAA@XZ
    ?_Min@?$_Tree_val@U?$_Tree_simple_types@U?$pair@$$CBIPEAU_GValue@@@std@@@std@@@std@@SAPEAU?$_Tree_node@U?$pair@$$CBIPEAU_GValue@@@std@@PEAX@2@PEAU32@@Z
    ?_Lrotate@?$_Tree_val@U?$_Tree_simple_types@U?$pair@$$CBIPEAU_GValue@@@std@@@std@@@std@@QEAAXPEAU?$_Tree_node@U?$pair@$$CBIPEAU_GValue@@@std@@PEAX@2@@Z
    ?_Rrotate@?$_Tree_val@U?$_Tree_simple_types@U?$pair@$$CBIPEAU_GValue@@@std@@@std@@@std@@QEAAXPEAU?$_Tree_node@U?$pair@$$CBIPEAU_GValue@@@std@@PEAX@2@@Z
    ?_Insert_node@?$_Tree_val@U?$_Tree_simple_types@U?$pair@$$CBIPEAU_GValue@@@std@@@std@@@std@@QEAAPEAU?$_Tree_node@U?$pair@$$CBIPEAU_GValue@@@std@@PEAX@2@U?$_Tree_id@PEAU?$_Tree_node@U?$pair@$$CBIPEAU_GValue@@@std@@PEAX@std@@@2@QEAU32@@Z
    ?_Get_first@?$_Compressed_pair@V?$allocator@U?$_Tree_node@U?$pair@$$CBIPEAU_GValue@@@std@@PEAX@std@@@std@@V?$_Tree_val@U?$_Tree_simple_types@U?$pair@$$CBIPEAU_GValue@@@std@@@std@@@2@$00@std@@QEAAAEAV?$allocator@U?$_Tree_node@U?$pair@$$CBIPEAU_GValue@@@std@@PEAX@std@@@2@XZ
    ?_Get_first@?$_Compressed_pair@V?$allocator@U?$_Tree_node@U?$pair@$$CBIPEAU_GValue@@@std@@PEAX@std@@@std@@V?$_Tree_val@U?$_Tree_simple_types@U?$pair@$$CBIPEAU_GValue@@@std@@@std@@@2@$00@std@@QEBAAEBV?$allocator@U?$_Tree_node@U?$pair@$$CBIPEAU_GValue@@@std@@PEAX@std@@@2@XZ
    ?_Get_first@?$_Compressed_pair@U?$less@I@std@@V?$_Compressed_pair@V?$allocator@U?$_Tree_node@U?$pair@$$CBIPEAU_GValue@@@std@@PEAX@std@@@std@@V?$_Tree_val@U?$_Tree_simple_types@U?$pair@$$CBIPEAU_GValue@@@std@@@std@@@2@$00@2@$00@std@@QEBAAEBU?$less@I@2@XZ
    ??0?$map@IPEAU_GValue@@U?$less@I@std@@V?$allocator@U?$pair@$$CBIPEAU_GValue@@@std@@@3@@std@@QEAA@XZ
    ??A?$map@IPEAU_GValue@@U?$less@I@std@@V?$allocator@U?$pair@$$CBIPEAU_GValue@@@std@@@3@@std@@QEAAAEAPEAU_GValue@@AEBI@Z
    ??1?$map@IPEAU_GValue@@U?$less@I@std@@V?$allocator@U?$pair@$$CBIPEAU_GValue@@@std@@@3@@std@@QEAA@XZ
    ??0?$_Tree_unchecked_const_iterator@V?$_Tree_val@U?$_Tree_simple_types@U?$pair@$$CBIPEAU_GValue@@@std@@@std@@@std@@U_Iterator_base12@2@@std@@QEAA@PEAU?$_Tree_node@U?$pair@$$CBIPEAU_GValue@@@std@@PEAX@1@PEBV?$_Tree_val@U?$_Tree_simple_types@U?$pair@$$CBIPEAU_GValue@@@std@@@std@@@1@@Z
    ??E?$_Tree_unchecked_const_iterator@V?$_Tree_val@U?$_Tree_simple_types@U?$pair@$$CBIPEAU_GValue@@@std@@@std@@@std@@U_Iterator_base12@2@@std@@QEAAAEAV01@XZ
    ??1?$_Tree_unchecked_const_iterator@V?$_Tree_val@U?$_Tree_simple_types@U?$pair@$$CBIPEAU_GValue@@@std@@@std@@@std@@U_Iterator_base12@2@@std@@QEAA@XZ
    ??D?$_Tree_const_iterator@V?$_Tree_val@U?$_Tree_simple_types@U?$pair@$$CBIPEAU_GValue@@@std@@@std@@@std@@@std@@QEBAAEBU?$pair@$$CBIPEAU_GValue@@@1@XZ
    ??E?$_Tree_const_iterator@V?$_Tree_val@U?$_Tree_simple_types@U?$pair@$$CBIPEAU_GValue@@@std@@@std@@@std@@@std@@QEAAAEAV01@XZ
    ??8?$_Tree_const_iterator@V?$_Tree_val@U?$_Tree_simple_types@U?$pair@$$CBIPEAU_GValue@@@std@@@std@@@std@@@std@@QEBA_NAEBV01@@Z
    ??9?$_Tree_const_iterator@V?$_Tree_val@U?$_Tree_simple_types@U?$pair@$$CBIPEAU_GValue@@@std@@@std@@@std@@@std@@QEBA_NAEBV01@@Z
    ??1?$_Tree_const_iterator@V?$_Tree_val@U?$_Tree_simple_types@U?$pair@$$CBIPEAU_GValue@@@std@@@std@@@std@@@std@@QEAA@XZ
    ??0?$_Tree_const_iterator@V?$_Tree_val@U?$_Tree_simple_types@U?$pair@$$CBIPEAU_GValue@@@std@@@std@@@std@@@std@@QEAA@PEAU?$_Tree_node@U?$pair@$$CBIPEAU_GValue@@@std@@PEAX@1@PEBV?$_Tree_val@U?$_Tree_simple_types@U?$pair@$$CBIPEAU_GValue@@@std@@@std@@@1@@Z
    ??D?$_Tree_iterator@V?$_Tree_val@U?$_Tree_simple_types@U?$pair@$$CBIPEAU_GValue@@@std@@@std@@@std@@@std@@QEBAAEAU?$pair@$$CBIPEAU_GValue@@@1@XZ
    ??C?$_Tree_iterator@V?$_Tree_val@U?$_Tree_simple_types@U?$pair@$$CBIPEAU_GValue@@@std@@@std@@@std@@@std@@QEBAPEAU?$pair@$$CBIPEAU_GValue@@@1@XZ
    ??E?$_Tree_iterator@V?$_Tree_val@U?$_Tree_simple_types@U?$pair@$$CBIPEAU_GValue@@@std@@@std@@@std@@@std@@QEAAAEAV01@XZ
    ??1?$_Tree_iterator@V?$_Tree_val@U?$_Tree_simple_types@U?$pair@$$CBIPEAU_GValue@@@std@@@std@@@std@@@std@@QEAA@XZ
    ??0?$_Tree_iterator@V?$_Tree_val@U?$_Tree_simple_types@U?$pair@$$CBIPEAU_GValue@@@std@@@std@@@std@@@std@@QEAA@PEAU?$_Tree_node@U?$pair@$$CBIPEAU_GValue@@@std@@PEAX@1@PEBV?$_Tree_val@U?$_Tree_simple_types@U?$pair@$$CBIPEAU_GValue@@@std@@@std@@@1@@Z
    ??$emplace_back@AEAPEAU_GValue@@@?$vector@PEAU_GValue@@V?$allocator@PEAU_GValue@@@std@@@std@@QEAAXAEAPEAU_GValue@@@Z
    ??$emplace_back@PEAVPropertyBase@Glib@@@?$vector@PEAVPropertyBase@Glib@@V?$allocator@PEAVPropertyBase@Glib@@@std@@@std@@QEAAX$$QEAPEAVPropertyBase@Glib@@@Z
    ??$min@_K@std@@YAAEB_KAEB_K0@Z
    ??$forward@AEAPEAU_GValue@@@std@@YAAEAPEAU_GValue@@AEAPEAU1@@Z
    ??$_Emplace_one_at_back@AEAPEAU_GValue@@@?$vector@PEAU_GValue@@V?$allocator@PEAU_GValue@@@std@@@std@@AEAAAEAPEAU_GValue@@AEAPEAU2@@Z
    ??$forward@PEAVPropertyBase@Glib@@@std@@YA$$QEAPEAVPropertyBase@Glib@@AEAPEAV12@@Z
    ??$_Emplace_one_at_back@PEAVPropertyBase@Glib@@@?$vector@PEAVPropertyBase@Glib@@V?$allocator@PEAVPropertyBase@Glib@@@std@@@std@@AEAAAEAPEAVPropertyBase@Glib@@$$QEAPEAV23@@Z
    ?pointer_to@?$pointer_traits@PEAU?$pair@$$CBIPEAU_GValue@@@std@@@std@@SAPEAU?$pair@$$CBIPEAU_GValue@@@2@AEAU32@@Z
    ??$_Find@I@?$_Tree@V?$_Tmap_traits@IPEAU_GValue@@U?$less@I@std@@V?$allocator@U?$pair@$$CBIPEAU_GValue@@@std@@@3@$0A@@std@@@std@@AEBAPEAU?$_Tree_node@U?$pair@$$CBIPEAU_GValue@@@std@@PEAX@1@AEBI@Z
    ??$_Erase_head@V?$allocator@U?$_Tree_node@U?$pair@$$CBIPEAU_GValue@@@std@@PEAX@std@@@std@@@?$_Tree_val@U?$_Tree_simple_types@U?$pair@$$CBIPEAU_GValue@@@std@@@std@@@std@@QEAAXAEAV?$allocator@U?$_Tree_node@U?$pair@$$CBIPEAU_GValue@@@std@@PEAX@std@@@1@@Z
    ?allocate@?$allocator@U_Container_proxy@std@@@std@@QEAAPEAU_Container_proxy@2@_K@Z
    ??$?0U?$_Tree_node@U?$pair@$$CBIPEAU_GValue@@@std@@PEAX@std@@@?$allocator@U_Container_proxy@std@@@std@@QEAA@AEBV?$allocator@U?$_Tree_node@U?$pair@$$CBIPEAU_GValue@@@std@@PEAX@std@@@1@@Z
    ??$_Delete_plain_internal@V?$allocator@U_Container_proxy@std@@@std@@@std@@YAXAEAV?$allocator@U_Container_proxy@std@@@0@QEAU_Container_proxy@0@@Z
    ??$_Try_emplace@AEBI$$V@?$map@IPEAU_GValue@@U?$less@I@std@@V?$allocator@U?$pair@$$CBIPEAU_GValue@@@std@@@3@@std@@AEAA?AU?$pair@PEAU?$_Tree_node@U?$pair@$$CBIPEAU_GValue@@@std@@PEAX@std@@_N@1@AEBI@Z
    ??$?0PEAVPropertyBase@Glib@@@?$allocator@U_Container_proxy@std@@@std@@QEAA@AEBV?$allocator@PEAVPropertyBase@Glib@@@1@@Z
    ??$exchange@PEAU_Container_proxy@std@@$$T@std@@YAPEAU_Container_proxy@0@AEAPEAU10@$$QEA$$T@Z
    ??$?0$$V@?$_Compressed_pair@V?$allocator@PEAVPropertyBase@Glib@@@std@@V?$_Vector_val@U?$_Simple_types@PEAVPropertyBase@Glib@@@std@@@2@$00@std@@QEAA@U_Zero_then_variadic_args_t@1@@Z
    ??$_Alloc_proxy@V?$allocator@U_Container_proxy@std@@@std@@@_Container_base12@std@@QEAAX$$QEAV?$allocator@U_Container_proxy@std@@@1@@Z
    ??$?0PEAU_GValue@@@?$allocator@U_Container_proxy@std@@@std@@QEAA@AEBV?$allocator@PEAU_GValue@@@1@@Z
    ??$?0$$V@?$_Compressed_pair@V?$allocator@PEAU_GValue@@@std@@V?$_Vector_val@U?$_Simple_types@PEAU_GValue@@@std@@@2@$00@std@@QEAA@U_Zero_then_variadic_args_t@1@@Z
    ??$_Emplace_back_with_unused_capacity@AEAPEAU_GValue@@@?$vector@PEAU_GValue@@V?$allocator@PEAU_GValue@@@std@@@std@@AEAAAEAPEAU_GValue@@AEAPEAU2@@Z
    ??$_Emplace_reallocate@AEAPEAU_GValue@@@?$vector@PEAU_GValue@@V?$allocator@PEAU_GValue@@@std@@@std@@AEAAPEAPEAU_GValue@@QEAPEAU2@AEAPEAU2@@Z
    ??$_Emplace_back_with_unused_capacity@PEAVPropertyBase@Glib@@@?$vector@PEAVPropertyBase@Glib@@V?$allocator@PEAVPropertyBase@Glib@@@std@@@std@@AEAAAEAPEAVPropertyBase@Glib@@$$QEAPEAV23@@Z
    ??$_Emplace_reallocate@PEAVPropertyBase@Glib@@@?$vector@PEAVPropertyBase@Glib@@V?$allocator@PEAVPropertyBase@Glib@@@std@@@std@@AEAAPEAPEAVPropertyBase@Glib@@QEAPEAV23@$$QEAPEAV23@@Z
    ??$_Find_lower_bound@I@?$_Tree@V?$_Tmap_traits@IPEAU_GValue@@U?$less@I@std@@V?$allocator@U?$pair@$$CBIPEAU_GValue@@@std@@@3@$0A@@std@@@std@@IEBA?AU?$_Tree_find_result@PEAU?$_Tree_node@U?$pair@$$CBIPEAU_GValue@@@std@@PEAX@std@@@1@AEBI@Z
    ??$_Lower_bound_duplicate@I@?$_Tree@V?$_Tmap_traits@IPEAU_GValue@@U?$less@I@std@@V?$allocator@U?$pair@$$CBIPEAU_GValue@@@std@@@3@$0A@@std@@@std@@IEBA_NQEAU?$_Tree_node@U?$pair@$$CBIPEAU_GValue@@@std@@PEAX@1@AEBI@Z
    ??$_Erase_tree@V?$allocator@U?$_Tree_node@U?$pair@$$CBIPEAU_GValue@@@std@@PEAX@std@@@std@@@?$_Tree_val@U?$_Tree_simple_types@U?$pair@$$CBIPEAU_GValue@@@std@@@std@@@std@@QEAAXAEAV?$allocator@U?$_Tree_node@U?$pair@$$CBIPEAU_GValue@@@std@@PEAX@std@@@1@PEAU?$_Tree_node@U?$pair@$$CBIPEAU_GValue@@@std@@PEAX@1@@Z
    ??$_Freenode0@V?$allocator@U?$_Tree_node@U?$pair@$$CBIPEAU_GValue@@@std@@PEAX@std@@@std@@@?$_Tree_node@U?$pair@$$CBIPEAU_GValue@@@std@@PEAX@std@@SAXAEAV?$allocator@U?$_Tree_node@U?$pair@$$CBIPEAU_GValue@@@std@@PEAX@std@@@1@PEAU01@@Z
    ??$_Deallocate_plain@V?$allocator@U_Container_proxy@std@@@std@@@std@@YAXAEAV?$allocator@U_Container_proxy@std@@@0@QEAU_Container_proxy@0@@Z
    ??$?0AEBQEAU?$_Tree_node@U?$pair@$$CBIPEAU_GValue@@@std@@PEAX@std@@_N$0A@@?$pair@PEAU?$_Tree_node@U?$pair@$$CBIPEAU_GValue@@@std@@PEAX@std@@_N@std@@QEAA@AEBQEAU?$_Tree_node@U?$pair@$$CBIPEAU_GValue@@@std@@PEAX@1@$$QEA_N@Z
    ??$forward@AEBI@std@@YAAEBIAEBI@Z
    ??$forward_as_tuple@AEBI@std@@YA?AV?$tuple@AEBI@0@AEBI@Z
    ??0?$tuple@AEBI@std@@QEAA@$$QEAV01@@Z
    ??$forward_as_tuple@$$V@std@@YA?AV?$tuple@$$V@0@XZ
    ??0?$_Alloc_construct_ptr@V?$allocator@U?$_Tree_node@U?$pair@$$CBIPEAU_GValue@@@std@@PEAX@std@@@std@@@std@@QEAA@AEAV?$allocator@U?$_Tree_node@U?$pair@$$CBIPEAU_GValue@@@std@@PEAX@std@@@1@@Z
    ?_Release@?$_Alloc_construct_ptr@V?$allocator@U?$_Tree_node@U?$pair@$$CBIPEAU_GValue@@@std@@PEAX@std@@@std@@@std@@QEAAPEAU?$_Tree_node@U?$pair@$$CBIPEAU_GValue@@@std@@PEAX@2@XZ
    ?_Allocate@?$_Alloc_construct_ptr@V?$allocator@U?$_Tree_node@U?$pair@$$CBIPEAU_GValue@@@std@@PEAX@std@@@std@@@std@@QEAAXXZ
    ??1?$_Alloc_construct_ptr@V?$allocator@U?$_Tree_node@U?$pair@$$CBIPEAU_GValue@@@std@@PEAX@std@@@std@@@std@@QEAA@XZ
    ??0?$_Tree_temp_node_alloc@V?$allocator@U?$_Tree_node@U?$pair@$$CBIPEAU_GValue@@@std@@PEAX@std@@@std@@@std@@QEAA@AEAV?$allocator@U?$_Tree_node@U?$pair@$$CBIPEAU_GValue@@@std@@PEAX@std@@@1@@Z
    ??1?$_Tree_temp_node_alloc@V?$allocator@U?$_Tree_node@U?$pair@$$CBIPEAU_GValue@@@std@@PEAX@std@@@std@@@std@@QEAA@XZ
    ??1?$_Tree_temp_node@V?$allocator@U?$_Tree_node@U?$pair@$$CBIPEAU_GValue@@@std@@PEAX@std@@@std@@@std@@QEAA@XZ
    ??$?0AEBUpiecewise_construct_t@std@@V?$tuple@AEBI@1@V?$tuple@$$V@1@@?$_Tree_temp_node@V?$allocator@U?$_Tree_node@U?$pair@$$CBIPEAU_GValue@@@std@@PEAX@std@@@std@@@std@@QEAA@AEAV?$allocator@U?$_Tree_node@U?$pair@$$CBIPEAU_GValue@@@std@@PEAX@std@@@1@PEAU?$_Tree_node@U?$pair@$$CBIPEAU_GValue@@@std@@PEAX@1@AEBUpiecewise_construct_t@1@$$QEAV?$tuple@AEBI@1@$$QEAV?$tuple@$$V@1@@Z
    ??$?0PEAU?$_Tree_node@U?$pair@$$CBIPEAU_GValue@@@std@@PEAX@std@@_N$0A@@?$pair@PEAU?$_Tree_node@U?$pair@$$CBIPEAU_GValue@@@std@@PEAX@std@@_N@std@@QEAA@$$QEAPEAU?$_Tree_node@U?$pair@$$CBIPEAU_GValue@@@std@@PEAX@1@$$QEA_N@Z
    ??$_Unfancy@U_Container_proxy@std@@@std@@YAPEAU_Container_proxy@0@PEAU10@@Z
    ??$_Construct_in_place@U_Container_proxy@std@@PEAU_Container_base12@2@@std@@YAXAEAU_Container_proxy@0@$$QEAPEAU_Container_base12@0@@Z
    ??0?$_Container_proxy_ptr12@V?$allocator@U_Container_proxy@std@@@std@@@std@@QEAA@AEAV?$allocator@U_Container_proxy@std@@@1@AEAU_Container_base12@1@@Z
    ??1?$_Container_proxy_ptr12@V?$allocator@U_Container_proxy@std@@@std@@@std@@QEAA@XZ
    ??$addressof@U?$pair@$$CBIPEAU_GValue@@@std@@@std@@YAPEAU?$pair@$$CBIPEAU_GValue@@@0@AEAU10@@Z
    ??$addressof@V?$_Tree_val@U?$_Tree_simple_types@U?$pair@$$CBIPEAU_GValue@@@std@@@std@@@std@@@std@@YAPEAV?$_Tree_val@U?$_Tree_simple_types@U?$pair@$$CBIPEAU_GValue@@@std@@@std@@@0@AEAV10@@Z
    ??$?0AEBU?$less@I@std@@U_Zero_then_variadic_args_t@1@@?$_Compressed_pair@U?$less@I@std@@V?$_Compressed_pair@V?$allocator@U?$_Tree_node@U?$pair@$$CBIPEAU_GValue@@@std@@PEAX@std@@@std@@V?$_Tree_val@U?$_Tree_simple_types@U?$pair@$$CBIPEAU_GValue@@@std@@@std@@@2@$00@2@$00@std@@QEAA@U_One_then_variadic_args_t@1@AEBU?$less@I@1@$$QEAU_Zero_then_variadic_args_t@1@@Z
    ??$?0$$V@?$_Compressed_pair@V?$allocator@U?$_Tree_node@U?$pair@$$CBIPEAU_GValue@@@std@@PEAX@std@@@std@@V?$_Tree_val@U?$_Tree_simple_types@U?$pair@$$CBIPEAU_GValue@@@std@@@std@@@2@$00@std@@QEAA@U_Zero_then_variadic_args_t@1@@Z
    ??$_Destroy_range@V?$allocator@PEAVPropertyBase@Glib@@@std@@@std@@YAXPEAPEAVPropertyBase@Glib@@QEAPEAV12@AEAV?$allocator@PEAVPropertyBase@Glib@@@0@@Z
    ??$_Destroy_range@V?$allocator@PEAU_GValue@@@std@@@std@@YAXPEAPEAU_GValue@@QEAPEAU1@AEAV?$allocator@PEAU_GValue@@@0@@Z
    ??$_Deallocate@$0BA@@std@@YAXPEAX_K@Z
    ??$_Construct_in_place@PEAU_GValue@@AEAPEAU1@@std@@YAXAEAPEAU_GValue@@0@Z
    ??$_Allocate_at_least_helper@V?$allocator@PEAU_GValue@@@std@@@std@@YAPEAPEAU_GValue@@AEAV?$allocator@PEAU_GValue@@@0@AEA_K@Z
    ??1_Reallocation_guard@?$vector@PEAU_GValue@@V?$allocator@PEAU_GValue@@@std@@@std@@QEAA@XZ
    ??$_Unfancy@PEAU_GValue@@@std@@YAPEAPEAU_GValue@@PEAPEAU1@@Z
    ??$construct@PEAU_GValue@@AEAPEAU1@@?$_Default_allocator_traits@V?$allocator@PEAU_GValue@@@std@@@std@@SAXAEAV?$allocator@PEAU_GValue@@@1@QEAPEAU_GValue@@AEAPEAU3@@Z
    ??$_Uninitialized_move@PEAPEAU_GValue@@V?$allocator@PEAU_GValue@@@std@@@std@@YAPEAPEAU_GValue@@QEAPEAU1@0PEAPEAU1@AEAV?$allocator@PEAU_GValue@@@0@@Z
    ??$_Construct_in_place@PEAVPropertyBase@Glib@@PEAV12@@std@@YAXAEAPEAVPropertyBase@Glib@@$$QEAPEAV12@@Z
    ??$_Allocate_at_least_helper@V?$allocator@PEAVPropertyBase@Glib@@@std@@@std@@YAPEAPEAVPropertyBase@Glib@@AEAV?$allocator@PEAVPropertyBase@Glib@@@0@AEA_K@Z
    ??1_Reallocation_guard@?$vector@PEAVPropertyBase@Glib@@V?$allocator@PEAVPropertyBase@Glib@@@std@@@std@@QEAA@XZ
    ??$_Unfancy@PEAVPropertyBase@Glib@@@std@@YAPEAPEAVPropertyBase@Glib@@PEAPEAV12@@Z
    ??$construct@PEAVPropertyBase@Glib@@PEAV12@@?$_Default_allocator_traits@V?$allocator@PEAVPropertyBase@Glib@@@std@@@std@@SAXAEAV?$allocator@PEAVPropertyBase@Glib@@@1@QEAPEAVPropertyBase@Glib@@$$QEAPEAV34@@Z
    ??$_Uninitialized_move@PEAPEAVPropertyBase@Glib@@V?$allocator@PEAVPropertyBase@Glib@@@std@@@std@@YAPEAPEAVPropertyBase@Glib@@QEAPEAV12@0PEAPEAV12@AEAV?$allocator@PEAVPropertyBase@Glib@@@0@@Z
    ??$_Kfn@$$CBIPEAU_GValue@@@?$_Tmap_traits@IPEAU_GValue@@U?$less@I@std@@V?$allocator@U?$pair@$$CBIPEAU_GValue@@@std@@@3@$0A@@std@@SAAEBIAEBU?$pair@$$CBIPEAU_GValue@@@1@@Z
    ??$_Debug_lt_pred@AEBU?$less@I@std@@AEBIAEBI@std@@YA_NAEBU?$less@I@0@AEBI1@Z
    ??$exchange@PEAU?$_Tree_node@U?$pair@$$CBIPEAU_GValue@@@std@@PEAX@std@@AEAPEAU12@@std@@YAPEAU?$_Tree_node@U?$pair@$$CBIPEAU_GValue@@@std@@PEAX@0@AEAPEAU10@0@Z
    ??$_Freenode@V?$allocator@U?$_Tree_node@U?$pair@$$CBIPEAU_GValue@@@std@@PEAX@std@@@std@@@?$_Tree_node@U?$pair@$$CBIPEAU_GValue@@@std@@PEAX@std@@SAXAEAV?$allocator@U?$_Tree_node@U?$pair@$$CBIPEAU_GValue@@@std@@PEAX@std@@@1@PEAU01@@Z
    ??$_Destroy_in_place@PEAU?$_Tree_node@U?$pair@$$CBIPEAU_GValue@@@std@@PEAX@std@@@std@@YAXAEAPEAU?$_Tree_node@U?$pair@$$CBIPEAU_GValue@@@std@@PEAX@0@@Z
    ?deallocate@?$_Default_allocator_traits@V?$allocator@U_Container_proxy@std@@@std@@@std@@SAXAEAV?$allocator@U_Container_proxy@std@@@2@QEAU_Container_proxy@2@_K@Z
    ??$forward@AEBQEAU?$_Tree_node@U?$pair@$$CBIPEAU_GValue@@@std@@PEAX@std@@@std@@YAAEBQEAU?$_Tree_node@U?$pair@$$CBIPEAU_GValue@@@std@@PEAX@0@AEBQEAU10@@Z
    ??$forward@_N@std@@YA$$QEA_NAEA_N@Z
    ??$?0AEBI$0A@@?$tuple@AEBI@std@@QEAA@AEBI@Z
    ??$forward@AEBUpiecewise_construct_t@std@@@std@@YAAEBUpiecewise_construct_t@0@AEBU10@@Z
    ??$forward@V?$tuple@AEBI@std@@@std@@YA$$QEAV?$tuple@AEBI@0@AEAV10@@Z
    ??$forward@V?$tuple@$$V@std@@@std@@YA$$QEAV?$tuple@$$V@0@AEAV10@@Z
    ??$construct@U?$pair@$$CBIPEAU_GValue@@@std@@AEBUpiecewise_construct_t@2@V?$tuple@AEBI@2@V?$tuple@$$V@2@@?$_Default_allocator_traits@V?$allocator@U?$_Tree_node@U?$pair@$$CBIPEAU_GValue@@@std@@PEAX@std@@@std@@@std@@SAXAEAV?$allocator@U?$_Tree_node@U?$pair@$$CBIPEAU_GValue@@@std@@PEAX@std@@@1@QEAU?$pair@$$CBIPEAU_GValue@@@1@AEBUpiecewise_construct_t@1@$$QEAV?$tuple@AEBI@1@$$QEAV?$tuple@$$V@1@@Z
    ??$_Construct_in_place@PEAU?$_Tree_node@U?$pair@$$CBIPEAU_GValue@@@std@@PEAX@std@@AEAPEAU12@@std@@YAXAEAPEAU?$_Tree_node@U?$pair@$$CBIPEAU_GValue@@@std@@PEAX@0@0@Z
    ??$forward@PEAU?$_Tree_node@U?$pair@$$CBIPEAU_GValue@@@std@@PEAX@std@@@std@@YA$$QEAPEAU?$_Tree_node@U?$pair@$$CBIPEAU_GValue@@@std@@PEAX@0@AEAPEAU10@@Z
    ??$addressof@U_Container_proxy@std@@@std@@YAPEAU_Container_proxy@0@AEAU10@@Z
    ??$forward@PEAU_Container_base12@std@@@std@@YA$$QEAPEAU_Container_base12@0@AEAPEAU10@@Z
    ??$forward@AEBU?$less@I@std@@@std@@YAAEBU?$less@I@0@AEBU10@@Z
    ??$forward@U_Zero_then_variadic_args_t@std@@@std@@YA$$QEAU_Zero_then_variadic_args_t@0@AEAU10@@Z
    ??$addressof@U_Container_base12@std@@@std@@YAPEAU_Container_base12@0@AEAU10@@Z
    ??$exchange@PEAU?$_Tree_node@U?$pair@$$CBIPEAU_GValue@@@std@@PEAX@std@@$$T@std@@YAPEAU?$_Tree_node@U?$pair@$$CBIPEAU_GValue@@@std@@PEAX@0@AEAPEAU10@$$QEA$$T@Z
    ??$destroy@U?$pair@$$CBIPEAU_GValue@@@std@@@?$_Default_allocator_traits@V?$allocator@U?$_Tree_node@U?$pair@$$CBIPEAU_GValue@@@std@@PEAX@std@@@std@@@std@@SAXAEAV?$allocator@U?$_Tree_node@U?$pair@$$CBIPEAU_GValue@@@std@@PEAX@std@@@1@QEAU?$pair@$$CBIPEAU_GValue@@@1@@Z
    ??$_Get_size_of_n@$0BA@@std@@YA_K_K@Z
    ??$_Allocate@$0BA@U_Default_allocate_traits@std@@@std@@YAPEAX_K@Z
    ??$addressof@$$CBV?$_Tree_val@U?$_Tree_simple_types@U?$pair@$$CBIPEAU_GValue@@@std@@@std@@@std@@@std@@YAPEBV?$_Tree_val@U?$_Tree_simple_types@U?$pair@$$CBIPEAU_GValue@@@std@@@std@@@0@AEBV10@@Z
    ??$_Buyheadnode@V?$allocator@U?$_Tree_node@U?$pair@$$CBIPEAU_GValue@@@std@@PEAX@std@@@std@@@?$_Tree_node@U?$pair@$$CBIPEAU_GValue@@@std@@PEAX@std@@SAPEAU01@AEAV?$allocator@U?$_Tree_node@U?$pair@$$CBIPEAU_GValue@@@std@@PEAX@std@@@1@@Z
    ??$_Max_limit@_J@std@@YA_JXZ
    ??$addressof@PEAU_GValue@@@std@@YAPEAPEAU_GValue@@AEAPEAU1@@Z
    ??$_Get_unwrapped@AEBQEAPEAU_GValue@@@std@@YA?A_TAEBQEAPEAU_GValue@@@Z
    ??$move@AEAPEAU_GValue@@@std@@YA$$QEAPEAU_GValue@@AEAPEAU1@@Z
    ??$_Copy_memmove@PEAPEAU_GValue@@PEAPEAU1@@std@@YAPEAPEAU_GValue@@PEAPEAU1@00@Z
    ??0?$_Uninitialized_backout_al@V?$allocator@PEAU_GValue@@@std@@@std@@QEAA@PEAPEAU_GValue@@AEAV?$allocator@PEAU_GValue@@@1@@Z
    ??1?$_Uninitialized_backout_al@V?$allocator@PEAU_GValue@@@std@@@std@@QEAA@XZ
    ?_Release@?$_Uninitialized_backout_al@V?$allocator@PEAU_GValue@@@std@@@std@@QEAAPEAPEAU_GValue@@XZ
    ??$_Emplace_back@PEAU_GValue@@@?$_Uninitialized_backout_al@V?$allocator@PEAU_GValue@@@std@@@std@@QEAAX$$QEAPEAU_GValue@@@Z
    ??$addressof@PEAVPropertyBase@Glib@@@std@@YAPEAPEAVPropertyBase@Glib@@AEAPEAV12@@Z
    ??$_Get_unwrapped@AEBQEAPEAVPropertyBase@Glib@@@std@@YA?A_TAEBQEAPEAVPropertyBase@Glib@@@Z
    ??$move@AEAPEAVPropertyBase@Glib@@@std@@YA$$QEAPEAVPropertyBase@Glib@@AEAPEAV12@@Z
    ??$_Copy_memmove@PEAPEAVPropertyBase@Glib@@PEAPEAV12@@std@@YAPEAPEAVPropertyBase@Glib@@PEAPEAV12@00@Z
    ??0?$_Uninitialized_backout_al@V?$allocator@PEAVPropertyBase@Glib@@@std@@@std@@QEAA@PEAPEAVPropertyBase@Glib@@AEAV?$allocator@PEAVPropertyBase@Glib@@@1@@Z
    ??1?$_Uninitialized_backout_al@V?$allocator@PEAVPropertyBase@Glib@@@std@@@std@@QEAA@XZ
    ?_Release@?$_Uninitialized_backout_al@V?$allocator@PEAVPropertyBase@Glib@@@std@@@std@@QEAAPEAPEAVPropertyBase@Glib@@XZ
    ??$_Emplace_back@PEAVPropertyBase@Glib@@@?$_Uninitialized_backout_al@V?$allocator@PEAVPropertyBase@Glib@@@std@@@std@@QEAAX$$QEAPEAVPropertyBase@Glib@@@Z
    ??$?0U_Exact_args_t@std@@AEBI$$V$0A@@?$tuple@AEBI@std@@QEAA@U_Exact_args_t@1@AEBI@Z
    ??$?0AEBI$$Z$$V@?$pair@$$CBIPEAU_GValue@@@std@@QEAA@Upiecewise_construct_t@1@V?$tuple@AEBI@1@V?$tuple@$$V@1@@Z
    ??$addressof@PEAU?$_Tree_node@U?$pair@$$CBIPEAU_GValue@@@std@@PEAX@std@@@std@@YAPEAPEAU?$_Tree_node@U?$pair@$$CBIPEAU_GValue@@@std@@PEAX@0@AEAPEAU10@@Z
    ??$forward@AEAPEAU?$_Tree_node@U?$pair@$$CBIPEAU_GValue@@@std@@PEAX@std@@@std@@YAAEAPEAU?$_Tree_node@U?$pair@$$CBIPEAU_GValue@@@std@@PEAX@0@AEAPEAU10@@Z
    ??$_Allocate_manually_vector_aligned@U_Default_allocate_traits@std@@@std@@YAPEAX_K@Z
    ??$_Construct_in_place@PEAU?$_Tree_node@U?$pair@$$CBIPEAU_GValue@@@std@@PEAX@std@@AEBQEAU12@@std@@YAXAEAPEAU?$_Tree_node@U?$pair@$$CBIPEAU_GValue@@@std@@PEAX@0@AEBQEAU10@@Z
    ??$_To_address@PEAPEAU_GValue@@@std@@YA?A_PAEBQEAPEAU_GValue@@@Z
    ??$move@AEAPEAPEAU_GValue@@@std@@YA$$QEAPEAPEAU_GValue@@AEAPEAPEAU1@@Z
    ??$_Copy_memmove_tail@PEAPEAU_GValue@@@std@@YAPEAPEAU_GValue@@QEBDQEAPEAU1@_K2@Z
    ??$forward@PEAU_GValue@@@std@@YA$$QEAPEAU_GValue@@AEAPEAU1@@Z
    ??$construct@PEAU_GValue@@PEAU1@@?$_Default_allocator_traits@V?$allocator@PEAU_GValue@@@std@@@std@@SAXAEAV?$allocator@PEAU_GValue@@@1@QEAPEAU_GValue@@$$QEAPEAU3@@Z
    ??$_To_address@PEAPEAVPropertyBase@Glib@@@std@@YA?A_PAEBQEAPEAVPropertyBase@Glib@@@Z
    ??$move@AEAPEAPEAVPropertyBase@Glib@@@std@@YA$$QEAPEAPEAVPropertyBase@Glib@@AEAPEAPEAV12@@Z
    ??$_Copy_memmove_tail@PEAPEAVPropertyBase@Glib@@@std@@YAPEAPEAVPropertyBase@Glib@@QEBDQEAPEAV12@_K2@Z
    ??$?0U_Exact_args_t@std@@$0A@@?$tuple@$$V@std@@QEAA@U_Exact_args_t@1@@Z
    ??$?0AEBI@?$_Tuple_val@AEBI@std@@QEAA@AEBI@Z
    ??$?0V?$tuple@AEBI@std@@V?$tuple@$$V@1@$0A@$$Z$S@?$pair@$$CBIPEAU_GValue@@@std@@AEAA@AEAV?$tuple@AEBI@1@AEAV?$tuple@$$V@1@U?$integer_sequence@_K$0A@@1@U?$integer_sequence@_K$S@1@@Z
    ??$_Get_size_of_n@$0DA@@std@@YA_K_K@Z
    ??$_Get_size_of_n@$07@std@@YA_K_K@Z
    ??$move@AEAV?$tuple@AEBI@std@@@std@@YA$$QEAV?$tuple@AEBI@0@AEAV10@@Z
    ??$_Tuple_get@$0A@AEBI@std@@YA$$QEA_P$$QEAV?$tuple@AEBI@0@@Z
    ??_7exception@std@@6B@
    ??_C@_0BC@EOODALEL@Unknown?5exception@
    ??_7bad_alloc@std@@6B@
    ??_7bad_array_new_length@std@@6B@
    ??_C@_0BF@KINCDENJ@bad?5array?5new?5length@
    ??_R0?AVexception@std@@@8
    _CT??_R0?AVexception@std@@@8??0exception@std@@QEAA@AEBV01@@Z24
    _TI3?AVbad_array_new_length@std@@
    _CTA3?AVbad_array_new_length@std@@
    ??_R0?AVbad_array_new_length@std@@@8
    _CT??_R0?AVbad_array_new_length@std@@@8??0bad_array_new_length@std@@QEAA@AEBV01@@Z24
    ??_R0?AVbad_alloc@std@@@8
    _CT??_R0?AVbad_alloc@std@@@8??0bad_alloc@std@@QEAA@AEBV01@@Z24
    ??_C@_0BB@FCMFBGOM@invalid?5argument@
    ??_C@_02DKCKIIND@?$CFs@
    ??_C@_0GC@KLECFGLI@C?3?2Program?5Files?2Microsoft?5Visu@
    ??_C@_0BJ@LFDBABJJ@ITERATOR?5LIST?5CORRUPTED?$CB@
    ??_C@_0BB@GCADKGJO@map?1set?5too?5long@
    ??_C@_0GD@GOKHNLI@C?3?2Program?5Files?2Microsoft?5Visu@
    ??_C@_0BO@PFKOHNJC@vector?5subscript?5out?5of?5range@
    ??_C@_0GB@KEIPDMDC@C?3?2Program?5Files?2Microsoft?5Visu@
    ??_C@_0BP@OLDKBHLM@map?1set?5iterators?5incompatible@
    ??_C@_0GA@IINHIBAD@C?3?2Program?5Files?2Microsoft?5Visu@
    ??_C@_0DE@DMNPKCGM@cannot?5increment?5value?9initiali@
    ??_C@_0CG@NLEHEOHN@cannot?5increment?5end?5map?1set?5it@
    ??_C@_0DG@KGHKKGBC@null?5pointer?5cannot?5point?5to?5a?5@
    ??_C@_0DG@LCFNIIPB@cannot?5dereference?5value?9initia@
    ??_C@_0CI@OKFEHCEB@cannot?5dereference?5end?5map?1set?5@
    ??_C@_0BD@FEEMDEPI@invalid?5comparator@
    ??_C@_0BA@FOIKENOD@vector?5too?5long@
    ??_R4exception@std@@6B@
    ??_R3exception@std@@8
    ??_R2exception@std@@8
    ??_R1A@?0A@EA@exception@std@@8
    ??_R4bad_array_new_length@std@@6B@
    ??_R3bad_array_new_length@std@@8
    ??_R2bad_array_new_length@std@@8
    ??_R1A@?0A@EA@bad_array_new_length@std@@8
    ??_R1A@?0A@EA@bad_alloc@std@@8
    ??_R3bad_alloc@std@@8
    ??_R2bad_alloc@std@@8
    ??_R4bad_alloc@std@@6B@
    ?__empty_global_delete@@YAXPEAX@Z
    ?__empty_global_delete@@YAXPEAX_K@Z
    ?__empty_global_delete@@YAXPEAX@Z
    ?__empty_global_delete@@YAXPEAX_K@Z
    ??HGlib@@YA?AVustring@0@PEBDAEBV10@@Z
    ?gobj@ValueBase@Glib@@QEAAPEAU_GValue@@XZ
    ?gobj@ValueBase@Glib@@QEBAPEBU_GValue@@XZ
    ??$function_pointer_cast@P6AXPEAUslot_rep@internal@sigc@@@ZP6APEAXPEAX@Z@internal@sigc@@YAP6AXPEAUslot_rep@01@@ZP6APEAXPEAX@Z@Z
    ?data_to_slot@SignalProxyBase@Glib@@SAPEAVslot_base@sigc@@PEAX@Z
    ??0SignalProxyProperty@Glib@@QEAA@PEAVObjectBase@1@PEBD@Z
    ??1SignalProxyProperty@Glib@@QEAA@XZ
    ?connect@SignalProxyProperty@Glib@@QEAA?AUconnection@sigc@@AEBV?$slot@XUnil@sigc@@U12@U12@U12@U12@U12@U12@@4@@Z
    ?connect@SignalProxyProperty@Glib@@QEAA?AUconnection@sigc@@$$QEAV?$slot@XUnil@sigc@@U12@U12@U12@U12@U12@U12@@4@@Z
    ??0PropertyProxy_Base@Glib@@QEAA@PEAVObjectBase@1@PEBD@Z
    ??0PropertyProxy_Base@Glib@@QEAA@AEBV01@@Z
    ?signal_changed@PropertyProxy_Base@Glib@@QEAA?AVSignalProxyProperty@2@XZ
    ?set_property_@PropertyProxy_Base@Glib@@IEAAXAEBVValueBase@2@@Z
    ?get_property_@PropertyProxy_Base@Glib@@IEBAXAEAVValueBase@2@@Z
    ?reset_property_@PropertyProxy_Base@Glib@@IEAAXXZ
    ??0PropertyProxyConnectionNode@Glib@@QEAA@AEBVslot_base@sigc@@PEAU_GObject@@@Z
    ??0PropertyProxyConnectionNode@Glib@@QEAA@$$QEAVslot_base@sigc@@PEAU_GObject@@@Z
    ?connect_changed@PropertyProxyConnectionNode@Glib@@QEAA?AUconnection@sigc@@AEBVustring@2@@Z
    ?callback@PropertyProxyConnectionNode@Glib@@SAXPEAU_GObject@@PEAU_GParamSpec@@PEAX@Z
    ?gobj@ObjectBase@Glib@@QEAAPEAU_GObject@@XZ
    ??$move@AEAVslot_base@sigc@@@std@@YA$$QEAVslot_base@sigc@@AEAV12@@Z
    ??R?$slot0@X@sigc@@QEBAXXZ
    ??$move@AEAV?$slot@XUnil@sigc@@U12@U12@U12@U12@U12@U12@@sigc@@@std@@YA$$QEAV?$slot@XUnil@sigc@@U12@U12@U12@U12@U12@U12@@sigc@@AEAV12@@Z
    ?quark_@Glib@@3IA
    ?quark_cpp_wrapper_deleted_@Glib@@3IA
    ?__empty_global_delete@@YAXPEAX@Z
    ?__empty_global_delete@@YAXPEAX_K@Z
    ??0QueryQuark@Glib@@QEAA@AEBI@Z
    ??0QueryQuark@Glib@@QEAA@AEBVustring@1@@Z
    ??0QueryQuark@Glib@@QEAA@PEBD@Z
    ??1QueryQuark@Glib@@QEAA@XZ
    ??4QueryQuark@Glib@@QEAAAEAV01@AEBV01@@Z
    ??BQueryQuark@Glib@@QEBA?AVustring@1@XZ
    ??0Quark@Glib@@QEAA@AEBVustring@1@@Z
    ??0Quark@Glib@@QEAA@PEBD@Z
    ??1Quark@Glib@@QEAA@XZ
    ?__empty_global_delete@@YAXPEAX@Z
    ?__empty_global_delete@@YAXPEAX_K@Z
    ??0Rand@Glib@@QEAA@XZ
    ??0Rand@Glib@@QEAA@I@Z
    ??1Rand@Glib@@QEAA@XZ
    ?set_seed@Rand@Glib@@QEAAXI@Z
    ?get_bool@Rand@Glib@@QEAA_NXZ
    ?get_int@Rand@Glib@@QEAAIXZ
    ?get_int_range@Rand@Glib@@QEAAHHH@Z
    ?get_double@Rand@Glib@@QEAANXZ
    ?get_double_range@Rand@Glib@@QEAANNN@Z
    ?__empty_global_delete@@YAXPEAX@Z
    ?__empty_global_delete@@YAXPEAX_K@Z
    ?_Myptr@?$_String_val@U?$_Simple_types@D@std@@@std@@QEBAPEBDXZ
    ?_Large_mode_engaged@?$_String_val@U?$_Simple_types@D@std@@@std@@QEBA_NXZ
    ?c_str@?$basic_string@DU?$char_traits@D@std@@V?$allocator@D@2@@std@@QEBAPEBDXZ
    ?size@?$basic_string@DU?$char_traits@D@std@@V?$allocator@D@2@@std@@QEBA_KXZ
    ?raw@ustring@Glib@@QEBAAEBV?$basic_string@DU?$char_traits@D@std@@V?$allocator@D@2@@std@@XZ
    ??0Exception@Glib@@QEAA@AEBV01@@Z
    ?release_c_type@?$TypeTraits@Vustring@Glib@@@Container_Helpers@Glib@@SAXPEBD@Z
    ?convert_const_gchar_ptr_to_ustring@Glib@@YA?AVustring@1@PEBD@Z
    ?convert_return_gchar_ptr_to_ustring@Glib@@YA?AVustring@1@PEAD@Z
    ??$make_unique_ptr_gfree@D@Glib@@YA?AV?$unique_ptr@$$BY0A@DP6AXPEAX@Z@std@@PEAD@Z
    ??1?$unique_ptr@$$BY0A@DP6AXPEAX@Z@std@@QEAA@XZ
    ?get_deleter@?$unique_ptr@$$BY0A@DP6AXPEAX@Z@std@@QEAAAEAP6AXPEAX@ZXZ
    ?get@?$unique_ptr@$$BY0A@DP6AXPEAX@Z@std@@QEBAPEADXZ
    ?release@?$unique_ptr@$$BY0A@DP6AXPEAX@Z@std@@QEAAPEADXZ
    ?_Get_first@?$_Compressed_pair@P6AXPEAX@ZPEAD$0A@@std@@QEAAAEAP6AXPEAX@ZXZ
    ??0RegexError@Glib@@QEAA@W4Code@01@AEBVustring@1@@Z
    ??0RegexError@Glib@@QEAA@PEAU_GError@@@Z
    ?code@RegexError@Glib@@QEBA?AW4Code@12@XZ
    ?throw_func@RegexError@Glib@@CAXPEAU_GError@@@Z
    ??1RegexError@Glib@@UEAA@XZ
    ??0RegexError@Glib@@QEAA@AEBV01@@Z
    ?reference@Regex@Glib@@QEBAXXZ
    ?unreference@Regex@Glib@@QEBAXXZ
    ?gobj@Regex@Glib@@QEAAPEAU_GRegex@@XZ
    ?gobj@Regex@Glib@@QEBAPEBU_GRegex@@XZ
    ?gobj_copy@Regex@Glib@@QEBAPEAU_GRegex@@XZ
    ?create@Regex@Glib@@SA?AV?$RefPtr@VRegex@Glib@@@2@AEBVustring@2@W4RegexCompileFlags@2@W4RegexMatchFlags@2@@Z
    ?get_pattern@Regex@Glib@@QEBA?AVustring@2@XZ
    ?get_max_backref@Regex@Glib@@QEBAHXZ
    ?get_capture_count@Regex@Glib@@QEBAHXZ
    ?get_has_cr_or_lf@Regex@Glib@@QEBA_NXZ
    ?get_max_lookbehind@Regex@Glib@@QEBAHXZ
    ?get_string_number@Regex@Glib@@QEBAHAEBVustring@2@@Z
    ?get_compile_flags@Regex@Glib@@QEBA?AW4RegexCompileFlags@2@XZ
    ?get_match_flags@Regex@Glib@@QEBA?AW4RegexMatchFlags@2@XZ
    ?escape_string@Regex@Glib@@SA?AVustring@2@AEBV32@@Z
    ?match_simple@Regex@Glib@@SA_NAEBVustring@2@0W4RegexCompileFlags@2@W4RegexMatchFlags@2@@Z
    ?match@Regex@Glib@@QEAA_NAEBVustring@2@AEAVMatchInfo@2@W4RegexMatchFlags@2@@Z
    ?match@Regex@Glib@@QEAA_NAEBVustring@2@W4RegexMatchFlags@2@@Z
    ?match@Regex@Glib@@QEAA_NAEBVustring@2@HAEAVMatchInfo@2@W4RegexMatchFlags@2@@Z
    ?match@Regex@Glib@@QEAA_NAEBVustring@2@_JHAEAVMatchInfo@2@W4RegexMatchFlags@2@@Z
    ?match@Regex@Glib@@QEAA_NAEBVustring@2@HW4RegexMatchFlags@2@@Z
    ?match@Regex@Glib@@QEAA_NAEBVustring@2@_JHW4RegexMatchFlags@2@@Z
    ?match_all@Regex@Glib@@QEAA_NAEBVustring@2@AEAVMatchInfo@2@W4RegexMatchFlags@2@@Z
    ?match_all@Regex@Glib@@QEAA_NAEBVustring@2@W4RegexMatchFlags@2@@Z
    ?match_all@Regex@Glib@@QEAA_NAEBVustring@2@HAEAVMatchInfo@2@W4RegexMatchFlags@2@@Z
    ?match_all@Regex@Glib@@QEAA_NAEBVustring@2@_JHAEAVMatchInfo@2@W4RegexMatchFlags@2@@Z
    ?match_all@Regex@Glib@@QEAA_NAEBVustring@2@HW4RegexMatchFlags@2@@Z
    ?match_all@Regex@Glib@@QEAA_NAEBVustring@2@_JHW4RegexMatchFlags@2@@Z
    ?split_simple@Regex@Glib@@SA?AV?$ArrayHandle@Vustring@Glib@@U?$TypeTraits@Vustring@Glib@@@Container_Helpers@2@@2@AEBVustring@2@0W4RegexCompileFlags@2@W4RegexMatchFlags@2@@Z
    ?split@Regex@Glib@@QEAA?AV?$ArrayHandle@Vustring@Glib@@U?$TypeTraits@Vustring@Glib@@@Container_Helpers@2@@2@AEBVustring@2@W4RegexMatchFlags@2@@Z
    ?split@Regex@Glib@@QEBA?AV?$ArrayHandle@Vustring@Glib@@U?$TypeTraits@Vustring@Glib@@@Container_Helpers@2@@2@PEBD_JHW4RegexMatchFlags@2@H@Z
    ?split@Regex@Glib@@QEBA?AV?$ArrayHandle@Vustring@Glib@@U?$TypeTraits@Vustring@Glib@@@Container_Helpers@2@@2@AEBVustring@2@HW4RegexMatchFlags@2@H@Z
    ?replace@Regex@Glib@@QEAA?AVustring@2@PEBD_JHAEBV32@W4RegexMatchFlags@2@@Z
    ?replace@Regex@Glib@@QEAA?AVustring@2@AEBV32@H0W4RegexMatchFlags@2@@Z
    ?replace_literal@Regex@Glib@@QEAA?AVustring@2@PEBD_JHAEBV32@W4RegexMatchFlags@2@@Z
    ?replace_literal@Regex@Glib@@QEAA?AVustring@2@AEBV32@H0W4RegexMatchFlags@2@@Z
    ?replace_eval@Regex@Glib@@QEAA?AVustring@2@AEBV32@_JHW4RegexMatchFlags@2@P6AHPEBU_GMatchInfo@@PEAU_GString@@PEAX@Z5@Z
    ?check_replacement@Regex@Glib@@SA_NAEBVustring@2@PEAH@Z
