LIBRARY giomm-2.4
EXPORTS
    ?action_class_@Action@Gio@@0VAction_Class@2@A
    ?__empty_global_delete@@YAXPEAX@Z
    ?__empty_global_delete@@YAXPEAX_K@Z
    ?name@type_info@@QEBAPEBDXZ
    ?gobj@VariantType@Glib@@QEAAPEAU_GVariantType@@XZ
    ?gobj@VariantBase@Glib@@QEBAPEBU_GVariant@@XZ
    ?get_type@Class@Glib@@QEBA_KXZ
    ?convert_const_gchar_ptr_to_ustring@Glib@@YA?AVustring@1@PEBD@Z
    ?convert_return_gchar_ptr_to_ustring@Glib@@YA?AVustring@1@PEAD@Z
    ??$make_unique_ptr_gfree@D@Glib@@YA?AV?$unique_ptr@$$BY0A@DP6AXPEAX@Z@std@@PEAD@Z
    ??1?$unique_ptr@$$BY0A@DP6AXPEAX@Z@std@@QEAA@XZ
    ?get_deleter@?$unique_ptr@$$BY0A@DP6AXPEAX@Z@std@@QEAAAEAP6AXPEAX@ZXZ
    ?get@?$unique_ptr@$$BY0A@DP6AXPEAX@Z@std@@QEBAPEADXZ
    ?release@?$unique_ptr@$$BY0A@DP6AXPEAX@Z@std@@QEAAPEADXZ
    ?_Get_first@?$_Compressed_pair@P6AXPEAX@ZPEAD$0A@@std@@QEAAAEAP6AXPEAX@ZXZ
    ??0Action@Gio@@IEAA@XZ
    ??0Action@Gio@@IEAA@AEBVInterface_Class@Glib@@@Z
    ??0Action@Gio@@QEAA@PEAU_GAction@@@Z
    ??0Action@Gio@@QEAA@$$QEAV01@@Z
    ??4Action@Gio@@QEAAAEAV01@$$QEAV01@@Z
    ??1Action@Gio@@UEAA@XZ
    ?add_interface@Action@Gio@@SAX_K@Z
    ?get_type@Action@Gio@@SA_KXZ
    ?get_base_type@Action@Gio@@SA_KXZ
    ?gobj@Action@Gio@@QEAAPEAU_GAction@@XZ
    ?gobj@Action@Gio@@QEBAPEBU_GAction@@XZ
    ?get_name@Action@Gio@@QEBA?AVustring@Glib@@XZ
    ?get_parameter_type@Action@Gio@@QEBA?AVVariantType@Glib@@XZ
    ?get_state_type@Action@Gio@@QEBA?AVVariantType@Glib@@XZ
    ?get_state_hint_variant@Action@Gio@@QEBA?AVVariantBase@Glib@@XZ
    ?get_enabled@Action@Gio@@QEBA_NXZ
    ?change_state_variant@Action@Gio@@QEAAXAEBVVariantBase@Glib@@@Z
    ?change_state@Action@Gio@@QEAAXAEBVVariantBase@Glib@@@Z
    ?get_state_variant@Action@Gio@@QEBA?AVVariantBase@Glib@@XZ
    ?activate@Action@Gio@@QEAAXXZ
    ?activate_variant@Action@Gio@@QEAAXAEBVVariantBase@Glib@@@Z
    ?activate@Action@Gio@@QEAAXAEBVVariantBase@Glib@@@Z
    ?name_is_valid@Action@Gio@@SA_NAEBVustring@Glib@@@Z
    ?parse_detailed_name_variant@Action@Gio@@SAXAEBVustring@Glib@@AEAV34@AEAVVariantBase@4@@Z
    ?print_detailed_name_variant@Action@Gio@@SA?AVustring@Glib@@AEBV34@AEBVVariantBase@4@@Z
    ?property_enabled@Action@Gio@@QEBA?AV?$PropertyProxy_ReadOnly@_N@Glib@@XZ
    ?property_name@Action@Gio@@QEBA?AV?$PropertyProxy_ReadOnly@Vustring@Glib@@@Glib@@XZ
    ?property_parameter_type@Action@Gio@@QEBA?AV?$PropertyProxy_ReadOnly@VVariantType@Glib@@@Glib@@XZ
    ?property_state@Action@Gio@@QEBA?AV?$PropertyProxy_ReadOnly@VVariantBase@Glib@@@Glib@@XZ
    ?property_state_type@Action@Gio@@QEBA?AV?$PropertyProxy_ReadOnly@VVariantType@Glib@@@Glib@@XZ
    ?get_name_vfunc@Action@Gio@@UEBA?AVustring@Glib@@XZ
    ?get_parameter_type_vfunc@Action@Gio@@UEBA?AVVariantType@Glib@@XZ
    ?get_state_type_vfunc@Action@Gio@@UEBA?AVVariantType@Glib@@XZ
    ?get_state_hint_vfunc@Action@Gio@@UEBA?AVVariantBase@Glib@@XZ
    ?get_enabled_vfunc@Action@Gio@@UEBA_NXZ
    ?get_state_vfunc@Action@Gio@@UEBA?AVVariantBase@Glib@@XZ
    ?change_state_vfunc@Action@Gio@@UEAAXAEBVVariantBase@Glib@@@Z
    ?activate_vfunc@Action@Gio@@UEAAXAEBVVariantBase@Glib@@@Z
    ??_DAction@Gio@@QEAAXXZ
    ?wrap@Glib@@YA?AV?$RefPtr@VAction@Gio@@@1@PEAU_GAction@@_N@Z
    ?init@Action_Class@Gio@@QEAAAEBVInterface_Class@Glib@@XZ
    ?iface_init_function@Action_Class@Gio@@SAXPEAX0@Z
    ?wrap_new@Action_Class@Gio@@SAPEAVObjectBase@Glib@@PEAU_GObject@@@Z
    ?get_name_vfunc_callback@Action_Class@Gio@@KAPEBDPEAU_GAction@@@Z
    ?get_parameter_type_vfunc_callback@Action_Class@Gio@@KAPEBU_GVariantType@@PEAU_GAction@@@Z
    ?get_state_type_vfunc_callback@Action_Class@Gio@@KAPEBU_GVariantType@@PEAU_GAction@@@Z
    ?get_state_hint_vfunc_callback@Action_Class@Gio@@KAPEAU_GVariant@@PEAU_GAction@@@Z
    ?get_enabled_vfunc_callback@Action_Class@Gio@@KAHPEAU_GAction@@@Z
    ?get_state_vfunc_callback@Action_Class@Gio@@KAPEAU_GVariant@@PEAU_GAction@@@Z
    ?change_state_vfunc_callback@Action_Class@Gio@@KAXPEAU_GAction@@PEAU_GVariant@@@Z
    ?activate_vfunc_callback@Action_Class@Gio@@KAXPEAU_GAction@@PEAU_GVariant@@@Z
    ??1?$RefPtr@VAction@Gio@@@Glib@@QEAA@XZ
    ??0?$RefPtr@VAction@Gio@@@Glib@@QEAA@PEAVAction@Gio@@@Z
    ??$wrap_auto_interface@VAction@Gio@@@Glib@@YAPEAVAction@Gio@@PEAU_GObject@@_N@Z
    ??$destroy_notify_delete@Vustring@Glib@@@Glib@@YAXPEAX@Z
    ??$destroy_notify_delete@VVariantType@Glib@@@Glib@@YAXPEAX@Z
    ??$unwrap_copy@VVariantBase@Glib@@@Glib@@YAPEAU_GVariant@@AEBVVariantBase@0@@Z
    ??$move@AEAVAction@Gio@@@std@@YA$$QEAVAction@Gio@@AEAV12@@Z
    ??0?$PropertyProxy_ReadOnly@_N@Glib@@QEAA@PEBVObjectBase@1@PEBD@Z
    ??0?$PropertyProxy_ReadOnly@Vustring@Glib@@@Glib@@QEAA@PEBVObjectBase@1@PEBD@Z
    ??0?$PropertyProxy_ReadOnly@VVariantType@Glib@@@Glib@@QEAA@PEBVObjectBase@1@PEBD@Z
    ??0?$PropertyProxy_ReadOnly@VVariantBase@Glib@@@Glib@@QEAA@PEBVObjectBase@1@PEBD@Z
    ??$?0PEADP6AXPEAX@Z$0A@$0A@@?$unique_ptr@$$BY0A@DP6AXPEAX@Z@std@@QEAA@PEAD$$QEAP6AXPEAX@Z@Z
    ??$?0P6AXPEAX@Z$0A@@?$unique_ptr@$$BY0A@DP6AXPEAX@Z@std@@QEAA@$$QEAV01@@Z
    ??$move@AEAP6AXPEAX@Z@std@@YA$$QEAP6AXPEAX@ZAEAP6AX0@Z@Z
    ??$?0P6AXPEAX@ZAEAPEAD@?$_Compressed_pair@P6AXPEAX@ZPEAD$0A@@std@@QEAA@U_One_then_variadic_args_t@1@$$QEAP6AXPEAX@ZAEAPEAD@Z
    ??$forward@P6AXPEAX@Z@std@@YA$$QEAP6AXPEAX@ZAEAP6AX0@Z@Z
    ??$?0P6AXPEAX@ZPEAD@?$_Compressed_pair@P6AXPEAX@ZPEAD$0A@@std@@QEAA@U_One_then_variadic_args_t@1@$$QEAP6AXPEAX@Z$$QEAPEAD@Z
    ??$forward@AEAPEAD@std@@YAAEAPEADAEAPEAD@Z
    ??$forward@PEAD@std@@YA$$QEAPEADAEAPEAD@Z
    ??$exchange@PEAD$$T@std@@YAPEADAEAPEAD$$QEA$$T@Z
    ??_7Action@Gio@@6B01@@
    ??_7Action@Gio@@6BInterface@Glib@@@
    ??_8Action@Gio@@7BInterface@Glib@@@
    ??_8Action@Gio@@7BObjectBase@Glib@@@
    ??_C@_0BB@DJDNGIAO@klass?5?$CB?$DN?5nullptr@
    ??_C@_0CH@EKNLINIP@Gio?3?3Action_Class?3?3iface_init_f@
    ??_C@_0BH@ENBGNCCH@?4?4?2gio?2giomm?2action?4cc@
    ??_R0?AVObjectBase@Glib@@@8
    ??_R0?AVAction@Gio@@@8
    ??_C@_0BM@MODEOINL@Gio?3?3Action?3?3get_name_vfunc@
    ??_C@_0CG@INOONEBO@Gio?3?3Action?3?3get_parameter_type@
    ??_C@_0CC@BLGFAFFI@Gio?3?3Action?3?3get_state_type_vfu@
    ??_C@_07MHHIKOPA@enabled@
    ??_C@_04MEMAJGDJ@name@
    ??_C@_0P@FJOMAAAP@parameter?9type@
    ??_C@_05HDBKIDE@state@
    ??_C@_0L@FLLKHOIP@state?9type@
    ??_C@_0FM@MEPOJGMK@Glib?3?3wrap_auto_interface?$CI?$CJ?3?5Th@
    ??_R4Action@Gio@@6B01@@
    ??_R3Action@Gio@@8
    ??_R2Action@Gio@@8
    ??_R1A@?0A@EA@Action@Gio@@8
    ??_R17?0A@EA@Interface@Glib@@8
    ??_R0?AVInterface@Glib@@@8
    ??_R3Interface@Glib@@8
    ??_R2Interface@Glib@@8
    ??_R1A@?0A@EA@Interface@Glib@@8
    ??_R1A@A@7FA@ObjectBase@Glib@@8
    ??_R3ObjectBase@Glib@@8
    ??_R2ObjectBase@Glib@@8
    ??_R1A@?0A@EA@ObjectBase@Glib@@8
    ??_R1A@73FA@trackable@sigc@@8
    ??_R0?AUtrackable@sigc@@@8
    ??_R3trackable@sigc@@8
    ??_R2trackable@sigc@@8
    ??_R1A@?0A@EA@trackable@sigc@@8
    ??_R1A@A@3FA@trackable@sigc@@8
    ??_R1A@77FA@ObjectBase@Glib@@8
    ??_R4Action@Gio@@6BInterface@Glib@@@
    ?actiongroup_class_@ActionGroup@Gio@@0VActionGroup_Class@2@A
    ??_C@_0N@KDCJGEHL@action?9added@
    ??_C@_0BH@LDGEBCEM@action?9enabled?9changed@
    ??_C@_0P@KHFOKDM@action?9removed@
    ??_C@_0BF@CLHALAJJ@action?9state?9changed@
    ?__empty_global_delete@@YAXPEAX@Z
    ?__empty_global_delete@@YAXPEAX_K@Z
    ??2@YAPEAX_KPEAX@Z
    ??0exception@std@@QEAA@QEBDH@Z
    ??0exception@std@@QEAA@AEBV01@@Z
    ??1exception@std@@UEAA@XZ
    ?what@exception@std@@UEBAPEBDXZ
    ??0bad_alloc@std@@AEAA@QEBD@Z
    ??1bad_alloc@std@@UEAA@XZ
    ??0bad_alloc@std@@QEAA@AEBV01@@Z
    ??0bad_array_new_length@std@@QEAA@XZ
    ??1bad_array_new_length@std@@UEAA@XZ
    ??0bad_array_new_length@std@@QEAA@AEBV01@@Z
    ?_Throw_bad_array_new_length@std@@YAXXZ
    ?_Allocate@_Default_allocate_traits@std@@SAPEAX_K@Z
    ?_Adjust_manually_vector_aligned@std@@YAXAEAPEAXAEA_K@Z
    ?_Orphan_all@_Container_base0@std@@QEAAXXZ
    ?_Swap_proxy_and_iterators@_Container_base0@std@@QEAAXAEAU12@@Z
    ?_Alloc_proxy@_Container_base0@std@@QEAAXAEBU_Fake_allocator@2@@Z
    ?_Adopt@_Iterator_base0@std@@QEAAXPEBX@Z
    ??0_Fake_proxy_ptr_impl@std@@QEAA@AEBU_Fake_allocator@1@AEBU_Container_base0@1@@Z
    ?_Release@_Fake_proxy_ptr_impl@std@@QEAAXXZ
    ?name@type_info@@QEBAPEBDXZ
    ?gobj@VariantType@Glib@@QEAAPEAU_GVariantType@@XZ
    ?gobj@VariantBase@Glib@@QEBAPEBU_GVariant@@XZ
    ??1VariantContainerBase@Glib@@QEAA@XZ
    ?get_type@Class@Glib@@QEBA_KXZ
    ?data_to_slot@SignalProxyBase@Glib@@SAPEAVslot_base@sigc@@PEAX@Z
    ?to_c_type@?$TypeTraits@Vustring@Glib@@@Container_Helpers@Glib@@SAPEBDAEBVustring@3@@Z
    ?to_cpp_type@?$TypeTraits@Vustring@Glib@@@Container_Helpers@Glib@@SA?AVustring@3@PEBD@Z
    ?release_c_type@?$TypeTraits@Vustring@Glib@@@Container_Helpers@Glib@@SAXPEBD@Z
    ?convert_const_gchar_ptr_to_ustring@Glib@@YA?AVustring@1@PEBD@Z
    ??0ActionGroup@Gio@@IEAA@XZ
    ??0ActionGroup@Gio@@IEAA@AEBVInterface_Class@Glib@@@Z
    ??0ActionGroup@Gio@@QEAA@PEAU_GActionGroup@@@Z
    ??0ActionGroup@Gio@@QEAA@$$QEAV01@@Z
    ??4ActionGroup@Gio@@QEAAAEAV01@$$QEAV01@@Z
    ??1ActionGroup@Gio@@UEAA@XZ
    ?add_interface@ActionGroup@Gio@@SAX_K@Z
    ?get_type@ActionGroup@Gio@@SA_KXZ
    ?get_base_type@ActionGroup@Gio@@SA_KXZ
    ?gobj@ActionGroup@Gio@@QEAAPEAU_GActionGroup@@XZ
    ?gobj@ActionGroup@Gio@@QEBAPEBU_GActionGroup@@XZ
    ?has_action@ActionGroup@Gio@@QEBA_NAEBVustring@Glib@@@Z
    ?list_actions@ActionGroup@Gio@@QEBA?AV?$vector@Vustring@Glib@@V?$allocator@Vustring@Glib@@@std@@@std@@XZ
    ?query_action@ActionGroup@Gio@@QEAA_NAEBVustring@Glib@@AEA_NAEAVVariantType@4@AEAVVariantBase@4@23@Z
    ?query_action@ActionGroup@Gio@@QEAA_NAEBVustring@Glib@@AEA_NAEAVVariantType@4@AEAVVariantBase@4@2@Z
    ?query_action@ActionGroup@Gio@@QEAA_NAEBVustring@Glib@@AEA_NAEAVVariantType@4@AEAVVariantBase@4@3@Z
    ?query_action@ActionGroup@Gio@@QEAA_NAEBVustring@Glib@@AEA_NAEAVVariantType@4@AEAVVariantBase@4@@Z
    ?query_action@ActionGroup@Gio@@QEAA_NAEBVustring@Glib@@AEA_NAEAVVariantBase@4@AEAVVariantType@4@2@Z
    ?query_action@ActionGroup@Gio@@QEAA_NAEBVustring@Glib@@AEA_NAEAVVariantBase@4@AEAVVariantType@4@@Z
    ?query_action@ActionGroup@Gio@@QEAA_NAEBVustring@Glib@@AEA_NAEAVVariantBase@4@2@Z
    ?query_action@ActionGroup@Gio@@QEAA_NAEBVustring@Glib@@AEA_NAEAVVariantBase@4@@Z
    ?get_action_enabled@ActionGroup@Gio@@QEBA_NAEBVustring@Glib@@@Z
    ?get_action_parameter_type@ActionGroup@Gio@@QEBA?AVVariantType@Glib@@AEBVustring@4@@Z
    ?get_action_state_type@ActionGroup@Gio@@QEBA?AVVariantType@Glib@@AEBVustring@4@@Z
    ?get_action_state_hint@ActionGroup@Gio@@QEBA?AVVariantContainerBase@Glib@@AEBVustring@4@@Z
    ?get_action_state_hint_variant@ActionGroup@Gio@@QEBA?AVVariantContainerBase@Glib@@AEBVustring@4@@Z
    ?get_action_state@ActionGroup@Gio@@QEBA?AVVariantBase@Glib@@AEBVustring@4@@Z
    ?get_action_state_variant@ActionGroup@Gio@@QEBA?AVVariantBase@Glib@@AEBVustring@4@@Z
    ?change_action_state@ActionGroup@Gio@@QEAAXAEBVustring@Glib@@AEBVVariantBase@4@@Z
    ?activate_action@ActionGroup@Gio@@QEAAXAEBVustring@Glib@@AEBVVariantBase@4@@Z
    ?activate_action@ActionGroup@Gio@@QEAAXAEBVustring@Glib@@@Z
    ?action_added@ActionGroup@Gio@@QEAAXAEBVustring@Glib@@@Z
    ?action_removed@ActionGroup@Gio@@QEAAXAEBVustring@Glib@@@Z
    ?action_enabled_changed@ActionGroup@Gio@@QEAAXAEBVustring@Glib@@_N@Z
    ?action_state_changed@ActionGroup@Gio@@QEAAXAEBVustring@Glib@@AEBVVariantBase@4@@Z
    ?signal_action_added@ActionGroup@Gio@@QEAA?AV?$SignalProxy@XAEBVustring@Glib@@@Glib@@XZ
    ?signal_action_added@ActionGroup@Gio@@QEAA?AV?$SignalProxyDetailedAnyType@XAEBVustring@Glib@@@Glib@@AEBVustring@4@@Z
    ?signal_action_enabled_changed@ActionGroup@Gio@@QEAA?AV?$SignalProxy@XAEBVustring@Glib@@_N@Glib@@XZ
    ?signal_action_enabled_changed@ActionGroup@Gio@@QEAA?AV?$SignalProxyDetailedAnyType@XAEBVustring@Glib@@_N@Glib@@AEBVustring@4@@Z
    ?signal_action_removed@ActionGroup@Gio@@QEAA?AV?$SignalProxy@XAEBVustring@Glib@@@Glib@@XZ
    ?signal_action_removed@ActionGroup@Gio@@QEAA?AV?$SignalProxyDetailedAnyType@XAEBVustring@Glib@@@Glib@@AEBVustring@4@@Z
    ?signal_action_state_changed@ActionGroup@Gio@@QEAA?AV?$SignalProxy@XAEBVustring@Glib@@AEBVVariantBase@2@@Glib@@XZ
    ?signal_action_state_changed@ActionGroup@Gio@@QEAA?AV?$SignalProxyDetailedAnyType@XAEBVustring@Glib@@AEBVVariantBase@2@@Glib@@AEBVustring@4@@Z
    ?has_action_vfunc@ActionGroup@Gio@@UEBA_NAEBVustring@Glib@@@Z
    ?list_actions_vfunc@ActionGroup@Gio@@UEBA?AV?$vector@Vustring@Glib@@V?$allocator@Vustring@Glib@@@std@@@std@@XZ
    ?get_action_enabled_vfunc@ActionGroup@Gio@@UEBA_NAEBVustring@Glib@@@Z
    ?get_action_parameter_type_vfunc@ActionGroup@Gio@@UEBA?AVVariantType@Glib@@AEBVustring@4@@Z
    ?get_action_state_type_vfunc@ActionGroup@Gio@@UEBA?AVVariantType@Glib@@AEBVustring@4@@Z
    ?get_action_state_hint_vfunc@ActionGroup@Gio@@UEBA?AVVariantBase@Glib@@AEBVustring@4@@Z
    ?get_action_state_vfunc@ActionGroup@Gio@@UEBA?AVVariantBase@Glib@@AEBVustring@4@@Z
    ?change_action_state_vfunc@ActionGroup@Gio@@UEAAXAEBVustring@Glib@@AEBVVariantBase@4@@Z
    ?activate_action_vfunc@ActionGroup@Gio@@UEAAXAEBVustring@Glib@@AEBVVariantBase@4@@Z
    ?on_action_added@ActionGroup@Gio@@MEAAXAEBVustring@Glib@@@Z
    ?on_action_enabled_changed@ActionGroup@Gio@@MEAAXAEBVustring@Glib@@_N@Z
    ?on_action_removed@ActionGroup@Gio@@MEAAXAEBVustring@Glib@@@Z
    ?on_action_state_changed@ActionGroup@Gio@@MEAAXAEBVustring@Glib@@AEBVVariantBase@4@@Z
    ??_DActionGroup@Gio@@QEAAXXZ
    ?wrap@Glib@@YA?AV?$RefPtr@VActionGroup@Gio@@@1@PEAU_GActionGroup@@_N@Z
    ?init@ActionGroup_Class@Gio@@QEAAAEBVInterface_Class@Glib@@XZ
    ?iface_init_function@ActionGroup_Class@Gio@@SAXPEAX0@Z
    ?wrap_new@ActionGroup_Class@Gio@@SAPEAVObjectBase@Glib@@PEAU_GObject@@@Z
    ?action_added_callback@ActionGroup_Class@Gio@@KAXPEAU_GActionGroup@@PEBD@Z
    ?action_enabled_changed_callback@ActionGroup_Class@Gio@@KAXPEAU_GActionGroup@@PEBDH@Z
    ?action_removed_callback@ActionGroup_Class@Gio@@KAXPEAU_GActionGroup@@PEBD@Z
    ?action_state_changed_callback@ActionGroup_Class@Gio@@KAXPEAU_GActionGroup@@PEBDPEAU_GVariant@@@Z
    ?has_action_vfunc_callback@ActionGroup_Class@Gio@@KAHPEAU_GActionGroup@@PEBD@Z
    ?list_actions_vfunc_callback@ActionGroup_Class@Gio@@KAPEAPEADPEAU_GActionGroup@@@Z
    ?get_action_enabled_vfunc_callback@ActionGroup_Class@Gio@@KAHPEAU_GActionGroup@@PEBD@Z
    ?get_action_parameter_type_vfunc_callback@ActionGroup_Class@Gio@@KAPEBU_GVariantType@@PEAU_GActionGroup@@PEBD@Z
    ?get_action_state_type_vfunc_callback@ActionGroup_Class@Gio@@KAPEBU_GVariantType@@PEAU_GActionGroup@@PEBD@Z
    ?get_action_state_hint_vfunc_callback@ActionGroup_Class@Gio@@KAPEAU_GVariant@@PEAU_GActionGroup@@PEBD@Z
    ?get_action_state_vfunc_callback@ActionGroup_Class@Gio@@KAPEAU_GVariant@@PEAU_GActionGroup@@PEBD@Z
    ?change_action_state_vfunc_callback@ActionGroup_Class@Gio@@KAXPEAU_GActionGroup@@PEBDPEAU_GVariant@@@Z
    ?activate_action_vfunc_callback@ActionGroup_Class@Gio@@KAXPEAU_GActionGroup@@PEBDPEAU_GVariant@@@Z
    ??R?$slot1@XAEBVustring@Glib@@@sigc@@QEBAXAEBVustring@Glib@@@Z
    ??R?$slot2@XAEBVustring@Glib@@_N@sigc@@QEBAXAEBVustring@Glib@@AEB_N@Z
    ??R?$slot2@XAEBVustring@Glib@@AEBVVariantBase@2@@sigc@@QEBAXAEBVustring@Glib@@AEBVVariantBase@3@@Z
    ??1?$RefPtr@VActionGroup@Gio@@@Glib@@QEAA@XZ
    ??0?$RefPtr@VActionGroup@Gio@@@Glib@@QEAA@PEAVActionGroup@Gio@@@Z
    ??$wrap_auto_interface@VActionGroup@Gio@@@Glib@@YAPEAVActionGroup@Gio@@PEAU_GObject@@_N@Z
    ?array_to_vector@?$ArrayHandler@Vustring@Glib@@U?$TypeTraits@Vustring@Glib@@@Container_Helpers@2@@Glib@@SA?AV?$vector@Vustring@Glib@@V?$allocator@Vustring@Glib@@@std@@@std@@PEBQEBD_KW4OwnershipType@2@@Z
    ?array_to_vector@?$ArrayHandler@Vustring@Glib@@U?$TypeTraits@Vustring@Glib@@@Container_Helpers@2@@Glib@@SA?AV?$vector@Vustring@Glib@@V?$allocator@Vustring@Glib@@@std@@@std@@PEBQEBDW4OwnershipType@2@@Z
    ?vector_to_array@?$ArrayHandler@Vustring@Glib@@U?$TypeTraits@Vustring@Glib@@@Container_Helpers@2@@Glib@@SA?AV?$ArrayKeeper@U?$TypeTraits@Vustring@Glib@@@Container_Helpers@Glib@@@Container_Helpers@2@AEBV?$vector@Vustring@Glib@@V?$allocator@Vustring@Glib@@@std@@@std@@@Z
    ??0?$allocator@Vustring@Glib@@@std@@QEAA@XZ
    ?deallocate@?$allocator@Vustring@Glib@@@std@@QEAAXQEAVustring@Glib@@_K@Z
    ?allocate@?$allocator@Vustring@Glib@@@std@@QEAAPEAVustring@Glib@@_K@Z
    ?max_size@?$_Default_allocator_traits@V?$allocator@Vustring@Glib@@@std@@@std@@SA_KAEBV?$allocator@Vustring@Glib@@@2@@Z
    ??0?$vector@Vustring@Glib@@V?$allocator@Vustring@Glib@@@std@@@std@@QEAA@XZ
    ??0?$vector@Vustring@Glib@@V?$allocator@Vustring@Glib@@@std@@@std@@QEAA@$$QEAV01@@Z
    ??1?$vector@Vustring@Glib@@V?$allocator@Vustring@Glib@@@std@@@std@@QEAA@XZ
    ?begin@?$vector@Vustring@Glib@@V?$allocator@Vustring@Glib@@@std@@@std@@QEBA?AV?$_Vector_const_iterator@V?$_Vector_val@U?$_Simple_types@Vustring@Glib@@@std@@@std@@@2@XZ
    ?size@?$vector@Vustring@Glib@@V?$allocator@Vustring@Glib@@@std@@@std@@QEBA_KXZ
    ?max_size@?$vector@Vustring@Glib@@V?$allocator@Vustring@Glib@@@std@@@std@@QEBA_KXZ
    ?_Buy_raw@?$vector@Vustring@Glib@@V?$allocator@Vustring@Glib@@@std@@@std@@AEAAX_K@Z
    ?_Buy_nonzero@?$vector@Vustring@Glib@@V?$allocator@Vustring@Glib@@@std@@@std@@AEAAX_K@Z
    ?_Tidy@?$vector@Vustring@Glib@@V?$allocator@Vustring@Glib@@@std@@@std@@AEAAXXZ
    ?_Xlength@?$vector@Vustring@Glib@@V?$allocator@Vustring@Glib@@@std@@@std@@CAXXZ
    ?_Getal@?$vector@Vustring@Glib@@V?$allocator@Vustring@Glib@@@std@@@std@@AEAAAEAV?$allocator@Vustring@Glib@@@2@XZ
    ?_Getal@?$vector@Vustring@Glib@@V?$allocator@Vustring@Glib@@@std@@@std@@AEBAAEBV?$allocator@Vustring@Glib@@@2@XZ
    ??0?$_Vector_val@U?$_Simple_types@Vustring@Glib@@@std@@@std@@QEAA@XZ
    ??0?$_Vector_val@U?$_Simple_types@Vustring@Glib@@@std@@@std@@QEAA@PEAVustring@Glib@@00@Z
    ?_Get_first@?$_Compressed_pair@V?$allocator@Vustring@Glib@@@std@@V?$_Vector_val@U?$_Simple_types@Vustring@Glib@@@std@@@2@$00@std@@QEAAAEAV?$allocator@Vustring@Glib@@@2@XZ
    ?_Get_first@?$_Compressed_pair@V?$allocator@Vustring@Glib@@@std@@V?$_Vector_val@U?$_Simple_types@Vustring@Glib@@@std@@@2@$00@std@@QEBAAEBV?$allocator@Vustring@Glib@@@2@XZ
    ??0?$ArrayKeeper@U?$TypeTraits@Vustring@Glib@@@Container_Helpers@Glib@@@Container_Helpers@Glib@@QEAA@PEBQEBD_KW4OwnershipType@2@@Z
    ??1?$ArrayKeeper@U?$TypeTraits@Vustring@Glib@@@Container_Helpers@Glib@@@Container_Helpers@Glib@@QEAA@XZ
    ?data@?$ArrayKeeper@U?$TypeTraits@Vustring@Glib@@@Container_Helpers@Glib@@@Container_Helpers@Glib@@QEBAPEAPEBDXZ
    ??$destroy_notify_delete@VVariantType@Glib@@@Glib@@YAXPEAX@Z
    ??$unwrap_copy@VVariantBase@Glib@@@Glib@@YAPEAU_GVariant@@AEBVVariantBase@0@@Z
    ??$move@AEAVActionGroup@Gio@@@std@@YA$$QEAVActionGroup@Gio@@AEAV12@@Z
    ??0?$SignalProxy@XAEBVustring@Glib@@@Glib@@QEAA@PEAVObjectBase@1@PEBUSignalProxyInfo@1@@Z
    ??1?$SignalProxy@XAEBVustring@Glib@@@Glib@@QEAA@XZ
    ??0?$SignalProxyDetailedAnyType@XAEBVustring@Glib@@@Glib@@QEAA@PEAVObjectBase@1@PEBUSignalProxyInfo@1@AEBVustring@1@@Z
    ??1?$SignalProxyDetailedAnyType@XAEBVustring@Glib@@@Glib@@QEAA@XZ
    ??0?$SignalProxy@XAEBVustring@Glib@@_N@Glib@@QEAA@PEAVObjectBase@1@PEBUSignalProxyInfo@1@@Z
    ??1?$SignalProxy@XAEBVustring@Glib@@_N@Glib@@QEAA@XZ
    ??0?$SignalProxyDetailedAnyType@XAEBVustring@Glib@@_N@Glib@@QEAA@PEAVObjectBase@1@PEBUSignalProxyInfo@1@AEBVustring@1@@Z
    ??1?$SignalProxyDetailedAnyType@XAEBVustring@Glib@@_N@Glib@@QEAA@XZ
    ??0?$SignalProxy@XAEBVustring@Glib@@AEBVVariantBase@2@@Glib@@QEAA@PEAVObjectBase@1@PEBUSignalProxyInfo@1@@Z
    ??1?$SignalProxy@XAEBVustring@Glib@@AEBVVariantBase@2@@Glib@@QEAA@XZ
    ??0?$SignalProxyDetailedAnyType@XAEBVustring@Glib@@AEBVVariantBase@2@@Glib@@QEAA@PEAVObjectBase@1@PEBUSignalProxyInfo@1@AEBVustring@1@@Z
    ??1?$SignalProxyDetailedAnyType@XAEBVustring@Glib@@AEBVVariantBase@2@@Glib@@QEAA@XZ
    ??$min@_K@std@@YAAEB_KAEB_K0@Z
    ??$compute_array_size2@PEBD@Container_Helpers@Glib@@YA_KPEBQEBD@Z
    ??0?$_Vector_const_iterator@V?$_Vector_val@U?$_Simple_types@Vustring@Glib@@@std@@@std@@@std@@QEAA@PEAVustring@Glib@@PEBU_Container_base0@1@@Z
    ??D?$_Vector_const_iterator@V?$_Vector_val@U?$_Simple_types@Vustring@Glib@@@std@@@std@@@std@@QEBAAEBVustring@Glib@@XZ
    ??E?$_Vector_const_iterator@V?$_Vector_val@U?$_Simple_types@Vustring@Glib@@@std@@@std@@@std@@QEAAAEAV01@XZ
    ??$create_array@U?$TypeTraits@Vustring@Glib@@@Container_Helpers@Glib@@@Container_Helpers@Glib@@YAPEAPEBDV?$_Vector_const_iterator@V?$_Vector_val@U?$_Simple_types@Vustring@Glib@@@std@@@std@@@std@@_K@Z
    ??$function_pointer_cast@P6AXPEAUslot_rep@internal@sigc@@AEBVustring@Glib@@AEBVVariantBase@5@@ZP6APEAXPEAX@Z@internal@sigc@@YAP6AXPEAUslot_rep@01@AEBVustring@Glib@@AEBVVariantBase@4@@ZP6APEAXPEAX@Z@Z
    ??$function_pointer_cast@P6AXPEAUslot_rep@internal@sigc@@AEBVustring@Glib@@AEB_N@ZP6APEAXPEAX@Z@internal@sigc@@YAP6AXPEAUslot_rep@01@AEBVustring@Glib@@AEB_N@ZP6APEAXPEAX@Z@Z
    ??$function_pointer_cast@P6AXPEAUslot_rep@internal@sigc@@AEBVustring@Glib@@@ZP6APEAXPEAX@Z@internal@sigc@@YAP6AXPEAUslot_rep@01@AEBVustring@Glib@@@ZP6APEAXPEAX@Z@Z
    ??$move@AEAV?$allocator@Vustring@Glib@@@std@@@std@@YA$$QEAV?$allocator@Vustring@Glib@@@0@AEAV10@@Z
    ??$exchange@PEAVustring@Glib@@$$T@std@@YAPEAVustring@Glib@@AEAPEAV12@$$QEA$$T@Z
    ??$?0V?$allocator@Vustring@Glib@@@std@@PEAVustring@Glib@@PEAV23@PEAV23@@?$_Compressed_pair@V?$allocator@Vustring@Glib@@@std@@V?$_Vector_val@U?$_Simple_types@Vustring@Glib@@@std@@@2@$00@std@@QEAA@U_One_then_variadic_args_t@1@$$QEAV?$allocator@Vustring@Glib@@@1@$$QEAPEAVustring@Glib@@22@Z
    ??$?0$$V@?$_Compressed_pair@V?$allocator@Vustring@Glib@@@std@@V?$_Vector_val@U?$_Simple_types@Vustring@Glib@@@std@@@2@$00@std@@QEAA@U_Zero_then_variadic_args_t@1@@Z
    ??$_Convert_size@_K_K@std@@YA_K_K@Z
    ??$forward@V?$allocator@Vustring@Glib@@@std@@@std@@YA$$QEAV?$allocator@Vustring@Glib@@@0@AEAV10@@Z
    ??$forward@PEAVustring@Glib@@@std@@YA$$QEAPEAVustring@Glib@@AEAPEAV12@@Z
    ??0?$ArrayIterator@U?$TypeTraits@Vustring@Glib@@@Container_Helpers@Glib@@@Container_Helpers@Glib@@QEAA@PEBQEBD@Z
    ??D?$ArrayIterator@U?$TypeTraits@Vustring@Glib@@@Container_Helpers@Glib@@@Container_Helpers@Glib@@QEBA?AVustring@2@XZ
    ??E?$ArrayIterator@U?$TypeTraits@Vustring@Glib@@@Container_Helpers@Glib@@@Container_Helpers@Glib@@QEAAAEAV012@XZ
    ??G?$ArrayIterator@U?$TypeTraits@Vustring@Glib@@@Container_Helpers@Glib@@@Container_Helpers@Glib@@QEBA_JAEBV012@@Z
    ??9?$ArrayIterator@U?$TypeTraits@Vustring@Glib@@@Container_Helpers@Glib@@@Container_Helpers@Glib@@QEBA_NAEBV012@@Z
    ??$?0V?$ArrayIterator@U?$TypeTraits@Vustring@Glib@@@Container_Helpers@Glib@@@Container_Helpers@Glib@@$0A@@?$vector@Vustring@Glib@@V?$allocator@Vustring@Glib@@@std@@@std@@QEAA@V?$ArrayIterator@U?$TypeTraits@Vustring@Glib@@@Container_Helpers@Glib@@@Container_Helpers@Glib@@0AEBV?$allocator@Vustring@Glib@@@1@@Z
    ??$_Destroy_range@V?$allocator@Vustring@Glib@@@std@@@std@@YAXPEAVustring@Glib@@QEAV12@AEAV?$allocator@Vustring@Glib@@@0@@Z
    ??$addressof@$$CBV?$_Vector_val@U?$_Simple_types@Vustring@Glib@@@std@@@std@@@std@@YAPEBV?$_Vector_val@U?$_Simple_types@Vustring@Glib@@@std@@@0@AEBV10@@Z
    ??$_Deallocate@$0BA@@std@@YAXPEAX_K@Z
    ??$?0AEBV?$allocator@Vustring@Glib@@@std@@$$V@?$_Compressed_pair@V?$allocator@Vustring@Glib@@@std@@V?$_Vector_val@U?$_Simple_types@Vustring@Glib@@@std@@@2@$00@std@@QEAA@U_One_then_variadic_args_t@1@AEBV?$allocator@Vustring@Glib@@@1@@Z
    ??$_Adl_verify_range@V?$ArrayIterator@U?$TypeTraits@Vustring@Glib@@@Container_Helpers@Glib@@@Container_Helpers@Glib@@V123@@std@@YAXAEBV?$ArrayIterator@U?$TypeTraits@Vustring@Glib@@@Container_Helpers@Glib@@@Container_Helpers@Glib@@0@Z
    ??$_Get_unwrapped@AEAV?$ArrayIterator@U?$TypeTraits@Vustring@Glib@@@Container_Helpers@Glib@@@Container_Helpers@Glib@@@std@@YA?A_TAEAV?$ArrayIterator@U?$TypeTraits@Vustring@Glib@@@Container_Helpers@Glib@@@Container_Helpers@Glib@@@Z
    ??$distance@V?$ArrayIterator@U?$TypeTraits@Vustring@Glib@@@Container_Helpers@Glib@@@Container_Helpers@Glib@@@std@@YA_JV?$ArrayIterator@U?$TypeTraits@Vustring@Glib@@@Container_Helpers@Glib@@@Container_Helpers@Glib@@0@Z
    ??$move@AEAV?$ArrayIterator@U?$TypeTraits@Vustring@Glib@@@Container_Helpers@Glib@@@Container_Helpers@Glib@@@std@@YA$$QEAV?$ArrayIterator@U?$TypeTraits@Vustring@Glib@@@Container_Helpers@Glib@@@Container_Helpers@Glib@@AEAV123@@Z
    ??$_Construct_n@V?$ArrayIterator@U?$TypeTraits@Vustring@Glib@@@Container_Helpers@Glib@@@Container_Helpers@Glib@@V123@@?$vector@Vustring@Glib@@V?$allocator@Vustring@Glib@@@std@@@std@@AEAAX_K$$QEAV?$ArrayIterator@U?$TypeTraits@Vustring@Glib@@@Container_Helpers@Glib@@@Container_Helpers@Glib@@1@Z
    ??$_Unfancy@Vustring@Glib@@@std@@YAPEAVustring@Glib@@PEAV12@@Z
    ??$destroy@Vustring@Glib@@@?$_Default_allocator_traits@V?$allocator@Vustring@Glib@@@std@@@std@@SAXAEAV?$allocator@Vustring@Glib@@@1@QEAVustring@Glib@@@Z
    ??$_Get_size_of_n@$0CA@@std@@YA_K_K@Z
    ??$_Allocate@$0BA@U_Default_allocate_traits@std@@@std@@YAPEAX_K@Z
    ??$_Max_limit@_J@std@@YA_JXZ
    ??$forward@AEBV?$allocator@Vustring@Glib@@@std@@@std@@YAAEBV?$allocator@Vustring@Glib@@@0@AEBV10@@Z
    ??1?$_Tidy_guard@V?$vector@Vustring@Glib@@V?$allocator@Vustring@Glib@@@std@@@std@@@std@@QEAA@XZ
    ??$forward@V?$ArrayIterator@U?$TypeTraits@Vustring@Glib@@@Container_Helpers@Glib@@@Container_Helpers@Glib@@@std@@YA$$QEAV?$ArrayIterator@U?$TypeTraits@Vustring@Glib@@@Container_Helpers@Glib@@@Container_Helpers@Glib@@AEAV123@@Z
    ??$_Uninitialized_copy@V?$ArrayIterator@U?$TypeTraits@Vustring@Glib@@@Container_Helpers@Glib@@@Container_Helpers@Glib@@V123@V?$allocator@Vustring@Glib@@@std@@@std@@YAPEAVustring@Glib@@V?$ArrayIterator@U?$TypeTraits@Vustring@Glib@@@Container_Helpers@Glib@@@Container_Helpers@2@0PEAV12@AEAV?$allocator@Vustring@Glib@@@0@@Z
    ??$_Allocate_manually_vector_aligned@U_Default_allocate_traits@std@@@std@@YAPEAX_K@Z
    ??$_Get_unwrapped@V?$ArrayIterator@U?$TypeTraits@Vustring@Glib@@@Container_Helpers@Glib@@@Container_Helpers@Glib@@@std@@YA?A_T$$QEAV?$ArrayIterator@U?$TypeTraits@Vustring@Glib@@@Container_Helpers@Glib@@@Container_Helpers@Glib@@@Z
    ??0?$_Uninitialized_backout_al@V?$allocator@Vustring@Glib@@@std@@@std@@QEAA@PEAVustring@Glib@@AEAV?$allocator@Vustring@Glib@@@1@@Z
    ??1?$_Uninitialized_backout_al@V?$allocator@Vustring@Glib@@@std@@@std@@QEAA@XZ
    ?_Release@?$_Uninitialized_backout_al@V?$allocator@Vustring@Glib@@@std@@@std@@QEAAPEAVustring@Glib@@XZ
    ??$_Emplace_back@Vustring@Glib@@@?$_Uninitialized_backout_al@V?$allocator@Vustring@Glib@@@std@@@std@@QEAAX$$QEAVustring@Glib@@@Z
    ??$forward@Vustring@Glib@@@std@@YA$$QEAVustring@Glib@@AEAV12@@Z
    ??$construct@Vustring@Glib@@V12@@?$_Default_allocator_traits@V?$allocator@Vustring@Glib@@@std@@@std@@SAXAEAV?$allocator@Vustring@Glib@@@1@QEAVustring@Glib@@$$QEAV34@@Z
    ??$_Allocate_at_least_helper@V?$allocator@Vustring@Glib@@@std@@@std@@YAPEAVustring@Glib@@AEAV?$allocator@Vustring@Glib@@@0@AEA_K@Z
    ??_7exception@std@@6B@
    ??_C@_0BC@EOODALEL@Unknown?5exception@
    ??_7bad_alloc@std@@6B@
    ??_7bad_array_new_length@std@@6B@
    ??_C@_0BF@KINCDENJ@bad?5array?5new?5length@
    ??_R0?AVexception@std@@@8
    _CT??_R0?AVexception@std@@@8??0exception@std@@QEAA@AEBV01@@Z24
    _TI3?AVbad_array_new_length@std@@
    _CTA3?AVbad_array_new_length@std@@
    ??_R0?AVbad_array_new_length@std@@@8
    _CT??_R0?AVbad_array_new_length@std@@@8??0bad_array_new_length@std@@QEAA@AEBV01@@Z24
    ??_R0?AVbad_alloc@std@@@8
    _CT??_R0?AVbad_alloc@std@@@8??0bad_alloc@std@@QEAA@AEBV01@@Z24
    ??_7ActionGroup@Gio@@6B01@@
    ??_7ActionGroup@Gio@@6BInterface@Glib@@@
    ??_8ActionGroup@Gio@@7BInterface@Glib@@@
    ??_8ActionGroup@Gio@@7BObjectBase@Glib@@@
    ??_R0?AVObjectBase@Glib@@@8
    ??_R0?AVActionGroup@Gio@@@8
    ??_C@_0BB@DJDNGIAO@klass?5?$CB?$DN?5nullptr@
    ??_C@_0CM@KEFIHMPJ@Gio?3?3ActionGroup_Class?3?3iface_i@
    ??_C@_0BM@EBNBGLLM@?4?4?2gio?2giomm?2actiongroup?4cc@
    ??_C@_0DC@JBKMIBJE@Gio?3?3ActionGroup?3?3get_action_pa@
    ??_C@_0CO@MJLEFLMN@Gio?3?3ActionGroup?3?3get_action_st@
    ??_C@_0FM@MEPOJGMK@Glib?3?3wrap_auto_interface?$CI?$CJ?3?5Th@
    ??_C@_0BA@FOIKENOD@vector?5too?5long@
    ??_R4exception@std@@6B@
    ??_R3exception@std@@8
    ??_R2exception@std@@8
    ??_R1A@?0A@EA@exception@std@@8
    ??_R4bad_array_new_length@std@@6B@
    ??_R3bad_array_new_length@std@@8
    ??_R2bad_array_new_length@std@@8
    ??_R1A@?0A@EA@bad_array_new_length@std@@8
    ??_R1A@?0A@EA@bad_alloc@std@@8
    ??_R3bad_alloc@std@@8
    ??_R2bad_alloc@std@@8
    ??_R4bad_alloc@std@@6B@
    ??_R4ActionGroup@Gio@@6B01@@
    ??_R3ActionGroup@Gio@@8
    ??_R2ActionGroup@Gio@@8
    ??_R1A@?0A@EA@ActionGroup@Gio@@8
    ??_R17?0A@EA@Interface@Glib@@8
    ??_R0?AVInterface@Glib@@@8
    ??_R3Interface@Glib@@8
    ??_R2Interface@Glib@@8
    ??_R1A@?0A@EA@Interface@Glib@@8
    ??_R1A@A@7FA@ObjectBase@Glib@@8
    ??_R3ObjectBase@Glib@@8
    ??_R2ObjectBase@Glib@@8
    ??_R1A@?0A@EA@ObjectBase@Glib@@8
    ??_R1A@73FA@trackable@sigc@@8
    ??_R0?AUtrackable@sigc@@@8
    ??_R3trackable@sigc@@8
    ??_R2trackable@sigc@@8
    ??_R1A@?0A@EA@trackable@sigc@@8
    ??_R1A@A@3FA@trackable@sigc@@8
    ??_R1A@77FA@ObjectBase@Glib@@8
    ??_R4ActionGroup@Gio@@6BInterface@Glib@@@
    ?actionmap_class_@ActionMap@Gio@@0VActionMap_Class@2@A
    ?__empty_global_delete@@YAXPEAX@Z
    ?__empty_global_delete@@YAXPEAX_K@Z
    ??0exception@std@@QEAA@QEBDH@Z
    ??0exception@std@@QEAA@AEBV01@@Z
    ??1exception@std@@UEAA@XZ
    ?what@exception@std@@UEBAPEBDXZ
    ?name@type_info@@QEBAPEBDXZ
    ??0bad_cast@std@@QEAA@XZ
    ??1bad_cast@std@@UEAA@XZ
    ??0bad_cast@std@@QEAA@AEBV01@@Z
    ??$function_pointer_cast@P6AXPEAUslot_rep@internal@sigc@@@ZP6APEAXPEAX@Z@internal@sigc@@YAP6AXPEAUslot_rep@01@@ZP6APEAXPEAX@Z@Z
    ?gobj@VariantBase@Glib@@QEBAPEBU_GVariant@@XZ
    ??1VariantStringBase@Glib@@QEAA@XZ
    ??1?$Variant@Vustring@Glib@@@Glib@@QEAA@XZ
    ??0?$Variant@H@Glib@@QEAA@XZ
    ??0?$Variant@H@Glib@@QEAA@PEAU_GVariant@@_N@Z
    ??1?$Variant@H@Glib@@QEAA@XZ
    ?get_type@Class@Glib@@QEBA_KXZ
    ?convert_const_gchar_ptr_to_ustring@Glib@@YA?AVustring@1@PEBD@Z
    ??R?$slot0@X@sigc@@QEBAXXZ
    ??0?$slot0@X@sigc@@QEAA@AEBV01@@Z
    ??1?$slot0@X@sigc@@QEAA@XZ
    ??0?$slot@XUnil@sigc@@U12@U12@U12@U12@U12@U12@@sigc@@QEAA@AEBV01@@Z
    ??1?$slot@XUnil@sigc@@U12@U12@U12@U12@U12@U12@@sigc@@QEAA@XZ
    ?gobj@Action@Gio@@QEAAPEAU_GAction@@XZ
    ??0ActionMap@Gio@@IEAA@XZ
    ??0ActionMap@Gio@@IEAA@AEBVInterface_Class@Glib@@@Z
    ??0ActionMap@Gio@@QEAA@PEAU_GActionMap@@@Z
    ??0ActionMap@Gio@@QEAA@$$QEAV01@@Z
    ??4ActionMap@Gio@@QEAAAEAV01@$$QEAV01@@Z
    ??1ActionMap@Gio@@UEAA@XZ
    ?add_interface@ActionMap@Gio@@SAX_K@Z
    ?get_type@ActionMap@Gio@@SA_KXZ
    ?get_base_type@ActionMap@Gio@@SA_KXZ
    ?gobj@ActionMap@Gio@@QEAAPEAU_GActionMap@@XZ
    ?gobj@ActionMap@Gio@@QEBAPEBU_GActionMap@@XZ
    ?add_action@ActionMap@Gio@@QEAAXAEBV?$RefPtr@VAction@Gio@@@Glib@@@Z
    ?remove_action@ActionMap@Gio@@QEAAXAEBVustring@Glib@@@Z
    ?lookup_action@ActionMap@Gio@@QEAA?AV?$RefPtr@VAction@Gio@@@Glib@@AEBVustring@4@@Z
    ?lookup_action@ActionMap@Gio@@QEBA?AV?$RefPtr@$$CBVAction@Gio@@@Glib@@AEBVustring@4@@Z
    ?add_action@ActionMap@Gio@@QEAA?AV?$RefPtr@VSimpleAction@Gio@@@Glib@@AEBVustring@4@@Z
    ?add_action@ActionMap@Gio@@QEAA?AV?$RefPtr@VSimpleAction@Gio@@@Glib@@AEBVustring@4@AEBV?$slot@XUnil@sigc@@U12@U12@U12@U12@U12@U12@@sigc@@@Z
    ?add_action_with_parameter@ActionMap@Gio@@QEAA?AV?$RefPtr@VSimpleAction@Gio@@@Glib@@AEBVustring@4@AEBV?$slot@XAEBVVariantBase@Glib@@Unil@sigc@@U34@U34@U34@U34@U34@@sigc@@@Z
    ?add_action_with_parameter@ActionMap@Gio@@QEAA?AV?$RefPtr@VSimpleAction@Gio@@@Glib@@AEBVustring@4@AEBVVariantType@4@AEBV?$slot@XAEBVVariantBase@Glib@@Unil@sigc@@U34@U34@U34@U34@U34@@sigc@@@Z
    ?add_action_bool@ActionMap@Gio@@QEAA?AV?$RefPtr@VSimpleAction@Gio@@@Glib@@AEBVustring@4@_N@Z
    ?add_action_bool@ActionMap@Gio@@QEAA?AV?$RefPtr@VSimpleAction@Gio@@@Glib@@AEBVustring@4@AEBV?$slot@XUnil@sigc@@U12@U12@U12@U12@U12@U12@@sigc@@_N@Z
    ?add_action_radio_string@ActionMap@Gio@@QEAA?AV?$RefPtr@VSimpleAction@Gio@@@Glib@@AEBVustring@4@0@Z
    ?add_action_radio_string@ActionMap@Gio@@QEAA?AV?$RefPtr@VSimpleAction@Gio@@@Glib@@AEBVustring@4@AEBV?$slot@XAEBVustring@Glib@@Unil@sigc@@U34@U34@U34@U34@U34@@sigc@@0@Z
    ?add_action_radio_integer@ActionMap@Gio@@QEAA?AV?$RefPtr@VSimpleAction@Gio@@@Glib@@AEBVustring@4@H@Z
    ?add_action_radio_integer@ActionMap@Gio@@QEAA?AV?$RefPtr@VSimpleAction@Gio@@@Glib@@AEBVustring@4@AEBV?$slot@XHUnil@sigc@@U12@U12@U12@U12@U12@@sigc@@H@Z
    ?lookup_action_vfunc@ActionMap@Gio@@UEBA?AV?$RefPtr@VAction@Gio@@@Glib@@AEBVustring@4@@Z
    ?add_action_vfunc@ActionMap@Gio@@UEBAXV?$RefPtr@VAction@Gio@@@Glib@@@Z
    ?remove_action_vfunc@ActionMap@Gio@@UEAAXAEBVustring@Glib@@@Z
    ??_DActionMap@Gio@@QEAAXXZ
    ?wrap@Glib@@YA?AV?$RefPtr@VActionMap@Gio@@@1@PEAU_GActionMap@@_N@Z
    ?init@ActionMap_Class@Gio@@QEAAAEBVInterface_Class@Glib@@XZ
    ?iface_init_function@ActionMap_Class@Gio@@SAXPEAX0@Z
    ?wrap_new@ActionMap_Class@Gio@@SAPEAVObjectBase@Glib@@PEAU_GObject@@@Z
    ?lookup_action_vfunc_callback@ActionMap_Class@Gio@@KAPEAU_GAction@@PEAU_GActionMap@@PEBD@Z
    ?add_action_vfunc_callback@ActionMap_Class@Gio@@KAXPEAU_GActionMap@@PEAU_GAction@@@Z
    ?remove_action_vfunc_callback@ActionMap_Class@Gio@@KAXPEAU_GActionMap@@PEBD@Z
    ??1?$RefPtr@VSimpleAction@Gio@@@Glib@@QEAA@XZ
    ??0?$RefPtr@VSimpleAction@Gio@@@Glib@@QEAA@$$QEAV01@@Z
    ??C?$RefPtr@VSimpleAction@Gio@@@Glib@@QEBAPEAVSimpleAction@Gio@@XZ
    ??0?$RefPtr@VAction@Gio@@@Glib@@QEAA@XZ
    ??1?$RefPtr@VAction@Gio@@@Glib@@QEAA@XZ
    ??0?$RefPtr@VAction@Gio@@@Glib@@QEAA@$$QEAV01@@Z
    ??C?$RefPtr@VAction@Gio@@@Glib@@QEBAPEAVAction@Gio@@XZ
    ??B?$RefPtr@VAction@Gio@@@Glib@@QEBA_NXZ
    ?release@?$RefPtr@VAction@Gio@@@Glib@@QEAAPEAVAction@Gio@@XZ
    ??$?0VSimpleAction@Gio@@@?$RefPtr@VAction@Gio@@@Glib@@QEAA@AEBV?$RefPtr@VSimpleAction@Gio@@@1@@Z
    ?connect@?$SignalProxy@XAEBVVariantBase@Glib@@@Glib@@QEAA?AUconnection@sigc@@AEBV?$slot@XAEBVVariantBase@Glib@@Unil@sigc@@U34@U34@U34@U34@U34@@4@_N@Z
    ?connect@?$SignalProxy@XAEBVVariantBase@Glib@@@Glib@@QEAA?AUconnection@sigc@@$$QEAV?$slot@XAEBVVariantBase@Glib@@Unil@sigc@@U34@U34@U34@U34@U34@@4@_N@Z
    ??1?$SignalProxy@XAEBVVariantBase@Glib@@@Glib@@QEAA@XZ
    ??$hide@V?$slot@XUnil@sigc@@U12@U12@U12@U12@U12@U12@@sigc@@@sigc@@YA?AU?$hide_functor@$0?0V?$slot@XUnil@sigc@@U12@U12@U12@U12@U12@U12@@sigc@@@0@AEBV?$slot@XUnil@sigc@@U12@U12@U12@U12@U12@U12@@0@@Z
    ??0?$adapts@V?$slot@XUnil@sigc@@U12@U12@U12@U12@U12@U12@@sigc@@@sigc@@QEAA@AEBV?$slot@XUnil@sigc@@U12@U12@U12@U12@U12@U12@@1@@Z
    ??R?$adaptor_functor@V?$slot@XUnil@sigc@@U12@U12@U12@U12@U12@U12@@sigc@@@sigc@@QEBAXXZ
    ??0?$adaptor_functor@V?$slot@XUnil@sigc@@U12@U12@U12@U12@U12@U12@@sigc@@@sigc@@QEAA@AEBV?$slot@XUnil@sigc@@U12@U12@U12@U12@U12@U12@@1@@Z
    ??1?$adaptor_functor@V?$slot@XUnil@sigc@@U12@U12@U12@U12@U12@U12@@sigc@@@sigc@@QEAA@XZ
    ??0?$adaptor_functor@V?$slot@XUnil@sigc@@U12@U12@U12@U12@U12@U12@@sigc@@@sigc@@QEAA@AEBU01@@Z
    ??1?$adapts@V?$slot@XUnil@sigc@@U12@U12@U12@U12@U12@U12@@sigc@@@sigc@@QEAA@XZ
    ??0?$adapts@V?$slot@XUnil@sigc@@U12@U12@U12@U12@U12@U12@@sigc@@@sigc@@QEAA@AEBU01@@Z
    ??0?$hide_functor@$0?0V?$slot@XUnil@sigc@@U12@U12@U12@U12@U12@U12@@sigc@@@sigc@@QEAA@AEBV?$slot@XUnil@sigc@@U12@U12@U12@U12@U12@U12@@1@@Z
    ??1?$hide_functor@$0?0V?$slot@XUnil@sigc@@U12@U12@U12@U12@U12@U12@@sigc@@@sigc@@QEAA@XZ
    ??0?$hide_functor@$0?0V?$slot@XUnil@sigc@@U12@U12@U12@U12@U12@U12@@sigc@@@sigc@@QEAA@AEBU01@@Z
    ??1?$slot1@XAEBVVariantBase@Glib@@@sigc@@QEAA@XZ
    ??1?$slot@XAEBVVariantBase@Glib@@Unil@sigc@@U34@U34@U34@U34@U34@@sigc@@QEAA@XZ
    ??$?0U?$hide_functor@$0?0V?$slot@XUnil@sigc@@U12@U12@U12@U12@U12@U12@@sigc@@@sigc@@@?$slot@XAEBVVariantBase@Glib@@Unil@sigc@@U34@U34@U34@U34@U34@@sigc@@QEAA@AEBU?$hide_functor@$0?0V?$slot@XUnil@sigc@@U12@U12@U12@U12@U12@U12@@sigc@@@1@@Z
    ??R?$slot1@XAEBVustring@Glib@@@sigc@@QEBAXAEBVustring@Glib@@@Z
    ??0?$slot1@XAEBVustring@Glib@@@sigc@@QEAA@AEBV01@@Z
    ??1?$slot1@XAEBVustring@Glib@@@sigc@@QEAA@XZ
    ??0?$slot@XAEBVustring@Glib@@Unil@sigc@@U34@U34@U34@U34@U34@@sigc@@QEAA@AEBV01@@Z
    ??1?$slot@XAEBVustring@Glib@@Unil@sigc@@U34@U34@U34@U34@U34@@sigc@@QEAA@XZ
    ??$ptr_fun@AEBVVariantBase@Glib@@AEBV?$slot@XAEBVustring@Glib@@Unil@sigc@@U34@U34@U34@U34@U34@@sigc@@X@sigc@@YA?AV?$pointer_functor2@AEBVVariantBase@Glib@@AEBV?$slot@XAEBVustring@Glib@@Unil@sigc@@U34@U34@U34@U34@U34@@sigc@@X@0@P6AXAEBVVariantBase@Glib@@AEBV?$slot@XAEBVustring@Glib@@Unil@sigc@@U34@U34@U34@U34@U34@@0@@Z@Z
    ??0?$pointer_functor2@AEBVVariantBase@Glib@@AEBV?$slot@XAEBVustring@Glib@@Unil@sigc@@U34@U34@U34@U34@U34@@sigc@@X@sigc@@QEAA@P6AXAEBVVariantBase@Glib@@AEBV?$slot@XAEBVustring@Glib@@Unil@sigc@@U34@U34@U34@U34@U34@@1@@Z@Z
    ??R?$pointer_functor2@AEBVVariantBase@Glib@@AEBV?$slot@XAEBVustring@Glib@@Unil@sigc@@U34@U34@U34@U34@U34@@sigc@@X@sigc@@QEBAXAEBVVariantBase@Glib@@AEBV?$slot@XAEBVustring@Glib@@Unil@sigc@@U34@U34@U34@U34@U34@@1@@Z
    ??$bind@V?$slot@XAEBVustring@Glib@@Unil@sigc@@U34@U34@U34@U34@U34@@sigc@@V?$pointer_functor2@AEBVVariantBase@Glib@@AEBV?$slot@XAEBVustring@Glib@@Unil@sigc@@U34@U34@U34@U34@U34@@sigc@@X@2@@sigc@@YA?AU?$bind_functor@$0?0V?$pointer_functor2@AEBVVariantBase@Glib@@AEBV?$slot@XAEBVustring@Glib@@Unil@sigc@@U34@U34@U34@U34@U34@@sigc@@X@sigc@@V?$slot@XAEBVustring@Glib@@Unil@sigc@@U34@U34@U34@U34@U34@@2@Unil@2@U42@U42@U42@U42@U42@@0@AEBV?$pointer_functor2@AEBVVariantBase@Glib@@AEBV?$slot@XAEBVustring@Glib@@Unil@sigc@@U34@U34@U34@U34@U34@@sigc@@X@0@V?$slot@XAEBVustring@Glib@@Unil@sigc@@U34@U34@U34@U34@U34@@0@@Z
    ??0?$adapts@V?$pointer_functor2@AEBVVariantBase@Glib@@AEBV?$slot@XAEBVustring@Glib@@Unil@sigc@@U34@U34@U34@U34@U34@@sigc@@X@sigc@@@sigc@@QEAA@AEBV?$pointer_functor2@AEBVVariantBase@Glib@@AEBV?$slot@XAEBVustring@Glib@@Unil@sigc@@U34@U34@U34@U34@U34@@sigc@@X@1@@Z
    ??0?$adaptor_functor@V?$pointer_functor2@AEBVVariantBase@Glib@@AEBV?$slot@XAEBVustring@Glib@@Unil@sigc@@U34@U34@U34@U34@U34@@sigc@@X@sigc@@@sigc@@QEAA@AEBV?$pointer_functor2@AEBVVariantBase@Glib@@AEBV?$slot@XAEBVustring@Glib@@Unil@sigc@@U34@U34@U34@U34@U34@@sigc@@X@1@@Z
    ??0?$bind_functor@$0?0V?$pointer_functor2@AEBVVariantBase@Glib@@AEBV?$slot@XAEBVustring@Glib@@Unil@sigc@@U34@U34@U34@U34@U34@@sigc@@X@sigc@@V?$slot@XAEBVustring@Glib@@Unil@sigc@@U34@U34@U34@U34@U34@@2@Unil@2@U42@U42@U42@U42@U42@@sigc@@QEAA@AEBV?$pointer_functor2@AEBVVariantBase@Glib@@AEBV?$slot@XAEBVustring@Glib@@Unil@sigc@@U34@U34@U34@U34@U34@@sigc@@X@1@AEBV?$slot@XAEBVustring@Glib@@Unil@sigc@@U34@U34@U34@U34@U34@@1@@Z
    ??0?$bound_argument@V?$slot@XAEBVustring@Glib@@Unil@sigc@@U34@U34@U34@U34@U34@@sigc@@@sigc@@QEAA@AEBV?$slot@XAEBVustring@Glib@@Unil@sigc@@U34@U34@U34@U34@U34@@1@@Z
    ?visit@?$bound_argument@V?$slot@XAEBVustring@Glib@@Unil@sigc@@U34@U34@U34@U34@U34@@sigc@@@sigc@@QEBAAEBV?$slot@XAEBVustring@Glib@@Unil@sigc@@U34@U34@U34@U34@U34@@2@XZ
    ?invoke@?$bound_argument@V?$slot@XAEBVustring@Glib@@Unil@sigc@@U34@U34@U34@U34@U34@@sigc@@@sigc@@QEAAAEAV?$slot@XAEBVustring@Glib@@Unil@sigc@@U34@U34@U34@U34@U34@@2@XZ
    ??1?$bound_argument@V?$slot@XAEBVustring@Glib@@Unil@sigc@@U34@U34@U34@U34@U34@@sigc@@@sigc@@QEAA@XZ
    ??0?$bound_argument@V?$slot@XAEBVustring@Glib@@Unil@sigc@@U34@U34@U34@U34@U34@@sigc@@@sigc@@QEAA@AEBV01@@Z
    ??1?$bind_functor@$0?0V?$pointer_functor2@AEBVVariantBase@Glib@@AEBV?$slot@XAEBVustring@Glib@@Unil@sigc@@U34@U34@U34@U34@U34@@sigc@@X@sigc@@V?$slot@XAEBVustring@Glib@@Unil@sigc@@U34@U34@U34@U34@U34@@2@Unil@2@U42@U42@U42@U42@U42@@sigc@@QEAA@XZ
    ??0?$bind_functor@$0?0V?$pointer_functor2@AEBVVariantBase@Glib@@AEBV?$slot@XAEBVustring@Glib@@Unil@sigc@@U34@U34@U34@U34@U34@@sigc@@X@sigc@@V?$slot@XAEBVustring@Glib@@Unil@sigc@@U34@U34@U34@U34@U34@@2@Unil@2@U42@U42@U42@U42@U42@@sigc@@QEAA@AEBU01@@Z
    ??$?0U?$bind_functor@$0?0V?$pointer_functor2@AEBVVariantBase@Glib@@AEBV?$slot@XAEBVustring@Glib@@Unil@sigc@@U34@U34@U34@U34@U34@@sigc@@X@sigc@@V?$slot@XAEBVustring@Glib@@Unil@sigc@@U34@U34@U34@U34@U34@@2@Unil@2@U42@U42@U42@U42@U42@@sigc@@@?$slot@XAEBVVariantBase@Glib@@Unil@sigc@@U34@U34@U34@U34@U34@@sigc@@QEAA@AEBU?$bind_functor@$0?0V?$pointer_functor2@AEBVVariantBase@Glib@@AEBV?$slot@XAEBVustring@Glib@@Unil@sigc@@U34@U34@U34@U34@U34@@sigc@@X@sigc@@V?$slot@XAEBVustring@Glib@@Unil@sigc@@U34@U34@U34@U34@U34@@2@Unil@2@U42@U42@U42@U42@U42@@1@@Z
    ??$cast_dynamic@V?$Variant@H@Glib@@@VariantBase@Glib@@SA?AV?$Variant@H@1@AEBV01@@Z
    ??R?$slot1@XH@sigc@@QEBAXAEBH@Z
    ??0?$slot1@XH@sigc@@QEAA@AEBV01@@Z
    ??1?$slot1@XH@sigc@@QEAA@XZ
    ??0?$slot@XHUnil@sigc@@U12@U12@U12@U12@U12@@sigc@@QEAA@AEBV01@@Z
    ??1?$slot@XHUnil@sigc@@U12@U12@U12@U12@U12@@sigc@@QEAA@XZ
    ??$ptr_fun@AEBVVariantBase@Glib@@AEBV?$slot@XHUnil@sigc@@U12@U12@U12@U12@U12@@sigc@@X@sigc@@YA?AV?$pointer_functor2@AEBVVariantBase@Glib@@AEBV?$slot@XHUnil@sigc@@U12@U12@U12@U12@U12@@sigc@@X@0@P6AXAEBVVariantBase@Glib@@AEBV?$slot@XHUnil@sigc@@U12@U12@U12@U12@U12@@0@@Z@Z
    ??0?$pointer_functor2@AEBVVariantBase@Glib@@AEBV?$slot@XHUnil@sigc@@U12@U12@U12@U12@U12@@sigc@@X@sigc@@QEAA@P6AXAEBVVariantBase@Glib@@AEBV?$slot@XHUnil@sigc@@U12@U12@U12@U12@U12@@1@@Z@Z
    ??R?$pointer_functor2@AEBVVariantBase@Glib@@AEBV?$slot@XHUnil@sigc@@U12@U12@U12@U12@U12@@sigc@@X@sigc@@QEBAXAEBVVariantBase@Glib@@AEBV?$slot@XHUnil@sigc@@U12@U12@U12@U12@U12@@1@@Z
    ??$bind@V?$slot@XHUnil@sigc@@U12@U12@U12@U12@U12@@sigc@@V?$pointer_functor2@AEBVVariantBase@Glib@@AEBV?$slot@XHUnil@sigc@@U12@U12@U12@U12@U12@@sigc@@X@2@@sigc@@YA?AU?$bind_functor@$0?0V?$pointer_functor2@AEBVVariantBase@Glib@@AEBV?$slot@XHUnil@sigc@@U12@U12@U12@U12@U12@@sigc@@X@sigc@@V?$slot@XHUnil@sigc@@U12@U12@U12@U12@U12@@2@Unil@2@U42@U42@U42@U42@U42@@0@AEBV?$pointer_functor2@AEBVVariantBase@Glib@@AEBV?$slot@XHUnil@sigc@@U12@U12@U12@U12@U12@@sigc@@X@0@V?$slot@XHUnil@sigc@@U12@U12@U12@U12@U12@@0@@Z
    ??0?$adapts@V?$pointer_functor2@AEBVVariantBase@Glib@@AEBV?$slot@XHUnil@sigc@@U12@U12@U12@U12@U12@@sigc@@X@sigc@@@sigc@@QEAA@AEBV?$pointer_functor2@AEBVVariantBase@Glib@@AEBV?$slot@XHUnil@sigc@@U12@U12@U12@U12@U12@@sigc@@X@1@@Z
    ??0?$adaptor_functor@V?$pointer_functor2@AEBVVariantBase@Glib@@AEBV?$slot@XHUnil@sigc@@U12@U12@U12@U12@U12@@sigc@@X@sigc@@@sigc@@QEAA@AEBV?$pointer_functor2@AEBVVariantBase@Glib@@AEBV?$slot@XHUnil@sigc@@U12@U12@U12@U12@U12@@sigc@@X@1@@Z
    ??0?$bind_functor@$0?0V?$pointer_functor2@AEBVVariantBase@Glib@@AEBV?$slot@XHUnil@sigc@@U12@U12@U12@U12@U12@@sigc@@X@sigc@@V?$slot@XHUnil@sigc@@U12@U12@U12@U12@U12@@2@Unil@2@U42@U42@U42@U42@U42@@sigc@@QEAA@AEBV?$pointer_functor2@AEBVVariantBase@Glib@@AEBV?$slot@XHUnil@sigc@@U12@U12@U12@U12@U12@@sigc@@X@1@AEBV?$slot@XHUnil@sigc@@U12@U12@U12@U12@U12@@1@@Z
    ??0?$bound_argument@V?$slot@XHUnil@sigc@@U12@U12@U12@U12@U12@@sigc@@@sigc@@QEAA@AEBV?$slot@XHUnil@sigc@@U12@U12@U12@U12@U12@@1@@Z
    ?visit@?$bound_argument@V?$slot@XHUnil@sigc@@U12@U12@U12@U12@U12@@sigc@@@sigc@@QEBAAEBV?$slot@XHUnil@sigc@@U12@U12@U12@U12@U12@@2@XZ
    ?invoke@?$bound_argument@V?$slot@XHUnil@sigc@@U12@U12@U12@U12@U12@@sigc@@@sigc@@QEAAAEAV?$slot@XHUnil@sigc@@U12@U12@U12@U12@U12@@2@XZ
    ??1?$bound_argument@V?$slot@XHUnil@sigc@@U12@U12@U12@U12@U12@@sigc@@@sigc@@QEAA@XZ
    ??0?$bound_argument@V?$slot@XHUnil@sigc@@U12@U12@U12@U12@U12@@sigc@@@sigc@@QEAA@AEBV01@@Z
    ??1?$bind_functor@$0?0V?$pointer_functor2@AEBVVariantBase@Glib@@AEBV?$slot@XHUnil@sigc@@U12@U12@U12@U12@U12@@sigc@@X@sigc@@V?$slot@XHUnil@sigc@@U12@U12@U12@U12@U12@@2@Unil@2@U42@U42@U42@U42@U42@@sigc@@QEAA@XZ
    ??0?$bind_functor@$0?0V?$pointer_functor2@AEBVVariantBase@Glib@@AEBV?$slot@XHUnil@sigc@@U12@U12@U12@U12@U12@@sigc@@X@sigc@@V?$slot@XHUnil@sigc@@U12@U12@U12@U12@U12@@2@Unil@2@U42@U42@U42@U42@U42@@sigc@@QEAA@AEBU01@@Z
    ??$?0U?$bind_functor@$0?0V?$pointer_functor2@AEBVVariantBase@Glib@@AEBV?$slot@XHUnil@sigc@@U12@U12@U12@U12@U12@@sigc@@X@sigc@@V?$slot@XHUnil@sigc@@U12@U12@U12@U12@U12@@2@Unil@2@U42@U42@U42@U42@U42@@sigc@@@?$slot@XAEBVVariantBase@Glib@@Unil@sigc@@U34@U34@U34@U34@U34@@sigc@@QEAA@AEBU?$bind_functor@$0?0V?$pointer_functor2@AEBVVariantBase@Glib@@AEBV?$slot@XHUnil@sigc@@U12@U12@U12@U12@U12@@sigc@@X@sigc@@V?$slot@XHUnil@sigc@@U12@U12@U12@U12@U12@@2@Unil@2@U42@U42@U42@U42@U42@@1@@Z
    ??1?$RefPtr@VActionMap@Gio@@@Glib@@QEAA@XZ
    ??0?$RefPtr@VActionMap@Gio@@@Glib@@QEAA@PEAVActionMap@Gio@@@Z
    ??$wrap_auto_interface@VActionMap@Gio@@@Glib@@YAPEAVActionMap@Gio@@PEAU_GObject@@_N@Z
    ??$unwrap@VAction@Gio@@@Glib@@YAPEAU_GAction@@AEBV?$RefPtr@VAction@Gio@@@0@@Z
    ??$move@AEAVActionMap@Gio@@@std@@YA$$QEAVActionMap@Gio@@AEAV12@@Z
    ??1?$RefPtr@$$CBVAction@Gio@@@Glib@@QEAA@XZ
    ??$?0VAction@Gio@@@?$RefPtr@$$CBVAction@Gio@@@Glib@@QEAA@$$QEAV?$RefPtr@VAction@Gio@@@1@@Z
    ??$?0U?$hide_functor@$0?0V?$slot@XUnil@sigc@@U12@U12@U12@U12@U12@U12@@sigc@@@sigc@@@?$slot1@XAEBVVariantBase@Glib@@@sigc@@QEAA@AEBU?$hide_functor@$0?0V?$slot@XUnil@sigc@@U12@U12@U12@U12@U12@U12@@sigc@@@1@@Z
    ??$?0U?$bind_functor@$0?0V?$pointer_functor2@AEBVVariantBase@Glib@@AEBV?$slot@XAEBVustring@Glib@@Unil@sigc@@U34@U34@U34@U34@U34@@sigc@@X@sigc@@V?$slot@XAEBVustring@Glib@@Unil@sigc@@U34@U34@U34@U34@U34@@2@Unil@2@U42@U42@U42@U42@U42@@sigc@@@?$slot1@XAEBVVariantBase@Glib@@@sigc@@QEAA@AEBU?$bind_functor@$0?0V?$pointer_functor2@AEBVVariantBase@Glib@@AEBV?$slot@XAEBVustring@Glib@@Unil@sigc@@U34@U34@U34@U34@U34@@sigc@@X@sigc@@V?$slot@XAEBVustring@Glib@@Unil@sigc@@U34@U34@U34@U34@U34@@2@Unil@2@U42@U42@U42@U42@U42@@1@@Z
    ??$?0U?$bind_functor@$0?0V?$pointer_functor2@AEBVVariantBase@Glib@@AEBV?$slot@XHUnil@sigc@@U12@U12@U12@U12@U12@@sigc@@X@sigc@@V?$slot@XHUnil@sigc@@U12@U12@U12@U12@U12@@2@Unil@2@U42@U42@U42@U42@U42@@sigc@@@?$slot1@XAEBVVariantBase@Glib@@@sigc@@QEAA@AEBU?$bind_functor@$0?0V?$pointer_functor2@AEBVVariantBase@Glib@@AEBV?$slot@XHUnil@sigc@@U12@U12@U12@U12@U12@@sigc@@X@sigc@@V?$slot@XHUnil@sigc@@U12@U12@U12@U12@U12@@2@Unil@2@U42@U42@U42@U42@U42@@1@@Z
    ??$function_pointer_cast@P6AXPEAUslot_rep@internal@sigc@@AEBH@ZP6APEAXPEAX@Z@internal@sigc@@YAP6AXPEAUslot_rep@01@AEBH@ZP6APEAXPEAX@Z@Z
    ??$function_pointer_cast@P6AXPEAUslot_rep@internal@sigc@@AEBVustring@Glib@@@ZP6APEAXPEAX@Z@internal@sigc@@YAP6AXPEAUslot_rep@01@AEBVustring@Glib@@@ZP6APEAXPEAX@Z@Z
    ??$move@AEAV?$slot@XAEBVVariantBase@Glib@@Unil@sigc@@U34@U34@U34@U34@U34@@sigc@@@std@@YA$$QEAV?$slot@XAEBVVariantBase@Glib@@Unil@sigc@@U34@U34@U34@U34@U34@@sigc@@AEAV12@@Z
    ??0?$typed_slot_rep@U?$hide_functor@$0?0V?$slot@XUnil@sigc@@U12@U12@U12@U12@U12@U12@@sigc@@@sigc@@@internal@sigc@@QEAA@AEBU?$hide_functor@$0?0V?$slot@XUnil@sigc@@U12@U12@U12@U12@U12@U12@@sigc@@@2@@Z
    ??0?$typed_slot_rep@U?$hide_functor@$0?0V?$slot@XUnil@sigc@@U12@U12@U12@U12@U12@U12@@sigc@@@sigc@@@internal@sigc@@QEAA@AEBU012@@Z
    ?destroy@?$typed_slot_rep@U?$hide_functor@$0?0V?$slot@XUnil@sigc@@U12@U12@U12@U12@U12@U12@@sigc@@@sigc@@@internal@sigc@@SAPEAXPEAX@Z
    ?dup@?$typed_slot_rep@U?$hide_functor@$0?0V?$slot@XUnil@sigc@@U12@U12@U12@U12@U12@U12@@sigc@@@sigc@@@internal@sigc@@SAPEAXPEAX@Z
    ?call_it@?$slot_call1@U?$hide_functor@$0?0V?$slot@XUnil@sigc@@U12@U12@U12@U12@U12@U12@@sigc@@@sigc@@XAEBVVariantBase@Glib@@@internal@sigc@@SAXPEAUslot_rep@23@AEBVVariantBase@Glib@@@Z
    ?address@?$slot_call1@U?$hide_functor@$0?0V?$slot@XUnil@sigc@@U12@U12@U12@U12@U12@U12@@sigc@@@sigc@@XAEBVVariantBase@Glib@@@internal@sigc@@SAP6APEAXPEAX@ZXZ
    ??0?$typed_slot_rep@U?$bind_functor@$0?0V?$pointer_functor2@AEBVVariantBase@Glib@@AEBV?$slot@XAEBVustring@Glib@@Unil@sigc@@U34@U34@U34@U34@U34@@sigc@@X@sigc@@V?$slot@XAEBVustring@Glib@@Unil@sigc@@U34@U34@U34@U34@U34@@2@Unil@2@U42@U42@U42@U42@U42@@sigc@@@internal@sigc@@QEAA@AEBU?$bind_functor@$0?0V?$pointer_functor2@AEBVVariantBase@Glib@@AEBV?$slot@XAEBVustring@Glib@@Unil@sigc@@U34@U34@U34@U34@U34@@sigc@@X@sigc@@V?$slot@XAEBVustring@Glib@@Unil@sigc@@U34@U34@U34@U34@U34@@2@Unil@2@U42@U42@U42@U42@U42@@2@@Z
    ??0?$typed_slot_rep@U?$bind_functor@$0?0V?$pointer_functor2@AEBVVariantBase@Glib@@AEBV?$slot@XAEBVustring@Glib@@Unil@sigc@@U34@U34@U34@U34@U34@@sigc@@X@sigc@@V?$slot@XAEBVustring@Glib@@Unil@sigc@@U34@U34@U34@U34@U34@@2@Unil@2@U42@U42@U42@U42@U42@@sigc@@@internal@sigc@@QEAA@AEBU012@@Z
    ?destroy@?$typed_slot_rep@U?$bind_functor@$0?0V?$pointer_functor2@AEBVVariantBase@Glib@@AEBV?$slot@XAEBVustring@Glib@@Unil@sigc@@U34@U34@U34@U34@U34@@sigc@@X@sigc@@V?$slot@XAEBVustring@Glib@@Unil@sigc@@U34@U34@U34@U34@U34@@2@Unil@2@U42@U42@U42@U42@U42@@sigc@@@internal@sigc@@SAPEAXPEAX@Z
    ?dup@?$typed_slot_rep@U?$bind_functor@$0?0V?$pointer_functor2@AEBVVariantBase@Glib@@AEBV?$slot@XAEBVustring@Glib@@Unil@sigc@@U34@U34@U34@U34@U34@@sigc@@X@sigc@@V?$slot@XAEBVustring@Glib@@Unil@sigc@@U34@U34@U34@U34@U34@@2@Unil@2@U42@U42@U42@U42@U42@@sigc@@@internal@sigc@@SAPEAXPEAX@Z
    ?call_it@?$slot_call1@U?$bind_functor@$0?0V?$pointer_functor2@AEBVVariantBase@Glib@@AEBV?$slot@XAEBVustring@Glib@@Unil@sigc@@U34@U34@U34@U34@U34@@sigc@@X@sigc@@V?$slot@XAEBVustring@Glib@@Unil@sigc@@U34@U34@U34@U34@U34@@2@Unil@2@U42@U42@U42@U42@U42@@sigc@@XAEBVVariantBase@Glib@@@internal@sigc@@SAXPEAUslot_rep@23@AEBVVariantBase@Glib@@@Z
    ?address@?$slot_call1@U?$bind_functor@$0?0V?$pointer_functor2@AEBVVariantBase@Glib@@AEBV?$slot@XAEBVustring@Glib@@Unil@sigc@@U34@U34@U34@U34@U34@@sigc@@X@sigc@@V?$slot@XAEBVustring@Glib@@Unil@sigc@@U34@U34@U34@U34@U34@@2@Unil@2@U42@U42@U42@U42@U42@@sigc@@XAEBVVariantBase@Glib@@@internal@sigc@@SAP6APEAXPEAX@ZXZ
    ??0?$typed_slot_rep@U?$bind_functor@$0?0V?$pointer_functor2@AEBVVariantBase@Glib@@AEBV?$slot@XHUnil@sigc@@U12@U12@U12@U12@U12@@sigc@@X@sigc@@V?$slot@XHUnil@sigc@@U12@U12@U12@U12@U12@@2@Unil@2@U42@U42@U42@U42@U42@@sigc@@@internal@sigc@@QEAA@AEBU?$bind_functor@$0?0V?$pointer_functor2@AEBVVariantBase@Glib@@AEBV?$slot@XHUnil@sigc@@U12@U12@U12@U12@U12@@sigc@@X@sigc@@V?$slot@XHUnil@sigc@@U12@U12@U12@U12@U12@@2@Unil@2@U42@U42@U42@U42@U42@@2@@Z
    ??0?$typed_slot_rep@U?$bind_functor@$0?0V?$pointer_functor2@AEBVVariantBase@Glib@@AEBV?$slot@XHUnil@sigc@@U12@U12@U12@U12@U12@@sigc@@X@sigc@@V?$slot@XHUnil@sigc@@U12@U12@U12@U12@U12@@2@Unil@2@U42@U42@U42@U42@U42@@sigc@@@internal@sigc@@QEAA@AEBU012@@Z
    ?destroy@?$typed_slot_rep@U?$bind_functor@$0?0V?$pointer_functor2@AEBVVariantBase@Glib@@AEBV?$slot@XHUnil@sigc@@U12@U12@U12@U12@U12@@sigc@@X@sigc@@V?$slot@XHUnil@sigc@@U12@U12@U12@U12@U12@@2@Unil@2@U42@U42@U42@U42@U42@@sigc@@@internal@sigc@@SAPEAXPEAX@Z
    ?dup@?$typed_slot_rep@U?$bind_functor@$0?0V?$pointer_functor2@AEBVVariantBase@Glib@@AEBV?$slot@XHUnil@sigc@@U12@U12@U12@U12@U12@@sigc@@X@sigc@@V?$slot@XHUnil@sigc@@U12@U12@U12@U12@U12@@2@Unil@2@U42@U42@U42@U42@U42@@sigc@@@internal@sigc@@SAPEAXPEAX@Z
    ?call_it@?$slot_call1@U?$bind_functor@$0?0V?$pointer_functor2@AEBVVariantBase@Glib@@AEBV?$slot@XHUnil@sigc@@U12@U12@U12@U12@U12@@sigc@@X@sigc@@V?$slot@XHUnil@sigc@@U12@U12@U12@U12@U12@@2@Unil@2@U42@U42@U42@U42@U42@@sigc@@XAEBVVariantBase@Glib@@@internal@sigc@@SAXPEAUslot_rep@23@AEBVVariantBase@Glib@@@Z
    ?address@?$slot_call1@U?$bind_functor@$0?0V?$pointer_functor2@AEBVVariantBase@Glib@@AEBV?$slot@XHUnil@sigc@@U12@U12@U12@U12@U12@@sigc@@X@sigc@@V?$slot@XHUnil@sigc@@U12@U12@U12@U12@U12@@2@Unil@2@U42@U42@U42@U42@U42@@sigc@@XAEBVVariantBase@Glib@@@internal@sigc@@SAP6APEAXPEAX@ZXZ
    ??$function_pointer_cast@P6APEAXPEAX@ZP6AXPEAUslot_rep@internal@sigc@@AEBVVariantBase@Glib@@@Z@internal@sigc@@YAP6APEAXPEAX@ZP6AXPEAUslot_rep@01@AEBVVariantBase@Glib@@@Z@Z
    ??$visit_each_type@PEAUtrackable@sigc@@Uslot_do_bind@internal@2@U?$bind_functor@$0?0V?$pointer_functor2@AEBVVariantBase@Glib@@AEBV?$slot@XHUnil@sigc@@U12@U12@U12@U12@U12@@sigc@@X@sigc@@V?$slot@XHUnil@sigc@@U12@U12@U12@U12@U12@@2@Unil@2@U42@U42@U42@U42@U42@@2@@sigc@@YAXAEBUslot_do_bind@internal@0@AEBU?$bind_functor@$0?0V?$pointer_functor2@AEBVVariantBase@Glib@@AEBV?$slot@XHUnil@sigc@@U12@U12@U12@U12@U12@@sigc@@X@sigc@@V?$slot@XHUnil@sigc@@U12@U12@U12@U12@U12@@2@Unil@2@U42@U42@U42@U42@U42@@0@@Z
    ??$visit_each_type@PEAUtrackable@sigc@@Uslot_do_bind@internal@2@U?$bind_functor@$0?0V?$pointer_functor2@AEBVVariantBase@Glib@@AEBV?$slot@XAEBVustring@Glib@@Unil@sigc@@U34@U34@U34@U34@U34@@sigc@@X@sigc@@V?$slot@XAEBVustring@Glib@@Unil@sigc@@U34@U34@U34@U34@U34@@2@Unil@2@U42@U42@U42@U42@U42@@2@@sigc@@YAXAEBUslot_do_bind@internal@0@AEBU?$bind_functor@$0?0V?$pointer_functor2@AEBVVariantBase@Glib@@AEBV?$slot@XAEBVustring@Glib@@Unil@sigc@@U34@U34@U34@U34@U34@@sigc@@X@sigc@@V?$slot@XAEBVustring@Glib@@Unil@sigc@@U34@U34@U34@U34@U34@@2@Unil@2@U42@U42@U42@U42@U42@@0@@Z
    ??$visit_each_type@PEAUtrackable@sigc@@Uslot_do_bind@internal@2@U?$hide_functor@$0?0V?$slot@XUnil@sigc@@U12@U12@U12@U12@U12@U12@@sigc@@@2@@sigc@@YAXAEBUslot_do_bind@internal@0@AEBU?$hide_functor@$0?0V?$slot@XUnil@sigc@@U12@U12@U12@U12@U12@U12@@sigc@@@0@@Z
    ??0?$limit_derived_target@PEAUtrackable@sigc@@Uslot_do_bind@internal@2@@internal@sigc@@QEAA@AEBUslot_do_bind@12@@Z
    ??$visit_each@U?$limit_derived_target@PEAUtrackable@sigc@@Uslot_do_bind@internal@2@@internal@sigc@@U?$bind_functor@$0?0V?$pointer_functor2@AEBVVariantBase@Glib@@AEBV?$slot@XHUnil@sigc@@U12@U12@U12@U12@U12@@sigc@@X@sigc@@V?$slot@XHUnil@sigc@@U12@U12@U12@U12@U12@@2@Unil@2@U42@U42@U42@U42@U42@@3@@sigc@@YAXAEBU?$limit_derived_target@PEAUtrackable@sigc@@Uslot_do_bind@internal@2@@internal@0@AEBU?$bind_functor@$0?0V?$pointer_functor2@AEBVVariantBase@Glib@@AEBV?$slot@XHUnil@sigc@@U12@U12@U12@U12@U12@@sigc@@X@sigc@@V?$slot@XHUnil@sigc@@U12@U12@U12@U12@U12@@2@Unil@2@U42@U42@U42@U42@U42@@0@@Z
    ??$visit_each@U?$limit_derived_target@PEAUtrackable@sigc@@Uslot_do_bind@internal@2@@internal@sigc@@U?$bind_functor@$0?0V?$pointer_functor2@AEBVVariantBase@Glib@@AEBV?$slot@XAEBVustring@Glib@@Unil@sigc@@U34@U34@U34@U34@U34@@sigc@@X@sigc@@V?$slot@XAEBVustring@Glib@@Unil@sigc@@U34@U34@U34@U34@U34@@2@Unil@2@U42@U42@U42@U42@U42@@3@@sigc@@YAXAEBU?$limit_derived_target@PEAUtrackable@sigc@@Uslot_do_bind@internal@2@@internal@0@AEBU?$bind_functor@$0?0V?$pointer_functor2@AEBVVariantBase@Glib@@AEBV?$slot@XAEBVustring@Glib@@Unil@sigc@@U34@U34@U34@U34@U34@@sigc@@X@sigc@@V?$slot@XAEBVustring@Glib@@Unil@sigc@@U34@U34@U34@U34@U34@@2@Unil@2@U42@U42@U42@U42@U42@@0@@Z
    ??$visit_each@U?$limit_derived_target@PEAUtrackable@sigc@@Uslot_do_bind@internal@2@@internal@sigc@@U?$hide_functor@$0?0V?$slot@XUnil@sigc@@U12@U12@U12@U12@U12@U12@@sigc@@@3@@sigc@@YAXAEBU?$limit_derived_target@PEAUtrackable@sigc@@Uslot_do_bind@internal@2@@internal@0@AEBU?$hide_functor@$0?0V?$slot@XUnil@sigc@@U12@U12@U12@U12@U12@U12@@sigc@@@0@@Z
    ??$?RAEBVVariantBase@Glib@@@?$bind_functor@$0?0V?$pointer_functor2@AEBVVariantBase@Glib@@AEBV?$slot@XHUnil@sigc@@U12@U12@U12@U12@U12@@sigc@@X@sigc@@V?$slot@XHUnil@sigc@@U12@U12@U12@U12@U12@@2@Unil@2@U42@U42@U42@U42@U42@@sigc@@QEAAXAEBVVariantBase@Glib@@@Z
    ??$visit_each_type@PEAUtrackable@sigc@@Uslot_do_unbind@internal@2@U?$bind_functor@$0?0V?$pointer_functor2@AEBVVariantBase@Glib@@AEBV?$slot@XHUnil@sigc@@U12@U12@U12@U12@U12@@sigc@@X@sigc@@V?$slot@XHUnil@sigc@@U12@U12@U12@U12@U12@@2@Unil@2@U42@U42@U42@U42@U42@@2@@sigc@@YAXAEBUslot_do_unbind@internal@0@AEBU?$bind_functor@$0?0V?$pointer_functor2@AEBVVariantBase@Glib@@AEBV?$slot@XHUnil@sigc@@U12@U12@U12@U12@U12@@sigc@@X@sigc@@V?$slot@XHUnil@sigc@@U12@U12@U12@U12@U12@@2@Unil@2@U42@U42@U42@U42@U42@@0@@Z
    ??$?RAEBVVariantBase@Glib@@@?$bind_functor@$0?0V?$pointer_functor2@AEBVVariantBase@Glib@@AEBV?$slot@XAEBVustring@Glib@@Unil@sigc@@U34@U34@U34@U34@U34@@sigc@@X@sigc@@V?$slot@XAEBVustring@Glib@@Unil@sigc@@U34@U34@U34@U34@U34@@2@Unil@2@U42@U42@U42@U42@U42@@sigc@@QEAAXAEBVVariantBase@Glib@@@Z
    ??$visit_each_type@PEAUtrackable@sigc@@Uslot_do_unbind@internal@2@U?$bind_functor@$0?0V?$pointer_functor2@AEBVVariantBase@Glib@@AEBV?$slot@XAEBVustring@Glib@@Unil@sigc@@U34@U34@U34@U34@U34@@sigc@@X@sigc@@V?$slot@XAEBVustring@Glib@@Unil@sigc@@U34@U34@U34@U34@U34@@2@Unil@2@U42@U42@U42@U42@U42@@2@@sigc@@YAXAEBUslot_do_unbind@internal@0@AEBU?$bind_functor@$0?0V?$pointer_functor2@AEBVVariantBase@Glib@@AEBV?$slot@XAEBVustring@Glib@@Unil@sigc@@U34@U34@U34@U34@U34@@sigc@@X@sigc@@V?$slot@XAEBVustring@Glib@@Unil@sigc@@U34@U34@U34@U34@U34@@2@Unil@2@U42@U42@U42@U42@U42@@0@@Z
    ??$?RAEBVVariantBase@Glib@@@?$hide_functor@$0?0V?$slot@XUnil@sigc@@U12@U12@U12@U12@U12@U12@@sigc@@@sigc@@QEAAXAEBVVariantBase@Glib@@@Z
    ??$visit_each_type@PEAUtrackable@sigc@@Uslot_do_unbind@internal@2@U?$hide_functor@$0?0V?$slot@XUnil@sigc@@U12@U12@U12@U12@U12@U12@@sigc@@@2@@sigc@@YAXAEBUslot_do_unbind@internal@0@AEBU?$hide_functor@$0?0V?$slot@XUnil@sigc@@U12@U12@U12@U12@U12@U12@@sigc@@@0@@Z
    ??$do_visit_each@U?$limit_derived_target@PEAUtrackable@sigc@@Uslot_do_bind@internal@2@@internal@sigc@@@?$visitor@U?$bind_functor@$0?0V?$pointer_functor2@AEBVVariantBase@Glib@@AEBV?$slot@XHUnil@sigc@@U12@U12@U12@U12@U12@@sigc@@X@sigc@@V?$slot@XHUnil@sigc@@U12@U12@U12@U12@U12@@2@Unil@2@U42@U42@U42@U42@U42@@sigc@@@sigc@@SAXAEBU?$limit_derived_target@PEAUtrackable@sigc@@Uslot_do_bind@internal@2@@internal@1@AEBU?$bind_functor@$0?0V?$pointer_functor2@AEBVVariantBase@Glib@@AEBV?$slot@XHUnil@sigc@@U12@U12@U12@U12@U12@@sigc@@X@sigc@@V?$slot@XHUnil@sigc@@U12@U12@U12@U12@U12@@2@Unil@2@U42@U42@U42@U42@U42@@1@@Z
    ??$do_visit_each@U?$limit_derived_target@PEAUtrackable@sigc@@Uslot_do_bind@internal@2@@internal@sigc@@@?$visitor@U?$bind_functor@$0?0V?$pointer_functor2@AEBVVariantBase@Glib@@AEBV?$slot@XAEBVustring@Glib@@Unil@sigc@@U34@U34@U34@U34@U34@@sigc@@X@sigc@@V?$slot@XAEBVustring@Glib@@Unil@sigc@@U34@U34@U34@U34@U34@@2@Unil@2@U42@U42@U42@U42@U42@@sigc@@@sigc@@SAXAEBU?$limit_derived_target@PEAUtrackable@sigc@@Uslot_do_bind@internal@2@@internal@1@AEBU?$bind_functor@$0?0V?$pointer_functor2@AEBVVariantBase@Glib@@AEBV?$slot@XAEBVustring@Glib@@Unil@sigc@@U34@U34@U34@U34@U34@@sigc@@X@sigc@@V?$slot@XAEBVustring@Glib@@Unil@sigc@@U34@U34@U34@U34@U34@@2@Unil@2@U42@U42@U42@U42@U42@@1@@Z
    ??$do_visit_each@U?$limit_derived_target@PEAUtrackable@sigc@@Uslot_do_bind@internal@2@@internal@sigc@@@?$visitor@U?$hide_functor@$0?0V?$slot@XUnil@sigc@@U12@U12@U12@U12@U12@U12@@sigc@@@sigc@@@sigc@@SAXAEBU?$limit_derived_target@PEAUtrackable@sigc@@Uslot_do_bind@internal@2@@internal@1@AEBU?$hide_functor@$0?0V?$slot@XUnil@sigc@@U12@U12@U12@U12@U12@U12@@sigc@@@1@@Z
    ??$?RAEBVVariantBase@Glib@@AEAV?$slot@XHUnil@sigc@@U12@U12@U12@U12@U12@@sigc@@@?$adaptor_functor@V?$pointer_functor2@AEBVVariantBase@Glib@@AEBV?$slot@XHUnil@sigc@@U12@U12@U12@U12@U12@@sigc@@X@sigc@@@sigc@@QEBAXAEBVVariantBase@Glib@@AEAV?$slot@XHUnil@sigc@@U12@U12@U12@U12@U12@@1@@Z
    ??0?$limit_derived_target@PEAUtrackable@sigc@@Uslot_do_unbind@internal@2@@internal@sigc@@QEAA@AEBUslot_do_unbind@12@@Z
    ??$visit_each@U?$limit_derived_target@PEAUtrackable@sigc@@Uslot_do_unbind@internal@2@@internal@sigc@@U?$bind_functor@$0?0V?$pointer_functor2@AEBVVariantBase@Glib@@AEBV?$slot@XHUnil@sigc@@U12@U12@U12@U12@U12@@sigc@@X@sigc@@V?$slot@XHUnil@sigc@@U12@U12@U12@U12@U12@@2@Unil@2@U42@U42@U42@U42@U42@@3@@sigc@@YAXAEBU?$limit_derived_target@PEAUtrackable@sigc@@Uslot_do_unbind@internal@2@@internal@0@AEBU?$bind_functor@$0?0V?$pointer_functor2@AEBVVariantBase@Glib@@AEBV?$slot@XHUnil@sigc@@U12@U12@U12@U12@U12@@sigc@@X@sigc@@V?$slot@XHUnil@sigc@@U12@U12@U12@U12@U12@@2@Unil@2@U42@U42@U42@U42@U42@@0@@Z
    ??$?RAEBVVariantBase@Glib@@AEAV?$slot@XAEBVustring@Glib@@Unil@sigc@@U34@U34@U34@U34@U34@@sigc@@@?$adaptor_functor@V?$pointer_functor2@AEBVVariantBase@Glib@@AEBV?$slot@XAEBVustring@Glib@@Unil@sigc@@U34@U34@U34@U34@U34@@sigc@@X@sigc@@@sigc@@QEBAXAEBVVariantBase@Glib@@AEAV?$slot@XAEBVustring@Glib@@Unil@sigc@@U34@U34@U34@U34@U34@@1@@Z
    ??$visit_each@U?$limit_derived_target@PEAUtrackable@sigc@@Uslot_do_unbind@internal@2@@internal@sigc@@U?$bind_functor@$0?0V?$pointer_functor2@AEBVVariantBase@Glib@@AEBV?$slot@XAEBVustring@Glib@@Unil@sigc@@U34@U34@U34@U34@U34@@sigc@@X@sigc@@V?$slot@XAEBVustring@Glib@@Unil@sigc@@U34@U34@U34@U34@U34@@2@Unil@2@U42@U42@U42@U42@U42@@3@@sigc@@YAXAEBU?$limit_derived_target@PEAUtrackable@sigc@@Uslot_do_unbind@internal@2@@internal@0@AEBU?$bind_functor@$0?0V?$pointer_functor2@AEBVVariantBase@Glib@@AEBV?$slot@XAEBVustring@Glib@@Unil@sigc@@U34@U34@U34@U34@U34@@sigc@@X@sigc@@V?$slot@XAEBVustring@Glib@@Unil@sigc@@U34@U34@U34@U34@U34@@2@Unil@2@U42@U42@U42@U42@U42@@0@@Z
    ??$visit_each@U?$limit_derived_target@PEAUtrackable@sigc@@Uslot_do_unbind@internal@2@@internal@sigc@@U?$hide_functor@$0?0V?$slot@XUnil@sigc@@U12@U12@U12@U12@U12@U12@@sigc@@@3@@sigc@@YAXAEBU?$limit_derived_target@PEAUtrackable@sigc@@Uslot_do_unbind@internal@2@@internal@0@AEBU?$hide_functor@$0?0V?$slot@XUnil@sigc@@U12@U12@U12@U12@U12@U12@@sigc@@@0@@Z
    ??$visit_each@U?$limit_derived_target@PEAUtrackable@sigc@@Uslot_do_bind@internal@2@@internal@sigc@@U?$adaptor_functor@V?$pointer_functor2@AEBVVariantBase@Glib@@AEBV?$slot@XHUnil@sigc@@U12@U12@U12@U12@U12@@sigc@@X@sigc@@@3@@sigc@@YAXAEBU?$limit_derived_target@PEAUtrackable@sigc@@Uslot_do_bind@internal@2@@internal@0@AEBU?$adaptor_functor@V?$pointer_functor2@AEBVVariantBase@Glib@@AEBV?$slot@XHUnil@sigc@@U12@U12@U12@U12@U12@@sigc@@X@sigc@@@0@@Z
    ??$visit_each@U?$limit_derived_target@PEAUtrackable@sigc@@Uslot_do_bind@internal@2@@internal@sigc@@V?$bound_argument@V?$slot@XHUnil@sigc@@U12@U12@U12@U12@U12@@sigc@@@3@@sigc@@YAXAEBU?$limit_derived_target@PEAUtrackable@sigc@@Uslot_do_bind@internal@2@@internal@0@AEBV?$bound_argument@V?$slot@XHUnil@sigc@@U12@U12@U12@U12@U12@@sigc@@@0@@Z
    ??$visit_each@U?$limit_derived_target@PEAUtrackable@sigc@@Uslot_do_bind@internal@2@@internal@sigc@@U?$adaptor_functor@V?$pointer_functor2@AEBVVariantBase@Glib@@AEBV?$slot@XAEBVustring@Glib@@Unil@sigc@@U34@U34@U34@U34@U34@@sigc@@X@sigc@@@3@@sigc@@YAXAEBU?$limit_derived_target@PEAUtrackable@sigc@@Uslot_do_bind@internal@2@@internal@0@AEBU?$adaptor_functor@V?$pointer_functor2@AEBVVariantBase@Glib@@AEBV?$slot@XAEBVustring@Glib@@Unil@sigc@@U34@U34@U34@U34@U34@@sigc@@X@sigc@@@0@@Z
    ??$visit_each@U?$limit_derived_target@PEAUtrackable@sigc@@Uslot_do_bind@internal@2@@internal@sigc@@V?$bound_argument@V?$slot@XAEBVustring@Glib@@Unil@sigc@@U34@U34@U34@U34@U34@@sigc@@@3@@sigc@@YAXAEBU?$limit_derived_target@PEAUtrackable@sigc@@Uslot_do_bind@internal@2@@internal@0@AEBV?$bound_argument@V?$slot@XAEBVustring@Glib@@Unil@sigc@@U34@U34@U34@U34@U34@@sigc@@@0@@Z
    ??$visit_each@U?$limit_derived_target@PEAUtrackable@sigc@@Uslot_do_bind@internal@2@@internal@sigc@@U?$adaptor_functor@V?$slot@XUnil@sigc@@U12@U12@U12@U12@U12@U12@@sigc@@@3@@sigc@@YAXAEBU?$limit_derived_target@PEAUtrackable@sigc@@Uslot_do_bind@internal@2@@internal@0@AEBU?$adaptor_functor@V?$slot@XUnil@sigc@@U12@U12@U12@U12@U12@U12@@sigc@@@0@@Z
    ??$do_visit_each@U?$limit_derived_target@PEAUtrackable@sigc@@Uslot_do_unbind@internal@2@@internal@sigc@@@?$visitor@U?$bind_functor@$0?0V?$pointer_functor2@AEBVVariantBase@Glib@@AEBV?$slot@XHUnil@sigc@@U12@U12@U12@U12@U12@@sigc@@X@sigc@@V?$slot@XHUnil@sigc@@U12@U12@U12@U12@U12@@2@Unil@2@U42@U42@U42@U42@U42@@sigc@@@sigc@@SAXAEBU?$limit_derived_target@PEAUtrackable@sigc@@Uslot_do_unbind@internal@2@@internal@1@AEBU?$bind_functor@$0?0V?$pointer_functor2@AEBVVariantBase@Glib@@AEBV?$slot@XHUnil@sigc@@U12@U12@U12@U12@U12@@sigc@@X@sigc@@V?$slot@XHUnil@sigc@@U12@U12@U12@U12@U12@@2@Unil@2@U42@U42@U42@U42@U42@@1@@Z
    ??$do_visit_each@U?$limit_derived_target@PEAUtrackable@sigc@@Uslot_do_unbind@internal@2@@internal@sigc@@@?$visitor@U?$bind_functor@$0?0V?$pointer_functor2@AEBVVariantBase@Glib@@AEBV?$slot@XAEBVustring@Glib@@Unil@sigc@@U34@U34@U34@U34@U34@@sigc@@X@sigc@@V?$slot@XAEBVustring@Glib@@Unil@sigc@@U34@U34@U34@U34@U34@@2@Unil@2@U42@U42@U42@U42@U42@@sigc@@@sigc@@SAXAEBU?$limit_derived_target@PEAUtrackable@sigc@@Uslot_do_unbind@internal@2@@internal@1@AEBU?$bind_functor@$0?0V?$pointer_functor2@AEBVVariantBase@Glib@@AEBV?$slot@XAEBVustring@Glib@@Unil@sigc@@U34@U34@U34@U34@U34@@sigc@@X@sigc@@V?$slot@XAEBVustring@Glib@@Unil@sigc@@U34@U34@U34@U34@U34@@2@Unil@2@U42@U42@U42@U42@U42@@1@@Z
    ??$do_visit_each@U?$limit_derived_target@PEAUtrackable@sigc@@Uslot_do_unbind@internal@2@@internal@sigc@@@?$visitor@U?$hide_functor@$0?0V?$slot@XUnil@sigc@@U12@U12@U12@U12@U12@U12@@sigc@@@sigc@@@sigc@@SAXAEBU?$limit_derived_target@PEAUtrackable@sigc@@Uslot_do_unbind@internal@2@@internal@1@AEBU?$hide_functor@$0?0V?$slot@XUnil@sigc@@U12@U12@U12@U12@U12@U12@@sigc@@@1@@Z
    ??$do_visit_each@U?$limit_derived_target@PEAUtrackable@sigc@@Uslot_do_bind@internal@2@@internal@sigc@@@?$visitor@U?$adaptor_functor@V?$pointer_functor2@AEBVVariantBase@Glib@@AEBV?$slot@XHUnil@sigc@@U12@U12@U12@U12@U12@@sigc@@X@sigc@@@sigc@@@sigc@@SAXAEBU?$limit_derived_target@PEAUtrackable@sigc@@Uslot_do_bind@internal@2@@internal@1@AEBU?$adaptor_functor@V?$pointer_functor2@AEBVVariantBase@Glib@@AEBV?$slot@XHUnil@sigc@@U12@U12@U12@U12@U12@@sigc@@X@sigc@@@1@@Z
    ??$do_visit_each@U?$limit_derived_target@PEAUtrackable@sigc@@Uslot_do_bind@internal@2@@internal@sigc@@@?$visitor@V?$bound_argument@V?$slot@XHUnil@sigc@@U12@U12@U12@U12@U12@@sigc@@@sigc@@@sigc@@SAXAEBU?$limit_derived_target@PEAUtrackable@sigc@@Uslot_do_bind@internal@2@@internal@1@AEBV?$bound_argument@V?$slot@XHUnil@sigc@@U12@U12@U12@U12@U12@@sigc@@@1@@Z
    ??$do_visit_each@U?$limit_derived_target@PEAUtrackable@sigc@@Uslot_do_bind@internal@2@@internal@sigc@@@?$visitor@U?$adaptor_functor@V?$pointer_functor2@AEBVVariantBase@Glib@@AEBV?$slot@XAEBVustring@Glib@@Unil@sigc@@U34@U34@U34@U34@U34@@sigc@@X@sigc@@@sigc@@@sigc@@SAXAEBU?$limit_derived_target@PEAUtrackable@sigc@@Uslot_do_bind@internal@2@@internal@1@AEBU?$adaptor_functor@V?$pointer_functor2@AEBVVariantBase@Glib@@AEBV?$slot@XAEBVustring@Glib@@Unil@sigc@@U34@U34@U34@U34@U34@@sigc@@X@sigc@@@1@@Z
    ??$do_visit_each@U?$limit_derived_target@PEAUtrackable@sigc@@Uslot_do_bind@internal@2@@internal@sigc@@@?$visitor@V?$bound_argument@V?$slot@XAEBVustring@Glib@@Unil@sigc@@U34@U34@U34@U34@U34@@sigc@@@sigc@@@sigc@@SAXAEBU?$limit_derived_target@PEAUtrackable@sigc@@Uslot_do_bind@internal@2@@internal@1@AEBV?$bound_argument@V?$slot@XAEBVustring@Glib@@Unil@sigc@@U34@U34@U34@U34@U34@@sigc@@@1@@Z
    ??$do_visit_each@U?$limit_derived_target@PEAUtrackable@sigc@@Uslot_do_bind@internal@2@@internal@sigc@@@?$visitor@U?$adaptor_functor@V?$slot@XUnil@sigc@@U12@U12@U12@U12@U12@U12@@sigc@@@sigc@@@sigc@@SAXAEBU?$limit_derived_target@PEAUtrackable@sigc@@Uslot_do_bind@internal@2@@internal@1@AEBU?$adaptor_functor@V?$slot@XUnil@sigc@@U12@U12@U12@U12@U12@U12@@sigc@@@1@@Z
    ??$visit_each@U?$limit_derived_target@PEAUtrackable@sigc@@Uslot_do_unbind@internal@2@@internal@sigc@@U?$adaptor_functor@V?$pointer_functor2@AEBVVariantBase@Glib@@AEBV?$slot@XHUnil@sigc@@U12@U12@U12@U12@U12@@sigc@@X@sigc@@@3@@sigc@@YAXAEBU?$limit_derived_target@PEAUtrackable@sigc@@Uslot_do_unbind@internal@2@@internal@0@AEBU?$adaptor_functor@V?$pointer_functor2@AEBVVariantBase@Glib@@AEBV?$slot@XHUnil@sigc@@U12@U12@U12@U12@U12@@sigc@@X@sigc@@@0@@Z
    ??$visit_each@U?$limit_derived_target@PEAUtrackable@sigc@@Uslot_do_unbind@internal@2@@internal@sigc@@V?$bound_argument@V?$slot@XHUnil@sigc@@U12@U12@U12@U12@U12@@sigc@@@3@@sigc@@YAXAEBU?$limit_derived_target@PEAUtrackable@sigc@@Uslot_do_unbind@internal@2@@internal@0@AEBV?$bound_argument@V?$slot@XHUnil@sigc@@U12@U12@U12@U12@U12@@sigc@@@0@@Z
    ??$visit_each@U?$limit_derived_target@PEAUtrackable@sigc@@Uslot_do_unbind@internal@2@@internal@sigc@@U?$adaptor_functor@V?$pointer_functor2@AEBVVariantBase@Glib@@AEBV?$slot@XAEBVustring@Glib@@Unil@sigc@@U34@U34@U34@U34@U34@@sigc@@X@sigc@@@3@@sigc@@YAXAEBU?$limit_derived_target@PEAUtrackable@sigc@@Uslot_do_unbind@internal@2@@internal@0@AEBU?$adaptor_functor@V?$pointer_functor2@AEBVVariantBase@Glib@@AEBV?$slot@XAEBVustring@Glib@@Unil@sigc@@U34@U34@U34@U34@U34@@sigc@@X@sigc@@@0@@Z
    ??$visit_each@U?$limit_derived_target@PEAUtrackable@sigc@@Uslot_do_unbind@internal@2@@internal@sigc@@V?$bound_argument@V?$slot@XAEBVustring@Glib@@Unil@sigc@@U34@U34@U34@U34@U34@@sigc@@@3@@sigc@@YAXAEBU?$limit_derived_target@PEAUtrackable@sigc@@Uslot_do_unbind@internal@2@@internal@0@AEBV?$bound_argument@V?$slot@XAEBVustring@Glib@@Unil@sigc@@U34@U34@U34@U34@U34@@sigc@@@0@@Z
    ??$visit_each@U?$limit_derived_target@PEAUtrackable@sigc@@Uslot_do_unbind@internal@2@@internal@sigc@@U?$adaptor_functor@V?$slot@XUnil@sigc@@U12@U12@U12@U12@U12@U12@@sigc@@@3@@sigc@@YAXAEBU?$limit_derived_target@PEAUtrackable@sigc@@Uslot_do_unbind@internal@2@@internal@0@AEBU?$adaptor_functor@V?$slot@XUnil@sigc@@U12@U12@U12@U12@U12@U12@@sigc@@@0@@Z
    ??$visit_each@U?$limit_derived_target@PEAUtrackable@sigc@@Uslot_do_bind@internal@2@@internal@sigc@@V?$pointer_functor2@AEBVVariantBase@Glib@@AEBV?$slot@XHUnil@sigc@@U12@U12@U12@U12@U12@@sigc@@X@3@@sigc@@YAXAEBU?$limit_derived_target@PEAUtrackable@sigc@@Uslot_do_bind@internal@2@@internal@0@AEBV?$pointer_functor2@AEBVVariantBase@Glib@@AEBV?$slot@XHUnil@sigc@@U12@U12@U12@U12@U12@@sigc@@X@0@@Z
    ??$visit_each@U?$limit_derived_target@PEAUtrackable@sigc@@Uslot_do_bind@internal@2@@internal@sigc@@V?$slot@XHUnil@sigc@@U12@U12@U12@U12@U12@@3@@sigc@@YAXAEBU?$limit_derived_target@PEAUtrackable@sigc@@Uslot_do_bind@internal@2@@internal@0@AEBV?$slot@XHUnil@sigc@@U12@U12@U12@U12@U12@@0@@Z
    ??$visit_each@U?$limit_derived_target@PEAUtrackable@sigc@@Uslot_do_bind@internal@2@@internal@sigc@@V?$pointer_functor2@AEBVVariantBase@Glib@@AEBV?$slot@XAEBVustring@Glib@@Unil@sigc@@U34@U34@U34@U34@U34@@sigc@@X@3@@sigc@@YAXAEBU?$limit_derived_target@PEAUtrackable@sigc@@Uslot_do_bind@internal@2@@internal@0@AEBV?$pointer_functor2@AEBVVariantBase@Glib@@AEBV?$slot@XAEBVustring@Glib@@Unil@sigc@@U34@U34@U34@U34@U34@@sigc@@X@0@@Z
    ??$visit_each@U?$limit_derived_target@PEAUtrackable@sigc@@Uslot_do_bind@internal@2@@internal@sigc@@V?$slot@XAEBVustring@Glib@@Unil@sigc@@U34@U34@U34@U34@U34@@3@@sigc@@YAXAEBU?$limit_derived_target@PEAUtrackable@sigc@@Uslot_do_bind@internal@2@@internal@0@AEBV?$slot@XAEBVustring@Glib@@Unil@sigc@@U34@U34@U34@U34@U34@@0@@Z
    ??$visit_each@U?$limit_derived_target@PEAUtrackable@sigc@@Uslot_do_bind@internal@2@@internal@sigc@@V?$slot@XUnil@sigc@@U12@U12@U12@U12@U12@U12@@3@@sigc@@YAXAEBU?$limit_derived_target@PEAUtrackable@sigc@@Uslot_do_bind@internal@2@@internal@0@AEBV?$slot@XUnil@sigc@@U12@U12@U12@U12@U12@U12@@0@@Z
    ??$do_visit_each@U?$limit_derived_target@PEAUtrackable@sigc@@Uslot_do_unbind@internal@2@@internal@sigc@@@?$visitor@U?$adaptor_functor@V?$pointer_functor2@AEBVVariantBase@Glib@@AEBV?$slot@XHUnil@sigc@@U12@U12@U12@U12@U12@@sigc@@X@sigc@@@sigc@@@sigc@@SAXAEBU?$limit_derived_target@PEAUtrackable@sigc@@Uslot_do_unbind@internal@2@@internal@1@AEBU?$adaptor_functor@V?$pointer_functor2@AEBVVariantBase@Glib@@AEBV?$slot@XHUnil@sigc@@U12@U12@U12@U12@U12@@sigc@@X@sigc@@@1@@Z
    ??$do_visit_each@U?$limit_derived_target@PEAUtrackable@sigc@@Uslot_do_unbind@internal@2@@internal@sigc@@@?$visitor@V?$bound_argument@V?$slot@XHUnil@sigc@@U12@U12@U12@U12@U12@@sigc@@@sigc@@@sigc@@SAXAEBU?$limit_derived_target@PEAUtrackable@sigc@@Uslot_do_unbind@internal@2@@internal@1@AEBV?$bound_argument@V?$slot@XHUnil@sigc@@U12@U12@U12@U12@U12@@sigc@@@1@@Z
    ??$do_visit_each@U?$limit_derived_target@PEAUtrackable@sigc@@Uslot_do_unbind@internal@2@@internal@sigc@@@?$visitor@U?$adaptor_functor@V?$pointer_functor2@AEBVVariantBase@Glib@@AEBV?$slot@XAEBVustring@Glib@@Unil@sigc@@U34@U34@U34@U34@U34@@sigc@@X@sigc@@@sigc@@@sigc@@SAXAEBU?$limit_derived_target@PEAUtrackable@sigc@@Uslot_do_unbind@internal@2@@internal@1@AEBU?$adaptor_functor@V?$pointer_functor2@AEBVVariantBase@Glib@@AEBV?$slot@XAEBVustring@Glib@@Unil@sigc@@U34@U34@U34@U34@U34@@sigc@@X@sigc@@@1@@Z
    ??$do_visit_each@U?$limit_derived_target@PEAUtrackable@sigc@@Uslot_do_unbind@internal@2@@internal@sigc@@@?$visitor@V?$bound_argument@V?$slot@XAEBVustring@Glib@@Unil@sigc@@U34@U34@U34@U34@U34@@sigc@@@sigc@@@sigc@@SAXAEBU?$limit_derived_target@PEAUtrackable@sigc@@Uslot_do_unbind@internal@2@@internal@1@AEBV?$bound_argument@V?$slot@XAEBVustring@Glib@@Unil@sigc@@U34@U34@U34@U34@U34@@sigc@@@1@@Z
    ??$do_visit_each@U?$limit_derived_target@PEAUtrackable@sigc@@Uslot_do_unbind@internal@2@@internal@sigc@@@?$visitor@U?$adaptor_functor@V?$slot@XUnil@sigc@@U12@U12@U12@U12@U12@U12@@sigc@@@sigc@@@sigc@@SAXAEBU?$limit_derived_target@PEAUtrackable@sigc@@Uslot_do_unbind@internal@2@@internal@1@AEBU?$adaptor_functor@V?$slot@XUnil@sigc@@U12@U12@U12@U12@U12@U12@@sigc@@@1@@Z
    ??$do_visit_each@U?$limit_derived_target@PEAUtrackable@sigc@@Uslot_do_bind@internal@2@@internal@sigc@@@?$visitor@V?$pointer_functor2@AEBVVariantBase@Glib@@AEBV?$slot@XHUnil@sigc@@U12@U12@U12@U12@U12@@sigc@@X@sigc@@@sigc@@SAXAEBU?$limit_derived_target@PEAUtrackable@sigc@@Uslot_do_bind@internal@2@@internal@1@AEBV?$pointer_functor2@AEBVVariantBase@Glib@@AEBV?$slot@XHUnil@sigc@@U12@U12@U12@U12@U12@@sigc@@X@1@@Z
    ?do_visit_each@?$visitor@V?$slot@XHUnil@sigc@@U12@U12@U12@U12@U12@@sigc@@@sigc@@SAXAEBU?$limit_derived_target@PEAUtrackable@sigc@@Uslot_do_bind@internal@2@@internal@2@AEBV?$slot@XHUnil@sigc@@U12@U12@U12@U12@U12@@2@@Z
    ?do_visit_each@?$visitor@V?$slot@XHUnil@sigc@@U12@U12@U12@U12@U12@@sigc@@@sigc@@SAXAEBU?$limit_derived_target@PEAUtrackable@sigc@@Uslot_do_unbind@internal@2@@internal@2@AEBV?$slot@XHUnil@sigc@@U12@U12@U12@U12@U12@@2@@Z
    ??$do_visit_each@U?$limit_derived_target@PEAUtrackable@sigc@@Uslot_do_bind@internal@2@@internal@sigc@@@?$visitor@V?$pointer_functor2@AEBVVariantBase@Glib@@AEBV?$slot@XAEBVustring@Glib@@Unil@sigc@@U34@U34@U34@U34@U34@@sigc@@X@sigc@@@sigc@@SAXAEBU?$limit_derived_target@PEAUtrackable@sigc@@Uslot_do_bind@internal@2@@internal@1@AEBV?$pointer_functor2@AEBVVariantBase@Glib@@AEBV?$slot@XAEBVustring@Glib@@Unil@sigc@@U34@U34@U34@U34@U34@@sigc@@X@1@@Z
    ?do_visit_each@?$visitor@V?$slot@XAEBVustring@Glib@@Unil@sigc@@U34@U34@U34@U34@U34@@sigc@@@sigc@@SAXAEBU?$limit_derived_target@PEAUtrackable@sigc@@Uslot_do_bind@internal@2@@internal@2@AEBV?$slot@XAEBVustring@Glib@@Unil@sigc@@U34@U34@U34@U34@U34@@2@@Z
    ?do_visit_each@?$visitor@V?$slot@XAEBVustring@Glib@@Unil@sigc@@U34@U34@U34@U34@U34@@sigc@@@sigc@@SAXAEBU?$limit_derived_target@PEAUtrackable@sigc@@Uslot_do_unbind@internal@2@@internal@2@AEBV?$slot@XAEBVustring@Glib@@Unil@sigc@@U34@U34@U34@U34@U34@@2@@Z
    ?do_visit_each@?$visitor@V?$slot@XUnil@sigc@@U12@U12@U12@U12@U12@U12@@sigc@@@sigc@@SAXAEBU?$limit_derived_target@PEAUtrackable@sigc@@Uslot_do_bind@internal@2@@internal@2@AEBV?$slot@XUnil@sigc@@U12@U12@U12@U12@U12@U12@@2@@Z
    ?do_visit_each@?$visitor@V?$slot@XUnil@sigc@@U12@U12@U12@U12@U12@U12@@sigc@@@sigc@@SAXAEBU?$limit_derived_target@PEAUtrackable@sigc@@Uslot_do_unbind@internal@2@@internal@2@AEBV?$slot@XUnil@sigc@@U12@U12@U12@U12@U12@U12@@2@@Z
    ??$visit_each@U?$limit_derived_target@PEAUtrackable@sigc@@Uslot_do_unbind@internal@2@@internal@sigc@@V?$pointer_functor2@AEBVVariantBase@Glib@@AEBV?$slot@XHUnil@sigc@@U12@U12@U12@U12@U12@@sigc@@X@3@@sigc@@YAXAEBU?$limit_derived_target@PEAUtrackable@sigc@@Uslot_do_unbind@internal@2@@internal@0@AEBV?$pointer_functor2@AEBVVariantBase@Glib@@AEBV?$slot@XHUnil@sigc@@U12@U12@U12@U12@U12@@sigc@@X@0@@Z
    ??$visit_each@U?$limit_derived_target@PEAUtrackable@sigc@@Uslot_do_unbind@internal@2@@internal@sigc@@V?$slot@XHUnil@sigc@@U12@U12@U12@U12@U12@@3@@sigc@@YAXAEBU?$limit_derived_target@PEAUtrackable@sigc@@Uslot_do_unbind@internal@2@@internal@0@AEBV?$slot@XHUnil@sigc@@U12@U12@U12@U12@U12@@0@@Z
    ??$visit_each@U?$limit_derived_target@PEAUtrackable@sigc@@Uslot_do_unbind@internal@2@@internal@sigc@@V?$pointer_functor2@AEBVVariantBase@Glib@@AEBV?$slot@XAEBVustring@Glib@@Unil@sigc@@U34@U34@U34@U34@U34@@sigc@@X@3@@sigc@@YAXAEBU?$limit_derived_target@PEAUtrackable@sigc@@Uslot_do_unbind@internal@2@@internal@0@AEBV?$pointer_functor2@AEBVVariantBase@Glib@@AEBV?$slot@XAEBVustring@Glib@@Unil@sigc@@U34@U34@U34@U34@U34@@sigc@@X@0@@Z
    ??$visit_each@U?$limit_derived_target@PEAUtrackable@sigc@@Uslot_do_unbind@internal@2@@internal@sigc@@V?$slot@XAEBVustring@Glib@@Unil@sigc@@U34@U34@U34@U34@U34@@3@@sigc@@YAXAEBU?$limit_derived_target@PEAUtrackable@sigc@@Uslot_do_unbind@internal@2@@internal@0@AEBV?$slot@XAEBVustring@Glib@@Unil@sigc@@U34@U34@U34@U34@U34@@0@@Z
    ??$visit_each@U?$limit_derived_target@PEAUtrackable@sigc@@Uslot_do_unbind@internal@2@@internal@sigc@@V?$slot@XUnil@sigc@@U12@U12@U12@U12@U12@U12@@3@@sigc@@YAXAEBU?$limit_derived_target@PEAUtrackable@sigc@@Uslot_do_unbind@internal@2@@internal@0@AEBV?$slot@XUnil@sigc@@U12@U12@U12@U12@U12@U12@@0@@Z
    ??$?RV?$pointer_functor2@AEBVVariantBase@Glib@@AEBV?$slot@XHUnil@sigc@@U12@U12@U12@U12@U12@@sigc@@X@sigc@@@?$limit_derived_target@PEAUtrackable@sigc@@Uslot_do_bind@internal@2@@internal@sigc@@QEBAXAEBV?$pointer_functor2@AEBVVariantBase@Glib@@AEBV?$slot@XHUnil@sigc@@U12@U12@U12@U12@U12@@sigc@@X@2@@Z
    ??$?RV?$pointer_functor2@AEBVVariantBase@Glib@@AEBV?$slot@XAEBVustring@Glib@@Unil@sigc@@U34@U34@U34@U34@U34@@sigc@@X@sigc@@@?$limit_derived_target@PEAUtrackable@sigc@@Uslot_do_bind@internal@2@@internal@sigc@@QEBAXAEBV?$pointer_functor2@AEBVVariantBase@Glib@@AEBV?$slot@XAEBVustring@Glib@@Unil@sigc@@U34@U34@U34@U34@U34@@sigc@@X@2@@Z
    ??$do_visit_each@U?$limit_derived_target@PEAUtrackable@sigc@@Uslot_do_unbind@internal@2@@internal@sigc@@@?$visitor@V?$pointer_functor2@AEBVVariantBase@Glib@@AEBV?$slot@XHUnil@sigc@@U12@U12@U12@U12@U12@@sigc@@X@sigc@@@sigc@@SAXAEBU?$limit_derived_target@PEAUtrackable@sigc@@Uslot_do_unbind@internal@2@@internal@1@AEBV?$pointer_functor2@AEBVVariantBase@Glib@@AEBV?$slot@XHUnil@sigc@@U12@U12@U12@U12@U12@@sigc@@X@1@@Z
    ??$do_visit_each@U?$limit_derived_target@PEAUtrackable@sigc@@Uslot_do_unbind@internal@2@@internal@sigc@@@?$visitor@V?$pointer_functor2@AEBVVariantBase@Glib@@AEBV?$slot@XAEBVustring@Glib@@Unil@sigc@@U34@U34@U34@U34@U34@@sigc@@X@sigc@@@sigc@@SAXAEBU?$limit_derived_target@PEAUtrackable@sigc@@Uslot_do_unbind@internal@2@@internal@1@AEBV?$pointer_functor2@AEBVVariantBase@Glib@@AEBV?$slot@XAEBVustring@Glib@@Unil@sigc@@U34@U34@U34@U34@U34@@sigc@@X@1@@Z
    ?execute_@?$with_type_pointer@$0A@V?$pointer_functor2@AEBVVariantBase@Glib@@AEBV?$slot@XHUnil@sigc@@U12@U12@U12@U12@U12@@sigc@@X@sigc@@U?$limit_derived_target@PEAUtrackable@sigc@@Uslot_do_bind@internal@2@@internal@2@@internal@sigc@@SAXAEBV?$pointer_functor2@AEBVVariantBase@Glib@@AEBV?$slot@XHUnil@sigc@@U12@U12@U12@U12@U12@@sigc@@X@3@AEBU?$limit_derived_target@PEAUtrackable@sigc@@Uslot_do_bind@internal@2@@23@@Z
    ?execute_@?$with_type_pointer@$0A@V?$pointer_functor2@AEBVVariantBase@Glib@@AEBV?$slot@XAEBVustring@Glib@@Unil@sigc@@U34@U34@U34@U34@U34@@sigc@@X@sigc@@U?$limit_derived_target@PEAUtrackable@sigc@@Uslot_do_bind@internal@2@@internal@2@@internal@sigc@@SAXAEBV?$pointer_functor2@AEBVVariantBase@Glib@@AEBV?$slot@XAEBVustring@Glib@@Unil@sigc@@U34@U34@U34@U34@U34@@sigc@@X@3@AEBU?$limit_derived_target@PEAUtrackable@sigc@@Uslot_do_bind@internal@2@@23@@Z
    ??$?RV?$pointer_functor2@AEBVVariantBase@Glib@@AEBV?$slot@XHUnil@sigc@@U12@U12@U12@U12@U12@@sigc@@X@sigc@@@?$limit_derived_target@PEAUtrackable@sigc@@Uslot_do_unbind@internal@2@@internal@sigc@@QEBAXAEBV?$pointer_functor2@AEBVVariantBase@Glib@@AEBV?$slot@XHUnil@sigc@@U12@U12@U12@U12@U12@@sigc@@X@2@@Z
    ??$?RV?$pointer_functor2@AEBVVariantBase@Glib@@AEBV?$slot@XAEBVustring@Glib@@Unil@sigc@@U34@U34@U34@U34@U34@@sigc@@X@sigc@@@?$limit_derived_target@PEAUtrackable@sigc@@Uslot_do_unbind@internal@2@@internal@sigc@@QEBAXAEBV?$pointer_functor2@AEBVVariantBase@Glib@@AEBV?$slot@XAEBVustring@Glib@@Unil@sigc@@U34@U34@U34@U34@U34@@sigc@@X@2@@Z
    ?execute_@?$with_type_pointer@$0A@V?$pointer_functor2@AEBVVariantBase@Glib@@AEBV?$slot@XHUnil@sigc@@U12@U12@U12@U12@U12@@sigc@@X@sigc@@U?$limit_derived_target@PEAUtrackable@sigc@@Uslot_do_unbind@internal@2@@internal@2@@internal@sigc@@SAXAEBV?$pointer_functor2@AEBVVariantBase@Glib@@AEBV?$slot@XHUnil@sigc@@U12@U12@U12@U12@U12@@sigc@@X@3@AEBU?$limit_derived_target@PEAUtrackable@sigc@@Uslot_do_unbind@internal@2@@23@@Z
    ?execute_@?$with_type_pointer@$0A@V?$pointer_functor2@AEBVVariantBase@Glib@@AEBV?$slot@XAEBVustring@Glib@@Unil@sigc@@U34@U34@U34@U34@U34@@sigc@@X@sigc@@U?$limit_derived_target@PEAUtrackable@sigc@@Uslot_do_unbind@internal@2@@internal@2@@internal@sigc@@SAXAEBV?$pointer_functor2@AEBVVariantBase@Glib@@AEBV?$slot@XAEBVustring@Glib@@Unil@sigc@@U34@U34@U34@U34@U34@@sigc@@X@3@AEBU?$limit_derived_target@PEAUtrackable@sigc@@Uslot_do_unbind@internal@2@@23@@Z
    ??_7exception@std@@6B@
    ??_C@_0BC@EOODALEL@Unknown?5exception@
    ??_R0?AVexception@std@@@8
    _CT??_R0?AVexception@std@@@8??0exception@std@@QEAA@AEBV01@@Z24
    ??_7bad_cast@std@@6B@
    ??_C@_08EPJLHIJG@bad?5cast@
    _TI2?AVbad_cast@std@@
    _CTA2?AVbad_cast@std@@
    ??_R0?AVbad_cast@std@@@8
    _CT??_R0?AVbad_cast@std@@@8??0bad_cast@std@@QEAA@AEBV01@@Z24
    ??_7ActionMap@Gio@@6B01@@
    ??_7ActionMap@Gio@@6BInterface@Glib@@@
    ??_8ActionMap@Gio@@7BInterface@Glib@@@
    ??_8ActionMap@Gio@@7BObjectBase@Glib@@@
    ??_C@_0BB@DJDNGIAO@klass?5?$CB?$DN?5nullptr@
    ??_C@_0CK@EDPIPPAF@Gio?3?3ActionMap_Class?3?3iface_ini@
    ??_C@_0BK@CBBPPEEJ@?4?4?2gio?2giomm?2actionmap?4cc@
    ??_R0?AVObjectBase@Glib@@@8
    ??_R0?AVActionMap@Gio@@@8
    ??_C@_0FM@MEPOJGMK@Glib?3?3wrap_auto_interface?$CI?$CJ?3?5Th@
    ??_R4exception@std@@6B@
    ??_R3exception@std@@8
    ??_R2exception@std@@8
    ??_R1A@?0A@EA@exception@std@@8
    ??_R4bad_cast@std@@6B@
    ??_R3bad_cast@std@@8
    ??_R2bad_cast@std@@8
    ??_R1A@?0A@EA@bad_cast@std@@8
    ??_R4ActionMap@Gio@@6B01@@
    ??_R3ActionMap@Gio@@8
    ??_R2ActionMap@Gio@@8
    ??_R1A@?0A@EA@ActionMap@Gio@@8
    ??_R17?0A@EA@Interface@Glib@@8
    ??_R0?AVInterface@Glib@@@8
    ??_R3Interface@Glib@@8
    ??_R2Interface@Glib@@8
    ??_R1A@?0A@EA@Interface@Glib@@8
    ??_R1A@A@7FA@ObjectBase@Glib@@8
    ??_R3ObjectBase@Glib@@8
    ??_R2ObjectBase@Glib@@8
    ??_R1A@?0A@EA@ObjectBase@Glib@@8
    ??_R1A@73FA@trackable@sigc@@8
    ??_R0?AUtrackable@sigc@@@8
    ??_R3trackable@sigc@@8
    ??_R2trackable@sigc@@8
    ??_R1A@?0A@EA@trackable@sigc@@8
    ??_R1A@A@3FA@trackable@sigc@@8
    ??_R1A@77FA@ObjectBase@Glib@@8
    ??_R4ActionMap@Gio@@6BInterface@Glib@@@
    ?appinfo_class_@AppInfo@Gio@@0VAppInfo_Class@2@A
    ?__empty_global_delete@@YAXPEAX@Z
    ?__empty_global_delete@@YAXPEAX_K@Z
    ??2@YAPEAX_KPEAX@Z
    ??0exception@std@@QEAA@QEBDH@Z
    ??0exception@std@@QEAA@AEBV01@@Z
    ??1exception@std@@UEAA@XZ
    ?what@exception@std@@UEBAPEBDXZ
    ??0bad_alloc@std@@AEAA@QEBD@Z
    ??1bad_alloc@std@@UEAA@XZ
    ??0bad_alloc@std@@QEAA@AEBV01@@Z
    ??0bad_array_new_length@std@@QEAA@XZ
    ??1bad_array_new_length@std@@UEAA@XZ
    ??0bad_array_new_length@std@@QEAA@AEBV01@@Z
    ?copy@?$_Char_traits@DH@std@@SAPEADQEADQEBD_K@Z
    ?length@?$_Narrow_char_traits@DH@std@@SA_KQEBD@Z
    ?assign@?$_Narrow_char_traits@DH@std@@SAXAEADAEBD@Z
    ?_Throw_bad_array_new_length@std@@YAXXZ
    ?_Allocate@_Default_allocate_traits@std@@SAPEAX_K@Z
    ?_Adjust_manually_vector_aligned@std@@YAXAEAPEAXAEA_K@Z
    ?_Orphan_all@_Container_base0@std@@QEAAXXZ
    ?_Swap_proxy_and_iterators@_Container_base0@std@@QEAAXAEAU12@@Z
    ?_Alloc_proxy@_Container_base0@std@@QEAAXAEBU_Fake_allocator@2@@Z
    ?_Adopt@_Iterator_base0@std@@QEAAXPEBX@Z
    ??0_Fake_proxy_ptr_impl@std@@QEAA@AEBU_Fake_allocator@1@AEBU_Container_base0@1@@Z
    ?_Release@_Fake_proxy_ptr_impl@std@@QEAAXXZ
    ?_Xlen_string@std@@YAXXZ
    ??0?$allocator@D@std@@QEAA@XZ
    ?deallocate@?$allocator@D@std@@QEAAXQEAD_K@Z
    ?allocate@?$allocator@D@std@@QEAAPEAD_K@Z
    ?max_size@?$_Default_allocator_traits@V?$allocator@D@std@@@std@@SA_KAEBV?$allocator@D@2@@Z
    ?select_on_container_copy_construction@?$_Default_allocator_traits@V?$allocator@D@std@@@std@@SA?AV?$allocator@D@2@AEBV32@@Z
    ??0?$_String_val@U?$_Simple_types@D@std@@@std@@QEAA@XZ
    ?_Myptr@?$_String_val@U?$_Simple_types@D@std@@@std@@QEBAPEBDXZ
    ?_Large_mode_engaged@?$_String_val@U?$_Simple_types@D@std@@@std@@QEBA_NXZ
    ?_Activate_SSO_buffer@?$_String_val@U?$_Simple_types@D@std@@@std@@QEAAXXZ
    ??0_Bxty@?$_String_val@U?$_Simple_types@D@std@@@std@@QEAA@XZ
    ??1_Bxty@?$_String_val@U?$_Simple_types@D@std@@@std@@QEAA@XZ
    ?_Switch_to_buf@_Bxty@?$_String_val@U?$_Simple_types@D@std@@@std@@QEAAXXZ
    ??1?$_String_val@U?$_Simple_types@D@std@@@std@@QEAA@XZ
    ??0?$basic_string@DU?$char_traits@D@std@@V?$allocator@D@2@@std@@QEAA@XZ
    ??0?$basic_string@DU?$char_traits@D@std@@V?$allocator@D@2@@std@@QEAA@AEBV01@@Z
    ??0?$basic_string@DU?$char_traits@D@std@@V?$allocator@D@2@@std@@QEAA@QEBD@Z
    ?_Deallocate_for_capacity@?$basic_string@DU?$char_traits@D@std@@V?$allocator@D@2@@std@@CAXAEAV?$allocator@D@2@QEAD_K@Z
    ?_Construct_empty@?$basic_string@DU?$char_traits@D@std@@V?$allocator@D@2@@std@@AEAAXXZ
    ??0?$basic_string@DU?$char_traits@D@std@@V?$allocator@D@2@@std@@QEAA@$$QEAV01@@Z
    ?_Take_contents@?$basic_string@DU?$char_traits@D@std@@V?$allocator@D@2@@std@@AEAAXAEAV12@@Z
    ??1?$basic_string@DU?$char_traits@D@std@@V?$allocator@D@2@@std@@QEAA@XZ
    ?c_str@?$basic_string@DU?$char_traits@D@std@@V?$allocator@D@2@@std@@QEBAPEBDXZ
    ?max_size@?$basic_string@DU?$char_traits@D@std@@V?$allocator@D@2@@std@@QEBA_KXZ
    ?_Calculate_growth@?$basic_string@DU?$char_traits@D@std@@V?$allocator@D@2@@std@@CA_K_K00@Z
    ?_Tidy_deallocate@?$basic_string@DU?$char_traits@D@std@@V?$allocator@D@2@@std@@AEAAXXZ
    ?_Swap_proxy_and_iterators@?$basic_string@DU?$char_traits@D@std@@V?$allocator@D@2@@std@@AEAAXAEAV12@@Z
    ?_Getal@?$basic_string@DU?$char_traits@D@std@@V?$allocator@D@2@@std@@AEAAAEAV?$allocator@D@2@XZ
    ?_Getal@?$basic_string@DU?$char_traits@D@std@@V?$allocator@D@2@@std@@AEBAAEBV?$allocator@D@2@XZ
    ?_Get_first@?$_Compressed_pair@V?$allocator@D@std@@V?$_String_val@U?$_Simple_types@D@std@@@2@$00@std@@QEAAAEAV?$allocator@D@2@XZ
    ?_Get_first@?$_Compressed_pair@V?$allocator@D@std@@V?$_String_val@U?$_Simple_types@D@std@@@2@$00@std@@QEBAAEBV?$allocator@D@2@XZ
    ??1?$_Compressed_pair@V?$allocator@D@std@@V?$_String_val@U?$_Simple_types@D@std@@@2@$00@std@@QEAA@XZ
    ?name@type_info@@QEBAPEBDXZ
    ?get_type@Class@Glib@@QEBA_KXZ
    ?release_c_type@?$TypeTraits@Vustring@Glib@@@Container_Helpers@Glib@@SAXPEBD@Z
    ?to_c_type@?$TypeTraits@V?$basic_string@DU?$char_traits@D@std@@V?$allocator@D@2@@std@@@Container_Helpers@Glib@@SAPEBDAEBV?$basic_string@DU?$char_traits@D@std@@V?$allocator@D@2@@std@@@Z
    ?release_c_type@?$TypeTraits@V?$basic_string@DU?$char_traits@D@std@@V?$allocator@D@2@@std@@@Container_Helpers@Glib@@SAXPEBD@Z
    ?convert_const_gchar_ptr_to_stdstring@Glib@@YA?AV?$basic_string@DU?$char_traits@D@std@@V?$allocator@D@2@@std@@PEBD@Z
    ?gobj@AppLaunchContext@Gio@@QEAAPEAU_GAppLaunchContext@@XZ
    ?gobj@AsyncResult@Gio@@QEAAPEAU_GAsyncResult@@XZ
    ?gobj@Cancellable@Gio@@QEAAPEAU_GCancellable@@XZ
    ??0AppInfo@Gio@@IEAA@XZ
    ??0AppInfo@Gio@@IEAA@AEBVInterface_Class@Glib@@@Z
    ??0AppInfo@Gio@@QEAA@PEAU_GAppInfo@@@Z
    ??0AppInfo@Gio@@QEAA@$$QEAV01@@Z
    ??4AppInfo@Gio@@QEAAAEAV01@$$QEAV01@@Z
    ??1AppInfo@Gio@@UEAA@XZ
    ?add_interface@AppInfo@Gio@@SAX_K@Z
    ?get_type@AppInfo@Gio@@SA_KXZ
    ?get_base_type@AppInfo@Gio@@SA_KXZ
    ?gobj@AppInfo@Gio@@QEAAPEAU_GAppInfo@@XZ
    ?gobj@AppInfo@Gio@@QEBAPEBU_GAppInfo@@XZ
    ?create_from_commandline@AppInfo@Gio@@SA?AV?$RefPtr@VAppInfo@Gio@@@Glib@@AEBV?$basic_string@DU?$char_traits@D@std@@V?$allocator@D@2@@std@@0W4AppInfoCreateFlags@2@@Z
    ?create_duplicate@AppInfo@Gio@@QEBA?AV?$RefPtr@VAppInfo@Gio@@@Glib@@XZ
    ?equal@AppInfo@Gio@@QEBA_NAEBV?$RefPtr@VAppInfo@Gio@@@Glib@@@Z
    ?get_id@AppInfo@Gio@@QEBA?AV?$basic_string@DU?$char_traits@D@std@@V?$allocator@D@2@@std@@XZ
    ?get_name@AppInfo@Gio@@QEBA?AV?$basic_string@DU?$char_traits@D@std@@V?$allocator@D@2@@std@@XZ
    ?get_display_name@AppInfo@Gio@@QEBA?AV?$basic_string@DU?$char_traits@D@std@@V?$allocator@D@2@@std@@XZ
    ?get_description@AppInfo@Gio@@QEBA?AV?$basic_string@DU?$char_traits@D@std@@V?$allocator@D@2@@std@@XZ
    ?get_executable@AppInfo@Gio@@QEBA?AV?$basic_string@DU?$char_traits@D@std@@V?$allocator@D@2@@std@@XZ
    ?get_commandline@AppInfo@Gio@@QEBA?AV?$basic_string@DU?$char_traits@D@std@@V?$allocator@D@2@@std@@XZ
    ?get_icon@AppInfo@Gio@@QEAA?AV?$RefPtr@VIcon@Gio@@@Glib@@XZ
    ?get_icon@AppInfo@Gio@@QEBA?BV?$RefPtr@$$CBVIcon@Gio@@@Glib@@XZ
    ?launch@AppInfo@Gio@@QEAA_NAEBV?$RefPtr@VFile@Gio@@@Glib@@AEBV?$RefPtr@VAppLaunchContext@Gio@@@4@@Z
    ?launch@AppInfo@Gio@@QEAA_NAEBV?$RefPtr@VFile@Gio@@@Glib@@@Z
    ?launch@AppInfo@Gio@@QEAA_NAEBV?$vector@V?$RefPtr@VFile@Gio@@@Glib@@V?$allocator@V?$RefPtr@VFile@Gio@@@Glib@@@std@@@std@@AEBV?$RefPtr@VAppLaunchContext@Gio@@@Glib@@@Z
    ?launch@AppInfo@Gio@@QEAA_NAEBV?$vector@V?$RefPtr@VFile@Gio@@@Glib@@V?$allocator@V?$RefPtr@VFile@Gio@@@Glib@@@std@@@std@@@Z
    ?supports_uris@AppInfo@Gio@@QEBA_NXZ
    ?supports_files@AppInfo@Gio@@QEBA_NXZ
    ?launch_uris@AppInfo@Gio@@QEAA_NAEBV?$ListHandle@V?$basic_string@DU?$char_traits@D@std@@V?$allocator@D@2@@std@@U?$TypeTraits@V?$basic_string@DU?$char_traits@D@std@@V?$allocator@D@2@@std@@@Container_Helpers@Glib@@@Glib@@PEAU_GAppLaunchContext@@@Z
    ?launch_uris@AppInfo@Gio@@QEAA_NAEBV?$ListHandle@V?$basic_string@DU?$char_traits@D@std@@V?$allocator@D@2@@std@@U?$TypeTraits@V?$basic_string@DU?$char_traits@D@std@@V?$allocator@D@2@@std@@@Container_Helpers@Glib@@@Glib@@AEBV?$RefPtr@VAppLaunchContext@Gio@@@4@@Z
    ?launch_uris@AppInfo@Gio@@QEAA_NAEBV?$ListHandle@V?$basic_string@DU?$char_traits@D@std@@V?$allocator@D@2@@std@@U?$TypeTraits@V?$basic_string@DU?$char_traits@D@std@@V?$allocator@D@2@@std@@@Container_Helpers@Glib@@@Glib@@@Z
    ?launch_uri@AppInfo@Gio@@QEAA_NAEBV?$basic_string@DU?$char_traits@D@std@@V?$allocator@D@2@@std@@AEBV?$RefPtr@VAppLaunchContext@Gio@@@Glib@@@Z
    ?launch_uri@AppInfo@Gio@@QEAA_NAEBV?$basic_string@DU?$char_traits@D@std@@V?$allocator@D@2@@std@@@Z
    ?launch_uris_async@AppInfo@Gio@@QEAAXAEBV?$vector@V?$basic_string@DU?$char_traits@D@std@@V?$allocator@D@2@@std@@V?$allocator@V?$basic_string@DU?$char_traits@D@std@@V?$allocator@D@2@@std@@@2@@std@@AEBV?$RefPtr@VAppLaunchContext@Gio@@@Glib@@AEBV?$slot@XAEAV?$RefPtr@VAsyncResult@Gio@@@Glib@@Unil@sigc@@U34@U34@U34@U34@U34@@sigc@@AEBV?$RefPtr@VCancellable@Gio@@@6@@Z
    ?launch_uris_async@AppInfo@Gio@@QEAAXAEBV?$vector@V?$basic_string@DU?$char_traits@D@std@@V?$allocator@D@2@@std@@V?$allocator@V?$basic_string@DU?$char_traits@D@std@@V?$allocator@D@2@@std@@@2@@std@@AEBV?$RefPtr@VAppLaunchContext@Gio@@@Glib@@AEBV?$RefPtr@VCancellable@Gio@@@6@@Z
    ?launch_uris_finish@AppInfo@Gio@@QEAA_NAEBV?$RefPtr@VAsyncResult@Gio@@@Glib@@@Z
    ?should_show@AppInfo@Gio@@QEBA_NXZ
    ?can_delete@AppInfo@Gio@@QEBA_NXZ
    ?do_delete@AppInfo@Gio@@QEAA_NXZ
    ?set_as_default_for_type@AppInfo@Gio@@QEAA_NAEBV?$basic_string@DU?$char_traits@D@std@@V?$allocator@D@2@@std@@@Z
    ?set_as_default_for_extension@AppInfo@Gio@@QEAA_NAEBV?$basic_string@DU?$char_traits@D@std@@V?$allocator@D@2@@std@@@Z
    ?add_supports_type@AppInfo@Gio@@QEAA_NAEBV?$basic_string@DU?$char_traits@D@std@@V?$allocator@D@2@@std@@@Z
    ?can_remove_supports_type@AppInfo@Gio@@QEBA_NXZ
    ?remove_supports_type@AppInfo@Gio@@QEAA_NAEBV?$basic_string@DU?$char_traits@D@std@@V?$allocator@D@2@@std@@@Z
    ?get_supported_types@AppInfo@Gio@@QEBA?AV?$ArrayHandle@Vustring@Glib@@U?$TypeTraits@Vustring@Glib@@@Container_Helpers@2@@Glib@@XZ
    ?set_as_last_used_for_type@AppInfo@Gio@@QEAA_NAEBV?$basic_string@DU?$char_traits@D@std@@V?$allocator@D@2@@std@@@Z
    ?get_all@AppInfo@Gio@@SA?AV?$ListHandle@V?$RefPtr@VAppInfo@Gio@@@Glib@@U?$TypeTraits@V?$RefPtr@VAppInfo@Gio@@@Glib@@@Container_Helpers@2@@Glib@@XZ
    ?get_all_for_type@AppInfo@Gio@@SA?AV?$ListHandle@V?$RefPtr@VAppInfo@Gio@@@Glib@@U?$TypeTraits@V?$RefPtr@VAppInfo@Gio@@@Glib@@@Container_Helpers@2@@Glib@@AEBV?$basic_string@DU?$char_traits@D@std@@V?$allocator@D@2@@std@@@Z
    ?get_default_for_type@AppInfo@Gio@@SA?AV?$RefPtr@VAppInfo@Gio@@@Glib@@AEBV?$basic_string@DU?$char_traits@D@std@@V?$allocator@D@2@@std@@_N@Z
    ?get_default_for_uri_scheme@AppInfo@Gio@@SA?AV?$RefPtr@VAppInfo@Gio@@@Glib@@AEBV?$basic_string@DU?$char_traits@D@std@@V?$allocator@D@2@@std@@@Z
    ?reset_type_associations@AppInfo@Gio@@SAXAEBV?$basic_string@DU?$char_traits@D@std@@V?$allocator@D@2@@std@@@Z
    ?launch_default_for_uri@AppInfo@Gio@@SA_NAEBV?$basic_string@DU?$char_traits@D@std@@V?$allocator@D@2@@std@@AEBV?$RefPtr@VAppLaunchContext@Gio@@@Glib@@@Z
    ?launch_default_for_uri@AppInfo@Gio@@SA_NAEBV?$basic_string@DU?$char_traits@D@std@@V?$allocator@D@2@@std@@@Z
    ?launch_default_for_uri_async@AppInfo@Gio@@SAXAEBV?$basic_string@DU?$char_traits@D@std@@V?$allocator@D@2@@std@@AEBV?$RefPtr@VAppLaunchContext@Gio@@@Glib@@AEBV?$slot@XAEAV?$RefPtr@VAsyncResult@Gio@@@Glib@@Unil@sigc@@U34@U34@U34@U34@U34@@sigc@@AEBV?$RefPtr@VCancellable@Gio@@@6@@Z
    ?launch_default_for_uri_async@AppInfo@Gio@@SAXAEBV?$basic_string@DU?$char_traits@D@std@@V?$allocator@D@2@@std@@AEBV?$RefPtr@VAppLaunchContext@Gio@@@Glib@@AEBV?$slot@XAEAV?$RefPtr@VAsyncResult@Gio@@@Glib@@Unil@sigc@@U34@U34@U34@U34@U34@@sigc@@@Z
    ?launch_default_for_uri_async@AppInfo@Gio@@SAXAEBV?$basic_string@DU?$char_traits@D@std@@V?$allocator@D@2@@std@@AEBV?$RefPtr@VAppLaunchContext@Gio@@@Glib@@AEBV?$RefPtr@VCancellable@Gio@@@6@@Z
    ?launch_default_for_uri_async@AppInfo@Gio@@SAXAEBV?$basic_string@DU?$char_traits@D@std@@V?$allocator@D@2@@std@@AEBV?$RefPtr@VAppLaunchContext@Gio@@@Glib@@@Z
    ?launch_default_for_uri_async@AppInfo@Gio@@SAXAEBV?$basic_string@DU?$char_traits@D@std@@V?$allocator@D@2@@std@@AEBV?$slot@XAEAV?$RefPtr@VAsyncResult@Gio@@@Glib@@Unil@sigc@@U34@U34@U34@U34@U34@@sigc@@AEBV?$RefPtr@VCancellable@Gio@@@Glib@@@Z
    ?launch_default_for_uri_async@AppInfo@Gio@@SAXAEBV?$basic_string@DU?$char_traits@D@std@@V?$allocator@D@2@@std@@AEBV?$slot@XAEAV?$RefPtr@VAsyncResult@Gio@@@Glib@@Unil@sigc@@U34@U34@U34@U34@U34@@sigc@@@Z
    ?launch_default_for_uri_async@AppInfo@Gio@@SAXAEBV?$basic_string@DU?$char_traits@D@std@@V?$allocator@D@2@@std@@AEBV?$RefPtr@VCancellable@Gio@@@Glib@@@Z
    ?launch_default_for_uri_async@AppInfo@Gio@@SAXAEBV?$basic_string@DU?$char_traits@D@std@@V?$allocator@D@2@@std@@@Z
    ?launch_default_for_uri_finish@AppInfo@Gio@@SA_NAEBV?$RefPtr@VAsyncResult@Gio@@@Glib@@@Z
    ??_DAppInfo@Gio@@QEAAXXZ
    ??C?$RefPtr@VCancellable@Gio@@@Glib@@QEBAPEAVCancellable@Gio@@XZ
    ??B?$RefPtr@VCancellable@Gio@@@Glib@@QEBA_NXZ
    ?wrap@Glib@@YA?AV?$RefPtr@VAppInfo@Gio@@@1@PEAU_GAppInfo@@_N@Z
    ?init@AppInfo_Class@Gio@@QEAAAEBVInterface_Class@Glib@@XZ
    ?iface_init_function@AppInfo_Class@Gio@@SAXPEAX0@Z
    ?wrap_new@AppInfo_Class@Gio@@SAPEAVObjectBase@Glib@@PEAU_GObject@@@Z
    ?gobj@File@Gio@@QEAAPEAU_GFile@@XZ
    ?to_c_type@?$TypeTraits@V?$RefPtr@VFile@Gio@@@Glib@@@Container_Helpers@Glib@@SAPEAU_GFile@@AEBV?$RefPtr@VFile@Gio@@@3@@Z
    ?release_c_type@?$TypeTraits@V?$RefPtr@VFile@Gio@@@Glib@@@Container_Helpers@Glib@@SAXPEAU_GFile@@@Z
    ??1?$RefPtr@VFile@Gio@@@Glib@@QEAA@XZ
    ??0?$RefPtr@VFile@Gio@@@Glib@@QEAA@AEBV01@@Z
    ??C?$RefPtr@VFile@Gio@@@Glib@@QEBAPEAVFile@Gio@@XZ
    ??B?$RefPtr@VFile@Gio@@@Glib@@QEBA_NXZ
    ??$unwrap@VFile@Gio@@@Glib@@YAPEAU_GFile@@AEBV?$RefPtr@VFile@Gio@@@0@@Z
    ??1?$RefPtr@VAppInfo@Gio@@@Glib@@QEAA@XZ
    ??0?$RefPtr@VAppInfo@Gio@@@Glib@@QEAA@PEAVAppInfo@Gio@@@Z
    ??C?$RefPtr@VAppInfo@Gio@@@Glib@@QEBAPEAVAppInfo@Gio@@XZ
    ??B?$RefPtr@VAppInfo@Gio@@@Glib@@QEBA_NXZ
    ??0?$allocator@V?$RefPtr@VFile@Gio@@@Glib@@@std@@QEAA@XZ
    ?deallocate@?$allocator@V?$RefPtr@VFile@Gio@@@Glib@@@std@@QEAAXQEAV?$RefPtr@VFile@Gio@@@Glib@@_K@Z
    ?allocate@?$allocator@V?$RefPtr@VFile@Gio@@@Glib@@@std@@QEAAPEAV?$RefPtr@VFile@Gio@@@Glib@@_K@Z
    ?max_size@?$_Default_allocator_traits@V?$allocator@V?$RefPtr@VFile@Gio@@@Glib@@@std@@@std@@SA_KAEBV?$allocator@V?$RefPtr@VFile@Gio@@@Glib@@@2@@Z
    ??0?$vector@V?$RefPtr@VFile@Gio@@@Glib@@V?$allocator@V?$RefPtr@VFile@Gio@@@Glib@@@std@@@std@@QEAA@V?$initializer_list@V?$RefPtr@VFile@Gio@@@Glib@@@1@AEBV?$allocator@V?$RefPtr@VFile@Gio@@@Glib@@@1@@Z
    ??1?$vector@V?$RefPtr@VFile@Gio@@@Glib@@V?$allocator@V?$RefPtr@VFile@Gio@@@Glib@@@std@@@std@@QEAA@XZ
    ?begin@?$vector@V?$RefPtr@VFile@Gio@@@Glib@@V?$allocator@V?$RefPtr@VFile@Gio@@@Glib@@@std@@@std@@QEBA?AV?$_Vector_const_iterator@V?$_Vector_val@U?$_Simple_types@V?$RefPtr@VFile@Gio@@@Glib@@@std@@@std@@@2@XZ
    ?end@?$vector@V?$RefPtr@VFile@Gio@@@Glib@@V?$allocator@V?$RefPtr@VFile@Gio@@@Glib@@@std@@@std@@QEBA?AV?$_Vector_const_iterator@V?$_Vector_val@U?$_Simple_types@V?$RefPtr@VFile@Gio@@@Glib@@@std@@@std@@@2@XZ
    ?max_size@?$vector@V?$RefPtr@VFile@Gio@@@Glib@@V?$allocator@V?$RefPtr@VFile@Gio@@@Glib@@@std@@@std@@QEBA_KXZ
    ?_Buy_raw@?$vector@V?$RefPtr@VFile@Gio@@@Glib@@V?$allocator@V?$RefPtr@VFile@Gio@@@Glib@@@std@@@std@@AEAAX_K@Z
    ?_Buy_nonzero@?$vector@V?$RefPtr@VFile@Gio@@@Glib@@V?$allocator@V?$RefPtr@VFile@Gio@@@Glib@@@std@@@std@@AEAAX_K@Z
    ?_Tidy@?$vector@V?$RefPtr@VFile@Gio@@@Glib@@V?$allocator@V?$RefPtr@VFile@Gio@@@Glib@@@std@@@std@@AEAAXXZ
    ?_Xlength@?$vector@V?$RefPtr@VFile@Gio@@@Glib@@V?$allocator@V?$RefPtr@VFile@Gio@@@Glib@@@std@@@std@@CAXXZ
    ?_Getal@?$vector@V?$RefPtr@VFile@Gio@@@Glib@@V?$allocator@V?$RefPtr@VFile@Gio@@@Glib@@@std@@@std@@AEAAAEAV?$allocator@V?$RefPtr@VFile@Gio@@@Glib@@@2@XZ
    ?_Getal@?$vector@V?$RefPtr@VFile@Gio@@@Glib@@V?$allocator@V?$RefPtr@VFile@Gio@@@Glib@@@std@@@std@@AEBAAEBV?$allocator@V?$RefPtr@VFile@Gio@@@Glib@@@2@XZ
    ??0?$_Vector_val@U?$_Simple_types@V?$RefPtr@VFile@Gio@@@Glib@@@std@@@std@@QEAA@XZ
    ?_Get_first@?$_Compressed_pair@V?$allocator@V?$RefPtr@VFile@Gio@@@Glib@@@std@@V?$_Vector_val@U?$_Simple_types@V?$RefPtr@VFile@Gio@@@Glib@@@std@@@2@$00@std@@QEAAAEAV?$allocator@V?$RefPtr@VFile@Gio@@@Glib@@@2@XZ
    ?_Get_first@?$_Compressed_pair@V?$allocator@V?$RefPtr@VFile@Gio@@@Glib@@@std@@V?$_Vector_val@U?$_Simple_types@V?$RefPtr@VFile@Gio@@@Glib@@@std@@@2@$00@std@@QEBAAEBV?$allocator@V?$RefPtr@VFile@Gio@@@Glib@@@2@XZ
    ??0?$initializer_list@V?$RefPtr@VFile@Gio@@@Glib@@@std@@QEAA@PEBV?$RefPtr@VFile@Gio@@@Glib@@0@Z
    ?begin@?$initializer_list@V?$RefPtr@VFile@Gio@@@Glib@@@std@@QEBAPEBV?$RefPtr@VFile@Gio@@@Glib@@XZ
    ?end@?$initializer_list@V?$RefPtr@VFile@Gio@@@Glib@@@std@@QEBAPEBV?$RefPtr@VFile@Gio@@@Glib@@XZ
    ?size@?$initializer_list@V?$RefPtr@VFile@Gio@@@Glib@@@std@@QEBA_KXZ
    ?vector_to_list@?$ListHandler@V?$RefPtr@VFile@Gio@@@Glib@@U?$TypeTraits@V?$RefPtr@VFile@Gio@@@Glib@@@Container_Helpers@2@@Glib@@SA?AV?$GListKeeper@U?$TypeTraits@V?$RefPtr@VFile@Gio@@@Glib@@@Container_Helpers@Glib@@@Container_Helpers@2@AEBV?$vector@V?$RefPtr@VFile@Gio@@@Glib@@V?$allocator@V?$RefPtr@VFile@Gio@@@Glib@@@std@@@std@@@Z
    ??0?$GListKeeper@U?$TypeTraits@V?$RefPtr@VFile@Gio@@@Glib@@@Container_Helpers@Glib@@@Container_Helpers@Glib@@QEAA@PEBU_GList@@W4OwnershipType@2@@Z
    ??1?$GListKeeper@U?$TypeTraits@V?$RefPtr@VFile@Gio@@@Glib@@@Container_Helpers@Glib@@@Container_Helpers@Glib@@QEAA@XZ
    ?data@?$GListKeeper@U?$TypeTraits@V?$RefPtr@VFile@Gio@@@Glib@@@Container_Helpers@Glib@@@Container_Helpers@Glib@@QEBAPEAU_GList@@XZ
    ??C?$RefPtr@VAppLaunchContext@Gio@@@Glib@@QEBAPEAVAppLaunchContext@Gio@@XZ
    ??B?$RefPtr@VAppLaunchContext@Gio@@@Glib@@QEBA_NXZ
    ??$unwrap@VAppLaunchContext@Gio@@@Glib@@YAPEAU_GAppLaunchContext@@AEBV?$RefPtr@VAppLaunchContext@Gio@@@0@@Z
    ??0?$allocator@V?$basic_string@DU?$char_traits@D@std@@V?$allocator@D@2@@std@@@std@@QEAA@XZ
    ?deallocate@?$allocator@V?$basic_string@DU?$char_traits@D@std@@V?$allocator@D@2@@std@@@std@@QEAAXQEAV?$basic_string@DU?$char_traits@D@std@@V?$allocator@D@2@@2@_K@Z
    ?allocate@?$allocator@V?$basic_string@DU?$char_traits@D@std@@V?$allocator@D@2@@std@@@std@@QEAAPEAV?$basic_string@DU?$char_traits@D@std@@V?$allocator@D@2@@2@_K@Z
    ?max_size@?$_Default_allocator_traits@V?$allocator@V?$basic_string@DU?$char_traits@D@std@@V?$allocator@D@2@@std@@@std@@@std@@SA_KAEBV?$allocator@V?$basic_string@DU?$char_traits@D@std@@V?$allocator@D@2@@std@@@2@@Z
    ??0?$vector@V?$basic_string@DU?$char_traits@D@std@@V?$allocator@D@2@@std@@V?$allocator@V?$basic_string@DU?$char_traits@D@std@@V?$allocator@D@2@@std@@@2@@std@@QEAA@V?$initializer_list@V?$basic_string@DU?$char_traits@D@std@@V?$allocator@D@2@@std@@@1@AEBV?$allocator@V?$basic_string@DU?$char_traits@D@std@@V?$allocator@D@2@@std@@@1@@Z
    ??1?$vector@V?$basic_string@DU?$char_traits@D@std@@V?$allocator@D@2@@std@@V?$allocator@V?$basic_string@DU?$char_traits@D@std@@V?$allocator@D@2@@std@@@2@@std@@QEAA@XZ
    ?begin@?$vector@V?$basic_string@DU?$char_traits@D@std@@V?$allocator@D@2@@std@@V?$allocator@V?$basic_string@DU?$char_traits@D@std@@V?$allocator@D@2@@std@@@2@@std@@QEBA?AV?$_Vector_const_iterator@V?$_Vector_val@U?$_Simple_types@V?$basic_string@DU?$char_traits@D@std@@V?$allocator@D@2@@std@@@std@@@std@@@2@XZ
    ?end@?$vector@V?$basic_string@DU?$char_traits@D@std@@V?$allocator@D@2@@std@@V?$allocator@V?$basic_string@DU?$char_traits@D@std@@V?$allocator@D@2@@std@@@2@@std@@QEBA?AV?$_Vector_const_iterator@V?$_Vector_val@U?$_Simple_types@V?$basic_string@DU?$char_traits@D@std@@V?$allocator@D@2@@std@@@std@@@std@@@2@XZ
    ?max_size@?$vector@V?$basic_string@DU?$char_traits@D@std@@V?$allocator@D@2@@std@@V?$allocator@V?$basic_string@DU?$char_traits@D@std@@V?$allocator@D@2@@std@@@2@@std@@QEBA_KXZ
    ?_Buy_raw@?$vector@V?$basic_string@DU?$char_traits@D@std@@V?$allocator@D@2@@std@@V?$allocator@V?$basic_string@DU?$char_traits@D@std@@V?$allocator@D@2@@std@@@2@@std@@AEAAX_K@Z
    ?_Buy_nonzero@?$vector@V?$basic_string@DU?$char_traits@D@std@@V?$allocator@D@2@@std@@V?$allocator@V?$basic_string@DU?$char_traits@D@std@@V?$allocator@D@2@@std@@@2@@std@@AEAAX_K@Z
    ?_Tidy@?$vector@V?$basic_string@DU?$char_traits@D@std@@V?$allocator@D@2@@std@@V?$allocator@V?$basic_string@DU?$char_traits@D@std@@V?$allocator@D@2@@std@@@2@@std@@AEAAXXZ
    ?_Xlength@?$vector@V?$basic_string@DU?$char_traits@D@std@@V?$allocator@D@2@@std@@V?$allocator@V?$basic_string@DU?$char_traits@D@std@@V?$allocator@D@2@@std@@@2@@std@@CAXXZ
    ?_Getal@?$vector@V?$basic_string@DU?$char_traits@D@std@@V?$allocator@D@2@@std@@V?$allocator@V?$basic_string@DU?$char_traits@D@std@@V?$allocator@D@2@@std@@@2@@std@@AEAAAEAV?$allocator@V?$basic_string@DU?$char_traits@D@std@@V?$allocator@D@2@@std@@@2@XZ
    ?_Getal@?$vector@V?$basic_string@DU?$char_traits@D@std@@V?$allocator@D@2@@std@@V?$allocator@V?$basic_string@DU?$char_traits@D@std@@V?$allocator@D@2@@std@@@2@@std@@AEBAAEBV?$allocator@V?$basic_string@DU?$char_traits@D@std@@V?$allocator@D@2@@std@@@2@XZ
    ??0?$_Vector_val@U?$_Simple_types@V?$basic_string@DU?$char_traits@D@std@@V?$allocator@D@2@@std@@@std@@@std@@QEAA@XZ
    ?_Get_first@?$_Compressed_pair@V?$allocator@V?$basic_string@DU?$char_traits@D@std@@V?$allocator@D@2@@std@@@std@@V?$_Vector_val@U?$_Simple_types@V?$basic_string@DU?$char_traits@D@std@@V?$allocator@D@2@@std@@@std@@@2@$00@std@@QEAAAEAV?$allocator@V?$basic_string@DU?$char_traits@D@std@@V?$allocator@D@2@@std@@@2@XZ
    ?_Get_first@?$_Compressed_pair@V?$allocator@V?$basic_string@DU?$char_traits@D@std@@V?$allocator@D@2@@std@@@std@@V?$_Vector_val@U?$_Simple_types@V?$basic_string@DU?$char_traits@D@std@@V?$allocator@D@2@@std@@@std@@@2@$00@std@@QEBAAEBV?$allocator@V?$basic_string@DU?$char_traits@D@std@@V?$allocator@D@2@@std@@@2@XZ
    ??0?$initializer_list@V?$basic_string@DU?$char_traits@D@std@@V?$allocator@D@2@@std@@@std@@QEAA@PEBV?$basic_string@DU?$char_traits@D@std@@V?$allocator@D@2@@1@0@Z
    ?begin@?$initializer_list@V?$basic_string@DU?$char_traits@D@std@@V?$allocator@D@2@@std@@@std@@QEBAPEBV?$basic_string@DU?$char_traits@D@std@@V?$allocator@D@2@@2@XZ
    ?end@?$initializer_list@V?$basic_string@DU?$char_traits@D@std@@V?$allocator@D@2@@std@@@std@@QEBAPEBV?$basic_string@DU?$char_traits@D@std@@V?$allocator@D@2@@2@XZ
    ?size@?$initializer_list@V?$basic_string@DU?$char_traits@D@std@@V?$allocator@D@2@@std@@@std@@QEBA_KXZ
    ?vector_to_list@?$ListHandler@V?$basic_string@DU?$char_traits@D@std@@V?$allocator@D@2@@std@@U?$TypeTraits@V?$basic_string@DU?$char_traits@D@std@@V?$allocator@D@2@@std@@@Container_Helpers@Glib@@@Glib@@SA?AV?$GListKeeper@U?$TypeTraits@V?$basic_string@DU?$char_traits@D@std@@V?$allocator@D@2@@std@@@Container_Helpers@Glib@@@Container_Helpers@2@AEBV?$vector@V?$basic_string@DU?$char_traits@D@std@@V?$allocator@D@2@@std@@V?$allocator@V?$basic_string@DU?$char_traits@D@std@@V?$allocator@D@2@@std@@@2@@std@@@Z
    ??0?$GListKeeper@U?$TypeTraits@V?$basic_string@DU?$char_traits@D@std@@V?$allocator@D@2@@std@@@Container_Helpers@Glib@@@Container_Helpers@Glib@@QEAA@PEBU_GList@@W4OwnershipType@2@@Z
    ??1?$GListKeeper@U?$TypeTraits@V?$basic_string@DU?$char_traits@D@std@@V?$allocator@D@2@@std@@@Container_Helpers@Glib@@@Container_Helpers@Glib@@QEAA@XZ
    ?data@?$GListKeeper@U?$TypeTraits@V?$basic_string@DU?$char_traits@D@std@@V?$allocator@D@2@@std@@@Container_Helpers@Glib@@@Container_Helpers@Glib@@QEBAPEAU_GList@@XZ
    ??$wrap_auto_interface@VAppInfo@Gio@@@Glib@@YAPEAVAppInfo@Gio@@PEAU_GObject@@_N@Z
    ??$move@AEAVAppInfo@Gio@@@std@@YA$$QEAVAppInfo@Gio@@AEAV12@@Z
    ??$unwrap@VAppInfo@Gio@@@Glib@@YAPEAU_GAppInfo@@AEBV?$RefPtr@VAppInfo@Gio@@@0@@Z
    ??1?$RefPtr@VIcon@Gio@@@Glib@@QEAA@XZ
    ??0?$RefPtr@VIcon@Gio@@@Glib@@QEAA@$$QEAV01@@Z
    ??C?$RefPtr@VIcon@Gio@@@Glib@@QEBAPEAVIcon@Gio@@XZ
    ??B?$RefPtr@VIcon@Gio@@@Glib@@QEBA_NXZ
    ?release@?$RefPtr@VIcon@Gio@@@Glib@@QEAAPEAVIcon@Gio@@XZ
    ??1?$RefPtr@$$CBVIcon@Gio@@@Glib@@QEAA@XZ
    ??$?0VIcon@Gio@@@?$RefPtr@$$CBVIcon@Gio@@@Glib@@QEAA@$$QEAV?$RefPtr@VIcon@Gio@@@1@@Z
    ?data@?$ListHandle@V?$basic_string@DU?$char_traits@D@std@@V?$allocator@D@2@@std@@U?$TypeTraits@V?$basic_string@DU?$char_traits@D@std@@V?$allocator@D@2@@std@@@Container_Helpers@Glib@@@Glib@@QEBAPEAU_GList@@XZ
    ??0?$slot1@XAEAV?$RefPtr@VAsyncResult@Gio@@@Glib@@@sigc@@QEAA@AEBV01@@Z
    ??1?$slot1@XAEAV?$RefPtr@VAsyncResult@Gio@@@Glib@@@sigc@@QEAA@XZ
    ??0?$slot@XAEAV?$RefPtr@VAsyncResult@Gio@@@Glib@@Unil@sigc@@U34@U34@U34@U34@U34@@sigc@@QEAA@AEBV01@@Z
    ??$unwrap@VCancellable@Gio@@@Glib@@YAPEAU_GCancellable@@AEBV?$RefPtr@VCancellable@Gio@@@0@@Z
    ??C?$RefPtr@VAsyncResult@Gio@@@Glib@@QEBAPEAVAsyncResult@Gio@@XZ
    ??B?$RefPtr@VAsyncResult@Gio@@@Glib@@QEBA_NXZ
    ??$unwrap@VAsyncResult@Gio@@@Glib@@YAPEAU_GAsyncResult@@AEBV?$RefPtr@VAsyncResult@Gio@@@0@@Z
    ??0?$ArrayHandle@Vustring@Glib@@U?$TypeTraits@Vustring@Glib@@@Container_Helpers@2@@Glib@@QEAA@PEBQEBDW4OwnershipType@1@@Z
    ??1?$ArrayHandle@Vustring@Glib@@U?$TypeTraits@Vustring@Glib@@@Container_Helpers@2@@Glib@@QEAA@XZ
    ?release_c_type@?$TypeTraits@V?$RefPtr@VAppInfo@Gio@@@Glib@@@Container_Helpers@Glib@@SAXPEAU_GAppInfo@@@Z
    ??0?$ListHandle@V?$RefPtr@VAppInfo@Gio@@@Glib@@U?$TypeTraits@V?$RefPtr@VAppInfo@Gio@@@Glib@@@Container_Helpers@2@@Glib@@QEAA@PEAU_GList@@W4OwnershipType@1@@Z
    ??1?$ListHandle@V?$RefPtr@VAppInfo@Gio@@@Glib@@U?$TypeTraits@V?$RefPtr@VAppInfo@Gio@@@Glib@@@Container_Helpers@2@@Glib@@QEAA@XZ
    ??$min@_K@std@@YAAEB_KAEB_K0@Z
    ??$compute_array_size@PEBD@Container_Helpers@Glib@@YA_KPEBQEBD@Z
    ??0?$_Vector_const_iterator@V?$_Vector_val@U?$_Simple_types@V?$RefPtr@VFile@Gio@@@Glib@@@std@@@std@@@std@@QEAA@PEAV?$RefPtr@VFile@Gio@@@Glib@@PEBU_Container_base0@1@@Z
    ??D?$_Vector_const_iterator@V?$_Vector_val@U?$_Simple_types@V?$RefPtr@VFile@Gio@@@Glib@@@std@@@std@@@std@@QEBAAEBV?$RefPtr@VFile@Gio@@@Glib@@XZ
    ??F?$_Vector_const_iterator@V?$_Vector_val@U?$_Simple_types@V?$RefPtr@VFile@Gio@@@Glib@@@std@@@std@@@std@@QEAAAEAV01@XZ
    ??8?$_Vector_const_iterator@V?$_Vector_val@U?$_Simple_types@V?$RefPtr@VFile@Gio@@@Glib@@@std@@@std@@@std@@QEBA_NAEBV01@@Z
    ??9?$_Vector_const_iterator@V?$_Vector_val@U?$_Simple_types@V?$RefPtr@VFile@Gio@@@Glib@@@std@@@std@@@std@@QEBA_NAEBV01@@Z
    ?_Compat@?$_Vector_const_iterator@V?$_Vector_val@U?$_Simple_types@V?$RefPtr@VFile@Gio@@@Glib@@@std@@@std@@@std@@QEBAXAEBV12@@Z
    ??$create_glist@U?$TypeTraits@V?$RefPtr@VFile@Gio@@@Glib@@@Container_Helpers@Glib@@@Container_Helpers@Glib@@YAPEAU_GList@@V?$_Vector_const_iterator@V?$_Vector_val@U?$_Simple_types@V?$RefPtr@VFile@Gio@@@Glib@@@std@@@std@@@std@@V34@@Z
    ??0?$_Vector_const_iterator@V?$_Vector_val@U?$_Simple_types@V?$basic_string@DU?$char_traits@D@std@@V?$allocator@D@2@@std@@@std@@@std@@@std@@QEAA@PEAV?$basic_string@DU?$char_traits@D@std@@V?$allocator@D@2@@1@PEBU_Container_base0@1@@Z
    ??D?$_Vector_const_iterator@V?$_Vector_val@U?$_Simple_types@V?$basic_string@DU?$char_traits@D@std@@V?$allocator@D@2@@std@@@std@@@std@@@std@@QEBAAEBV?$basic_string@DU?$char_traits@D@std@@V?$allocator@D@2@@1@XZ
    ??F?$_Vector_const_iterator@V?$_Vector_val@U?$_Simple_types@V?$basic_string@DU?$char_traits@D@std@@V?$allocator@D@2@@std@@@std@@@std@@@std@@QEAAAEAV01@XZ
    ??8?$_Vector_const_iterator@V?$_Vector_val@U?$_Simple_types@V?$basic_string@DU?$char_traits@D@std@@V?$allocator@D@2@@std@@@std@@@std@@@std@@QEBA_NAEBV01@@Z
    ??9?$_Vector_const_iterator@V?$_Vector_val@U?$_Simple_types@V?$basic_string@DU?$char_traits@D@std@@V?$allocator@D@2@@std@@@std@@@std@@@std@@QEBA_NAEBV01@@Z
    ?_Compat@?$_Vector_const_iterator@V?$_Vector_val@U?$_Simple_types@V?$basic_string@DU?$char_traits@D@std@@V?$allocator@D@2@@std@@@std@@@std@@@std@@QEBAXAEBV12@@Z
    ??$create_glist@U?$TypeTraits@V?$basic_string@DU?$char_traits@D@std@@V?$allocator@D@2@@std@@@Container_Helpers@Glib@@@Container_Helpers@Glib@@YAPEAU_GList@@V?$_Vector_const_iterator@V?$_Vector_val@U?$_Simple_types@V?$basic_string@DU?$char_traits@D@std@@V?$allocator@D@2@@std@@@std@@@std@@@std@@V34@@Z
    ??$?0AEBV?$allocator@V?$RefPtr@VFile@Gio@@@Glib@@@std@@$$V@?$_Compressed_pair@V?$allocator@V?$RefPtr@VFile@Gio@@@Glib@@@std@@V?$_Vector_val@U?$_Simple_types@V?$RefPtr@VFile@Gio@@@Glib@@@std@@@2@$00@std@@QEAA@U_One_then_variadic_args_t@1@AEBV?$allocator@V?$RefPtr@VFile@Gio@@@Glib@@@1@@Z
    ??$_Convert_size@_K_K@std@@YA_K_K@Z
    ??$_Construct_n@PEBV?$RefPtr@VFile@Gio@@@Glib@@PEBV12@@?$vector@V?$RefPtr@VFile@Gio@@@Glib@@V?$allocator@V?$RefPtr@VFile@Gio@@@Glib@@@std@@@std@@AEAAX_K$$QEAPEBV?$RefPtr@VFile@Gio@@@Glib@@1@Z
    ??$?0AEBV?$allocator@V?$basic_string@DU?$char_traits@D@std@@V?$allocator@D@2@@std@@@std@@$$V@?$_Compressed_pair@V?$allocator@V?$basic_string@DU?$char_traits@D@std@@V?$allocator@D@2@@std@@@std@@V?$_Vector_val@U?$_Simple_types@V?$basic_string@DU?$char_traits@D@std@@V?$allocator@D@2@@std@@@std@@@2@$00@std@@QEAA@U_One_then_variadic_args_t@1@AEBV?$allocator@V?$basic_string@DU?$char_traits@D@std@@V?$allocator@D@2@@std@@@1@@Z
    ??$_Construct_n@PEBV?$basic_string@DU?$char_traits@D@std@@V?$allocator@D@2@@std@@PEBV12@@?$vector@V?$basic_string@DU?$char_traits@D@std@@V?$allocator@D@2@@std@@V?$allocator@V?$basic_string@DU?$char_traits@D@std@@V?$allocator@D@2@@std@@@2@@std@@AEAAX_K$$QEAPEBV?$basic_string@DU?$char_traits@D@std@@V?$allocator@D@2@@1@1@Z
    ??$move@AEAV?$allocator@D@std@@@std@@YA$$QEAV?$allocator@D@0@AEAV10@@Z
    ??$?0V?$allocator@D@std@@$$V@?$_Compressed_pair@V?$allocator@D@std@@V?$_String_val@U?$_Simple_types@D@std@@@2@$00@std@@QEAA@U_One_then_variadic_args_t@1@$$QEAV?$allocator@D@1@@Z
    ??$?0$$V@?$_Compressed_pair@V?$allocator@D@std@@V?$_String_val@U?$_Simple_types@D@std@@@2@$00@std@@QEAA@U_Zero_then_variadic_args_t@1@@Z
    ??$_Construct@$00PEBD@?$basic_string@DU?$char_traits@D@std@@V?$allocator@D@2@@std@@AEAAXQEBD_K@Z
    ??$_Construct@$01PEBD@?$basic_string@DU?$char_traits@D@std@@V?$allocator@D@2@@std@@AEAAXQEBD_K@Z
    ??$forward@AEBV?$allocator@V?$RefPtr@VFile@Gio@@@Glib@@@std@@@std@@YAAEBV?$allocator@V?$RefPtr@VFile@Gio@@@Glib@@@0@AEBV10@@Z
    ??1?$_Tidy_guard@V?$vector@V?$RefPtr@VFile@Gio@@@Glib@@V?$allocator@V?$RefPtr@VFile@Gio@@@Glib@@@std@@@std@@@std@@QEAA@XZ
    ??$forward@PEBV?$RefPtr@VFile@Gio@@@Glib@@@std@@YA$$QEAPEBV?$RefPtr@VFile@Gio@@@Glib@@AEAPEBV12@@Z
    ??$_Uninitialized_copy@PEBV?$RefPtr@VFile@Gio@@@Glib@@PEBV12@V?$allocator@V?$RefPtr@VFile@Gio@@@Glib@@@std@@@std@@YAPEAV?$RefPtr@VFile@Gio@@@Glib@@PEBV12@0PEAV12@AEAV?$allocator@V?$RefPtr@VFile@Gio@@@Glib@@@0@@Z
    ??$forward@AEBV?$allocator@V?$basic_string@DU?$char_traits@D@std@@V?$allocator@D@2@@std@@@std@@@std@@YAAEBV?$allocator@V?$basic_string@DU?$char_traits@D@std@@V?$allocator@D@2@@std@@@0@AEBV10@@Z
    ??1?$_Tidy_guard@V?$vector@V?$basic_string@DU?$char_traits@D@std@@V?$allocator@D@2@@std@@V?$allocator@V?$basic_string@DU?$char_traits@D@std@@V?$allocator@D@2@@std@@@2@@std@@@std@@QEAA@XZ
    ??$forward@PEBV?$basic_string@DU?$char_traits@D@std@@V?$allocator@D@2@@std@@@std@@YA$$QEAPEBV?$basic_string@DU?$char_traits@D@std@@V?$allocator@D@2@@0@AEAPEBV10@@Z
    ??$_Uninitialized_copy@PEBV?$basic_string@DU?$char_traits@D@std@@V?$allocator@D@2@@std@@PEBV12@V?$allocator@V?$basic_string@DU?$char_traits@D@std@@V?$allocator@D@2@@std@@@2@@std@@YAPEAV?$basic_string@DU?$char_traits@D@std@@V?$allocator@D@2@@0@PEBV10@0PEAV10@AEAV?$allocator@V?$basic_string@DU?$char_traits@D@std@@V?$allocator@D@2@@std@@@0@@Z
    ??$forward@V?$allocator@D@std@@@std@@YA$$QEAV?$allocator@D@0@AEAV10@@Z
    ??$_Allocate_for_capacity@$0A@@?$basic_string@DU?$char_traits@D@std@@V?$allocator@D@2@@std@@CAPEADAEAV?$allocator@D@1@AEA_K@Z
    ??$_Construct_in_place@PEADAEBQEAD@std@@YAXAEAPEADAEBQEAD@Z
    ??$_Unfancy@D@std@@YAPEADPEAD@Z
    ??$_Destroy_range@V?$allocator@V?$RefPtr@VFile@Gio@@@Glib@@@std@@@std@@YAXPEAV?$RefPtr@VFile@Gio@@@Glib@@QEAV12@AEAV?$allocator@V?$RefPtr@VFile@Gio@@@Glib@@@0@@Z
    ??$addressof@$$CBV?$_Vector_val@U?$_Simple_types@V?$RefPtr@VFile@Gio@@@Glib@@@std@@@std@@@std@@YAPEBV?$_Vector_val@U?$_Simple_types@V?$RefPtr@VFile@Gio@@@Glib@@@std@@@0@AEBV10@@Z
    ??$_Destroy_range@V?$allocator@V?$basic_string@DU?$char_traits@D@std@@V?$allocator@D@2@@std@@@std@@@std@@YAXPEAV?$basic_string@DU?$char_traits@D@std@@V?$allocator@D@2@@0@QEAV10@AEAV?$allocator@V?$basic_string@DU?$char_traits@D@std@@V?$allocator@D@2@@std@@@0@@Z
    ??$addressof@$$CBV?$_Vector_val@U?$_Simple_types@V?$basic_string@DU?$char_traits@D@std@@V?$allocator@D@2@@std@@@std@@@std@@@std@@YAPEBV?$_Vector_val@U?$_Simple_types@V?$basic_string@DU?$char_traits@D@std@@V?$allocator@D@2@@std@@@std@@@0@AEBV10@@Z
    ??$addressof@V?$_String_val@U?$_Simple_types@D@std@@@std@@@std@@YAPEAV?$_String_val@U?$_Simple_types@D@std@@@0@AEAV10@@Z
    ??$_Construct_in_place@PEADAEAPEAD@std@@YAXAEAPEAD0@Z
    ??$max@_K@std@@YAAEB_KAEB_K0@Z
    ??$_Deallocate@$0BA@@std@@YAXPEAX_K@Z
    ??$forward@AEAPEAD@std@@YAAEAPEADAEAPEAD@Z
    ??$move@AEAPEBV?$RefPtr@VFile@Gio@@@Glib@@@std@@YA$$QEAPEBV?$RefPtr@VFile@Gio@@@Glib@@AEAPEBV12@@Z
    ??$_Get_unwrapped@PEBV?$RefPtr@VFile@Gio@@@Glib@@@std@@YA?A_T$$QEAPEBV?$RefPtr@VFile@Gio@@@Glib@@@Z
    ??0?$_Uninitialized_backout_al@V?$allocator@V?$RefPtr@VFile@Gio@@@Glib@@@std@@@std@@QEAA@PEAV?$RefPtr@VFile@Gio@@@Glib@@AEAV?$allocator@V?$RefPtr@VFile@Gio@@@Glib@@@1@@Z
    ??1?$_Uninitialized_backout_al@V?$allocator@V?$RefPtr@VFile@Gio@@@Glib@@@std@@@std@@QEAA@XZ
    ?_Release@?$_Uninitialized_backout_al@V?$allocator@V?$RefPtr@VFile@Gio@@@Glib@@@std@@@std@@QEAAPEAV?$RefPtr@VFile@Gio@@@Glib@@XZ
    ??$_Emplace_back@AEBV?$RefPtr@VFile@Gio@@@Glib@@@?$_Uninitialized_backout_al@V?$allocator@V?$RefPtr@VFile@Gio@@@Glib@@@std@@@std@@QEAAXAEBV?$RefPtr@VFile@Gio@@@Glib@@@Z
    ??$move@AEAPEBV?$basic_string@DU?$char_traits@D@std@@V?$allocator@D@2@@std@@@std@@YA$$QEAPEBV?$basic_string@DU?$char_traits@D@std@@V?$allocator@D@2@@0@AEAPEBV10@@Z
    ??$_Get_unwrapped@PEBV?$basic_string@DU?$char_traits@D@std@@V?$allocator@D@2@@std@@@std@@YA?A_T$$QEAPEBV?$basic_string@DU?$char_traits@D@std@@V?$allocator@D@2@@0@@Z
    ??0?$_Uninitialized_backout_al@V?$allocator@V?$basic_string@DU?$char_traits@D@std@@V?$allocator@D@2@@std@@@std@@@std@@QEAA@PEAV?$basic_string@DU?$char_traits@D@std@@V?$allocator@D@2@@1@AEAV?$allocator@V?$basic_string@DU?$char_traits@D@std@@V?$allocator@D@2@@std@@@1@@Z
    ??1?$_Uninitialized_backout_al@V?$allocator@V?$basic_string@DU?$char_traits@D@std@@V?$allocator@D@2@@std@@@std@@@std@@QEAA@XZ
    ?_Release@?$_Uninitialized_backout_al@V?$allocator@V?$basic_string@DU?$char_traits@D@std@@V?$allocator@D@2@@std@@@std@@@std@@QEAAPEAV?$basic_string@DU?$char_traits@D@std@@V?$allocator@D@2@@2@XZ
    ??$_Emplace_back@AEBV?$basic_string@DU?$char_traits@D@std@@V?$allocator@D@2@@std@@@?$_Uninitialized_backout_al@V?$allocator@V?$basic_string@DU?$char_traits@D@std@@V?$allocator@D@2@@std@@@std@@@std@@QEAAXAEBV?$basic_string@DU?$char_traits@D@std@@V?$allocator@D@2@@1@@Z
    ??$_Allocate_at_least_helper@V?$allocator@D@std@@@std@@YAPEADAEAV?$allocator@D@0@AEA_K@Z
    ??$addressof@PEAD@std@@YAPEAPEADAEAPEAD@Z
    ??$forward@AEBQEAD@std@@YAAEBQEADAEBQEAD@Z
    ??$_Unfancy@V?$RefPtr@VFile@Gio@@@Glib@@@std@@YAPEAV?$RefPtr@VFile@Gio@@@Glib@@PEAV12@@Z
    ??$destroy@V?$RefPtr@VFile@Gio@@@Glib@@@?$_Default_allocator_traits@V?$allocator@V?$RefPtr@VFile@Gio@@@Glib@@@std@@@std@@SAXAEAV?$allocator@V?$RefPtr@VFile@Gio@@@Glib@@@1@QEAV?$RefPtr@VFile@Gio@@@Glib@@@Z
    ??$_Unfancy@V?$basic_string@DU?$char_traits@D@std@@V?$allocator@D@2@@std@@@std@@YAPEAV?$basic_string@DU?$char_traits@D@std@@V?$allocator@D@2@@0@PEAV10@@Z
    ??$destroy@V?$basic_string@DU?$char_traits@D@std@@V?$allocator@D@2@@std@@@?$_Default_allocator_traits@V?$allocator@V?$basic_string@DU?$char_traits@D@std@@V?$allocator@D@2@@std@@@std@@@std@@SAXAEAV?$allocator@V?$basic_string@DU?$char_traits@D@std@@V?$allocator@D@2@@std@@@1@QEAV?$basic_string@DU?$char_traits@D@std@@V?$allocator@D@2@@1@@Z
    ??$_Get_size_of_n@$0CA@@std@@YA_K_K@Z
    ??$_Allocate@$0BA@U_Default_allocate_traits@std@@@std@@YAPEAX_K@Z
    ??$_Destroy_in_place@PEAD@std@@YAXAEAPEAD@Z
    ??$_Max_limit@_J@std@@YA_JXZ
    ??$forward@AEBV?$RefPtr@VFile@Gio@@@Glib@@@std@@YAAEBV?$RefPtr@VFile@Gio@@@Glib@@AEBV12@@Z
    ??$construct@V?$RefPtr@VFile@Gio@@@Glib@@AEBV12@@?$_Default_allocator_traits@V?$allocator@V?$RefPtr@VFile@Gio@@@Glib@@@std@@@std@@SAXAEAV?$allocator@V?$RefPtr@VFile@Gio@@@Glib@@@1@QEAV?$RefPtr@VFile@Gio@@@Glib@@AEBV34@@Z
    ??$forward@AEBV?$basic_string@DU?$char_traits@D@std@@V?$allocator@D@2@@std@@@std@@YAAEBV?$basic_string@DU?$char_traits@D@std@@V?$allocator@D@2@@0@AEBV10@@Z
    ??$construct@V?$basic_string@DU?$char_traits@D@std@@V?$allocator@D@2@@std@@AEBV12@@?$_Default_allocator_traits@V?$allocator@V?$basic_string@DU?$char_traits@D@std@@V?$allocator@D@2@@std@@@std@@@std@@SAXAEAV?$allocator@V?$basic_string@DU?$char_traits@D@std@@V?$allocator@D@2@@std@@@1@QEAV?$basic_string@DU?$char_traits@D@std@@V?$allocator@D@2@@1@AEBV31@@Z
    ??$_Allocate_manually_vector_aligned@U_Default_allocate_traits@std@@@std@@YAPEAX_K@Z
    ??$_Allocate_at_least_helper@V?$allocator@V?$RefPtr@VFile@Gio@@@Glib@@@std@@@std@@YAPEAV?$RefPtr@VFile@Gio@@@Glib@@AEAV?$allocator@V?$RefPtr@VFile@Gio@@@Glib@@@0@AEA_K@Z
    ??$_Allocate_at_least_helper@V?$allocator@V?$basic_string@DU?$char_traits@D@std@@V?$allocator@D@2@@std@@@std@@@std@@YAPEAV?$basic_string@DU?$char_traits@D@std@@V?$allocator@D@2@@0@AEAV?$allocator@V?$basic_string@DU?$char_traits@D@std@@V?$allocator@D@2@@std@@@0@AEA_K@Z
    ??$_Get_size_of_n@$00@std@@YA_K_K@Z
    ??$_Get_size_of_n@$07@std@@YA_K_K@Z
    ??_7exception@std@@6B@
    ??_C@_0BC@EOODALEL@Unknown?5exception@
    ??_7bad_alloc@std@@6B@
    ??_7bad_array_new_length@std@@6B@
    ??_C@_0BF@KINCDENJ@bad?5array?5new?5length@
    ??_R0?AVexception@std@@@8
    _CT??_R0?AVexception@std@@@8??0exception@std@@QEAA@AEBV01@@Z24
    _TI3?AVbad_array_new_length@std@@
    _CTA3?AVbad_array_new_length@std@@
    ??_R0?AVbad_array_new_length@std@@@8
    _CT??_R0?AVbad_array_new_length@std@@@8??0bad_array_new_length@std@@QEAA@AEBV01@@Z24
    ??_R0?AVbad_alloc@std@@@8
    _CT??_R0?AVbad_alloc@std@@@8??0bad_alloc@std@@QEAA@AEBV01@@Z24
    ??_C@_0BA@JFNIOLAK@string?5too?5long@
    ??_7AppInfo@Gio@@6B@
    ??_8AppInfo@Gio@@7BInterface@Glib@@@
    ??_8AppInfo@Gio@@7BObjectBase@Glib@@@
    ??_C@_0BB@DJDNGIAO@klass?5?$CB?$DN?5nullptr@
    ??_C@_0CI@EMDFEAGI@Gio?3?3AppInfo_Class?3?3iface_init_@
    ??_C@_0BI@DMCLIIPK@?4?4?2gio?2giomm?2appinfo?4cc@
    ??_R0?AVObjectBase@Glib@@@8
    ??_R0?AVAppInfo@Gio@@@8
    ??_C@_0FM@MEPOJGMK@Glib?3?3wrap_auto_interface?$CI?$CJ?3?5Th@
    ??_C@_0BA@FOIKENOD@vector?5too?5long@
    ??_R4exception@std@@6B@
    ??_R3exception@std@@8
    ??_R2exception@std@@8
    ??_R1A@?0A@EA@exception@std@@8
    ??_R4bad_array_new_length@std@@6B@
    ??_R3bad_array_new_length@std@@8
    ??_R2bad_array_new_length@std@@8
    ??_R1A@?0A@EA@bad_array_new_length@std@@8
    ??_R1A@?0A@EA@bad_alloc@std@@8
    ??_R3bad_alloc@std@@8
    ??_R2bad_alloc@std@@8
    ??_R4bad_alloc@std@@6B@
    ??_R4AppInfo@Gio@@6B@
    ??_R3AppInfo@Gio@@8
    ??_R2AppInfo@Gio@@8
    ??_R1A@?0A@EA@AppInfo@Gio@@8
    ??_R1A@?0A@EA@Interface@Glib@@8
    ??_R0?AVInterface@Glib@@@8
    ??_R3Interface@Glib@@8
    ??_R2Interface@Glib@@8
    ??_R1A@A@7FA@ObjectBase@Glib@@8
    ??_R3ObjectBase@Glib@@8
    ??_R2ObjectBase@Glib@@8
    ??_R1A@?0A@EA@ObjectBase@Glib@@8
    ??_R1A@73FA@trackable@sigc@@8
    ??_R0?AUtrackable@sigc@@@8
    ??_R3trackable@sigc@@8
    ??_R2trackable@sigc@@8
    ??_R1A@?0A@EA@trackable@sigc@@8
    ??_R1A@A@3FA@trackable@sigc@@8
    ?applaunchcontext_class_@AppLaunchContext@Gio@@0VAppLaunchContext_Class@2@A
    ?__empty_global_delete@@YAXPEAX@Z
    ?__empty_global_delete@@YAXPEAX_K@Z
    ??2@YAPEAX_KPEAX@Z
    ??0exception@std@@QEAA@QEBDH@Z
    ??0exception@std@@QEAA@AEBV01@@Z
    ??1exception@std@@UEAA@XZ
    ?what@exception@std@@UEBAPEBDXZ
    ??0bad_alloc@std@@AEAA@QEBD@Z
    ??1bad_alloc@std@@UEAA@XZ
    ??0bad_alloc@std@@QEAA@AEBV01@@Z
    ??0bad_array_new_length@std@@QEAA@XZ
    ??1bad_array_new_length@std@@UEAA@XZ
    ??0bad_array_new_length@std@@QEAA@AEBV01@@Z
    ?copy@?$_Char_traits@DH@std@@SAPEADQEADQEBD_K@Z
    ?length@?$_Narrow_char_traits@DH@std@@SA_KQEBD@Z
    ?assign@?$_Narrow_char_traits@DH@std@@SAXAEADAEBD@Z
    ?_Throw_bad_array_new_length@std@@YAXXZ
    ?_Allocate@_Default_allocate_traits@std@@SAPEAX_K@Z
    ?_Adjust_manually_vector_aligned@std@@YAXAEAPEAXAEA_K@Z
    ?_Orphan_all@_Container_base0@std@@QEAAXXZ
    ?_Swap_proxy_and_iterators@_Container_base0@std@@QEAAXAEAU12@@Z
    ?_Alloc_proxy@_Container_base0@std@@QEAAXAEBU_Fake_allocator@2@@Z
    ??0_Fake_proxy_ptr_impl@std@@QEAA@AEBU_Fake_allocator@1@AEBU_Container_base0@1@@Z
    ?_Release@_Fake_proxy_ptr_impl@std@@QEAAXXZ
    ?_Xlen_string@std@@YAXXZ
    ??0?$allocator@D@std@@QEAA@XZ
    ?deallocate@?$allocator@D@std@@QEAAXQEAD_K@Z
    ?allocate@?$allocator@D@std@@QEAAPEAD_K@Z
    ?max_size@?$_Default_allocator_traits@V?$allocator@D@std@@@std@@SA_KAEBV?$allocator@D@2@@Z
    ??0?$_String_val@U?$_Simple_types@D@std@@@std@@QEAA@XZ
    ?_Myptr@?$_String_val@U?$_Simple_types@D@std@@@std@@QEBAPEBDXZ
    ?_Large_mode_engaged@?$_String_val@U?$_Simple_types@D@std@@@std@@QEBA_NXZ
    ?_Activate_SSO_buffer@?$_String_val@U?$_Simple_types@D@std@@@std@@QEAAXXZ
    ??0_Bxty@?$_String_val@U?$_Simple_types@D@std@@@std@@QEAA@XZ
    ??1_Bxty@?$_String_val@U?$_Simple_types@D@std@@@std@@QEAA@XZ
    ?_Switch_to_buf@_Bxty@?$_String_val@U?$_Simple_types@D@std@@@std@@QEAAXXZ
    ??1?$_String_val@U?$_Simple_types@D@std@@@std@@QEAA@XZ
    ??0?$basic_string@DU?$char_traits@D@std@@V?$allocator@D@2@@std@@QEAA@XZ
    ??0?$basic_string@DU?$char_traits@D@std@@V?$allocator@D@2@@std@@QEAA@QEBD@Z
    ?_Deallocate_for_capacity@?$basic_string@DU?$char_traits@D@std@@V?$allocator@D@2@@std@@CAXAEAV?$allocator@D@2@QEAD_K@Z
    ?_Construct_empty@?$basic_string@DU?$char_traits@D@std@@V?$allocator@D@2@@std@@AEAAXXZ
    ??0?$basic_string@DU?$char_traits@D@std@@V?$allocator@D@2@@std@@QEAA@$$QEAV01@@Z
    ?_Take_contents@?$basic_string@DU?$char_traits@D@std@@V?$allocator@D@2@@std@@AEAAXAEAV12@@Z
    ??1?$basic_string@DU?$char_traits@D@std@@V?$allocator@D@2@@std@@QEAA@XZ
    ?c_str@?$basic_string@DU?$char_traits@D@std@@V?$allocator@D@2@@std@@QEBAPEBDXZ
    ?max_size@?$basic_string@DU?$char_traits@D@std@@V?$allocator@D@2@@std@@QEBA_KXZ
    ?_Calculate_growth@?$basic_string@DU?$char_traits@D@std@@V?$allocator@D@2@@std@@CA_K_K00@Z
    ?_Tidy_deallocate@?$basic_string@DU?$char_traits@D@std@@V?$allocator@D@2@@std@@AEAAXXZ
    ?_Swap_proxy_and_iterators@?$basic_string@DU?$char_traits@D@std@@V?$allocator@D@2@@std@@AEAAXAEAV12@@Z
    ?_Getal@?$basic_string@DU?$char_traits@D@std@@V?$allocator@D@2@@std@@AEAAAEAV?$allocator@D@2@XZ
    ?_Getal@?$basic_string@DU?$char_traits@D@std@@V?$allocator@D@2@@std@@AEBAAEBV?$allocator@D@2@XZ
    ?_Get_first@?$_Compressed_pair@V?$allocator@D@std@@V?$_String_val@U?$_Simple_types@D@std@@@2@$00@std@@QEAAAEAV?$allocator@D@2@XZ
    ?_Get_first@?$_Compressed_pair@V?$allocator@D@std@@V?$_String_val@U?$_Simple_types@D@std@@@2@$00@std@@QEBAAEBV?$allocator@D@2@XZ
    ??1?$_Compressed_pair@V?$allocator@D@std@@V?$_String_val@U?$_Simple_types@D@std@@@2@$00@std@@QEAA@XZ
    ?get_type@Class@Glib@@QEBA_KXZ
    ?to_cpp_type@?$TypeTraits@Vustring@Glib@@@Container_Helpers@Glib@@SA?AVustring@3@PEBD@Z
    ?release_c_type@?$TypeTraits@Vustring@Glib@@@Container_Helpers@Glib@@SAXPEBD@Z
    ??$make_unique_ptr_gfree@D@Glib@@YA?AV?$unique_ptr@$$BY0A@DP6AXPEAX@Z@std@@PEAD@Z
    ??1?$unique_ptr@$$BY0A@DP6AXPEAX@Z@std@@QEAA@XZ
    ?get_deleter@?$unique_ptr@$$BY0A@DP6AXPEAX@Z@std@@QEAAAEAP6AXPEAX@ZXZ
    ?get@?$unique_ptr@$$BY0A@DP6AXPEAX@Z@std@@QEBAPEADXZ
    ?release@?$unique_ptr@$$BY0A@DP6AXPEAX@Z@std@@QEAAPEADXZ
    ?_Get_first@?$_Compressed_pair@P6AXPEAX@ZPEAD$0A@@std@@QEAAAEAP6AXPEAX@ZXZ
    ?convert_return_gchar_ptr_to_stdstring@Glib@@YA?AV?$basic_string@DU?$char_traits@D@std@@V?$allocator@D@2@@std@@PEAD@Z
    ??0AppLaunchContext@Gio@@IEAA@AEBVConstructParams@Glib@@@Z
    ??0AppLaunchContext@Gio@@IEAA@PEAU_GAppLaunchContext@@@Z
    ??0AppLaunchContext@Gio@@QEAA@$$QEAV01@@Z
    ??4AppLaunchContext@Gio@@QEAAAEAV01@$$QEAV01@@Z
    ??1AppLaunchContext@Gio@@UEAA@XZ
    ?get_type@AppLaunchContext@Gio@@SA_KXZ
    ?get_base_type@AppLaunchContext@Gio@@SA_KXZ
    ?gobj@AppLaunchContext@Gio@@QEAAPEAU_GAppLaunchContext@@XZ
    ?gobj@AppLaunchContext@Gio@@QEBAPEBU_GAppLaunchContext@@XZ
    ?gobj_copy@AppLaunchContext@Gio@@QEAAPEAU_GAppLaunchContext@@XZ
    ??0AppLaunchContext@Gio@@IEAA@XZ
    ?create@AppLaunchContext@Gio@@SA?AV?$RefPtr@VAppLaunchContext@Gio@@@Glib@@XZ
    ?setenv@AppLaunchContext@Gio@@QEAAXAEBVustring@Glib@@0@Z
    ?unsetenv@AppLaunchContext@Gio@@QEAAXAEBVustring@Glib@@@Z
    ?get_environment@AppLaunchContext@Gio@@QEBA?AV?$vector@Vustring@Glib@@V?$allocator@Vustring@Glib@@@std@@@std@@XZ
    ?get_display@AppLaunchContext@Gio@@QEAA?AV?$basic_string@DU?$char_traits@D@std@@V?$allocator@D@2@@std@@AEBV?$RefPtr@VAppInfo@Gio@@@Glib@@AEBV?$ListHandle@V?$RefPtr@VFile@Gio@@@Glib@@U?$TypeTraits@V?$RefPtr@VFile@Gio@@@Glib@@@Container_Helpers@2@@6@@Z
    ?get_startup_notify_id@AppLaunchContext@Gio@@QEAA?AV?$basic_string@DU?$char_traits@D@std@@V?$allocator@D@2@@std@@AEBV?$RefPtr@VAppInfo@Gio@@@Glib@@AEBV?$ListHandle@V?$RefPtr@VFile@Gio@@@Glib@@U?$TypeTraits@V?$RefPtr@VFile@Gio@@@Glib@@@Container_Helpers@2@@6@@Z
    ?launch_failed@AppLaunchContext@Gio@@QEAAXAEBV?$basic_string@DU?$char_traits@D@std@@V?$allocator@D@2@@std@@@Z
    ??_DAppLaunchContext@Gio@@QEAAXXZ
    ?wrap@Glib@@YA?AV?$RefPtr@VAppLaunchContext@Gio@@@1@PEAU_GAppLaunchContext@@_N@Z
    ?init@AppLaunchContext_Class@Gio@@QEAAAEBVClass@Glib@@XZ
    ?class_init_function@AppLaunchContext_Class@Gio@@SAXPEAX0@Z
    ?wrap_new@AppLaunchContext_Class@Gio@@SAPEAVObjectBase@Glib@@PEAU_GObject@@@Z
    ?gobj@AppInfo@Gio@@QEAAPEAU_GAppInfo@@XZ
    ??1?$RefPtr@VAppLaunchContext@Gio@@@Glib@@QEAA@XZ
    ??0?$RefPtr@VAppLaunchContext@Gio@@@Glib@@QEAA@PEAVAppLaunchContext@Gio@@@Z
    ??$move@AEAVAppLaunchContext@Gio@@@std@@YA$$QEAVAppLaunchContext@Gio@@AEAV12@@Z
    ??0?$allocator@Vustring@Glib@@@std@@QEAA@XZ
    ?deallocate@?$allocator@Vustring@Glib@@@std@@QEAAXQEAVustring@Glib@@_K@Z
    ?allocate@?$allocator@Vustring@Glib@@@std@@QEAAPEAVustring@Glib@@_K@Z
    ?max_size@?$_Default_allocator_traits@V?$allocator@Vustring@Glib@@@std@@@std@@SA_KAEBV?$allocator@Vustring@Glib@@@2@@Z
    ??0?$vector@Vustring@Glib@@V?$allocator@Vustring@Glib@@@std@@@std@@QEAA@XZ
    ??1?$vector@Vustring@Glib@@V?$allocator@Vustring@Glib@@@std@@@std@@QEAA@XZ
    ?max_size@?$vector@Vustring@Glib@@V?$allocator@Vustring@Glib@@@std@@@std@@QEBA_KXZ
    ?_Buy_raw@?$vector@Vustring@Glib@@V?$allocator@Vustring@Glib@@@std@@@std@@AEAAX_K@Z
    ?_Buy_nonzero@?$vector@Vustring@Glib@@V?$allocator@Vustring@Glib@@@std@@@std@@AEAAX_K@Z
    ?_Tidy@?$vector@Vustring@Glib@@V?$allocator@Vustring@Glib@@@std@@@std@@AEAAXXZ
    ?_Xlength@?$vector@Vustring@Glib@@V?$allocator@Vustring@Glib@@@std@@@std@@CAXXZ
    ?_Getal@?$vector@Vustring@Glib@@V?$allocator@Vustring@Glib@@@std@@@std@@AEAAAEAV?$allocator@Vustring@Glib@@@2@XZ
    ?_Getal@?$vector@Vustring@Glib@@V?$allocator@Vustring@Glib@@@std@@@std@@AEBAAEBV?$allocator@Vustring@Glib@@@2@XZ
    ??0?$_Vector_val@U?$_Simple_types@Vustring@Glib@@@std@@@std@@QEAA@XZ
    ?_Get_first@?$_Compressed_pair@V?$allocator@Vustring@Glib@@@std@@V?$_Vector_val@U?$_Simple_types@Vustring@Glib@@@std@@@2@$00@std@@QEAAAEAV?$allocator@Vustring@Glib@@@2@XZ
    ?_Get_first@?$_Compressed_pair@V?$allocator@Vustring@Glib@@@std@@V?$_Vector_val@U?$_Simple_types@Vustring@Glib@@@std@@@2@$00@std@@QEBAAEBV?$allocator@Vustring@Glib@@@2@XZ
    ?array_to_vector@?$ArrayHandler@Vustring@Glib@@U?$TypeTraits@Vustring@Glib@@@Container_Helpers@2@@Glib@@SA?AV?$vector@Vustring@Glib@@V?$allocator@Vustring@Glib@@@std@@@std@@PEBQEBD_KW4OwnershipType@2@@Z
    ?array_to_vector@?$ArrayHandler@Vustring@Glib@@U?$TypeTraits@Vustring@Glib@@@Container_Helpers@2@@Glib@@SA?AV?$vector@Vustring@Glib@@V?$allocator@Vustring@Glib@@@std@@@std@@PEBQEBDW4OwnershipType@2@@Z
    ??C?$RefPtr@VAppInfo@Gio@@@Glib@@QEBAPEAVAppInfo@Gio@@XZ
    ??B?$RefPtr@VAppInfo@Gio@@@Glib@@QEBA_NXZ
    ??$unwrap@VAppInfo@Gio@@@Glib@@YAPEAU_GAppInfo@@AEBV?$RefPtr@VAppInfo@Gio@@@0@@Z
    ?data@?$ListHandle@V?$RefPtr@VFile@Gio@@@Glib@@U?$TypeTraits@V?$RefPtr@VFile@Gio@@@Glib@@@Container_Helpers@2@@Glib@@QEBAPEAU_GList@@XZ
    ??$min@_K@std@@YAAEB_KAEB_K0@Z
    ??$?0PEADP6AXPEAX@Z$0A@$0A@@?$unique_ptr@$$BY0A@DP6AXPEAX@Z@std@@QEAA@PEAD$$QEAP6AXPEAX@Z@Z
    ??$?0P6AXPEAX@Z$0A@@?$unique_ptr@$$BY0A@DP6AXPEAX@Z@std@@QEAA@$$QEAV01@@Z
    ??$compute_array_size2@PEBD@Container_Helpers@Glib@@YA_KPEBQEBD@Z
    ??$_Convert_size@_K_K@std@@YA_K_K@Z
    ??$move@AEAV?$allocator@D@std@@@std@@YA$$QEAV?$allocator@D@0@AEAV10@@Z
    ??$?0V?$allocator@D@std@@$$V@?$_Compressed_pair@V?$allocator@D@std@@V?$_String_val@U?$_Simple_types@D@std@@@2@$00@std@@QEAA@U_One_then_variadic_args_t@1@$$QEAV?$allocator@D@1@@Z
    ??$?0$$V@?$_Compressed_pair@V?$allocator@D@std@@V?$_String_val@U?$_Simple_types@D@std@@@2@$00@std@@QEAA@U_Zero_then_variadic_args_t@1@@Z
    ??$_Construct@$00PEBD@?$basic_string@DU?$char_traits@D@std@@V?$allocator@D@2@@std@@AEAAXQEBD_K@Z
    ??$move@AEAP6AXPEAX@Z@std@@YA$$QEAP6AXPEAX@ZAEAP6AX0@Z@Z
    ??$?0P6AXPEAX@ZAEAPEAD@?$_Compressed_pair@P6AXPEAX@ZPEAD$0A@@std@@QEAA@U_One_then_variadic_args_t@1@$$QEAP6AXPEAX@ZAEAPEAD@Z
    ??$forward@P6AXPEAX@Z@std@@YA$$QEAP6AXPEAX@ZAEAP6AX0@Z@Z
    ??$?0P6AXPEAX@ZPEAD@?$_Compressed_pair@P6AXPEAX@ZPEAD$0A@@std@@QEAA@U_One_then_variadic_args_t@1@$$QEAP6AXPEAX@Z$$QEAPEAD@Z
    ??$forward@V?$allocator@D@std@@@std@@YA$$QEAV?$allocator@D@0@AEAV10@@Z
    ??$_Allocate_for_capacity@$0A@@?$basic_string@DU?$char_traits@D@std@@V?$allocator@D@2@@std@@CAPEADAEAV?$allocator@D@1@AEA_K@Z
    ??$_Construct_in_place@PEADAEBQEAD@std@@YAXAEAPEADAEBQEAD@Z
    ??$_Unfancy@D@std@@YAPEADPEAD@Z
    ??0?$ArrayKeeper@U?$TypeTraits@Vustring@Glib@@@Container_Helpers@Glib@@@Container_Helpers@Glib@@QEAA@PEBQEBD_KW4OwnershipType@2@@Z
    ??1?$ArrayKeeper@U?$TypeTraits@Vustring@Glib@@@Container_Helpers@Glib@@@Container_Helpers@Glib@@QEAA@XZ
    ??0?$ArrayIterator@U?$TypeTraits@Vustring@Glib@@@Container_Helpers@Glib@@@Container_Helpers@Glib@@QEAA@PEBQEBD@Z
    ??D?$ArrayIterator@U?$TypeTraits@Vustring@Glib@@@Container_Helpers@Glib@@@Container_Helpers@Glib@@QEBA?AVustring@2@XZ
    ??E?$ArrayIterator@U?$TypeTraits@Vustring@Glib@@@Container_Helpers@Glib@@@Container_Helpers@Glib@@QEAAAEAV012@XZ
    ??G?$ArrayIterator@U?$TypeTraits@Vustring@Glib@@@Container_Helpers@Glib@@@Container_Helpers@Glib@@QEBA_JAEBV012@@Z
    ??9?$ArrayIterator@U?$TypeTraits@Vustring@Glib@@@Container_Helpers@Glib@@@Container_Helpers@Glib@@QEBA_NAEBV012@@Z
    ??$?0V?$ArrayIterator@U?$TypeTraits@Vustring@Glib@@@Container_Helpers@Glib@@@Container_Helpers@Glib@@$0A@@?$vector@Vustring@Glib@@V?$allocator@Vustring@Glib@@@std@@@std@@QEAA@V?$ArrayIterator@U?$TypeTraits@Vustring@Glib@@@Container_Helpers@Glib@@@Container_Helpers@Glib@@0AEBV?$allocator@Vustring@Glib@@@1@@Z
    ??$_Destroy_range@V?$allocator@Vustring@Glib@@@std@@@std@@YAXPEAVustring@Glib@@QEAV12@AEAV?$allocator@Vustring@Glib@@@0@@Z
    ??$addressof@V?$_String_val@U?$_Simple_types@D@std@@@std@@@std@@YAPEAV?$_String_val@U?$_Simple_types@D@std@@@0@AEAV10@@Z
    ??$_Construct_in_place@PEADAEAPEAD@std@@YAXAEAPEAD0@Z
    ??$max@_K@std@@YAAEB_KAEB_K0@Z
    ??$_Deallocate@$0BA@@std@@YAXPEAX_K@Z
    ??$forward@AEAPEAD@std@@YAAEAPEADAEAPEAD@Z
    ??$forward@PEAD@std@@YA$$QEAPEADAEAPEAD@Z
    ??$_Allocate_at_least_helper@V?$allocator@D@std@@@std@@YAPEADAEAV?$allocator@D@0@AEA_K@Z
    ??$addressof@PEAD@std@@YAPEAPEADAEAPEAD@Z
    ??$forward@AEBQEAD@std@@YAAEBQEADAEBQEAD@Z
    ??$?0AEBV?$allocator@Vustring@Glib@@@std@@$$V@?$_Compressed_pair@V?$allocator@Vustring@Glib@@@std@@V?$_Vector_val@U?$_Simple_types@Vustring@Glib@@@std@@@2@$00@std@@QEAA@U_One_then_variadic_args_t@1@AEBV?$allocator@Vustring@Glib@@@1@@Z
    ??$_Adl_verify_range@V?$ArrayIterator@U?$TypeTraits@Vustring@Glib@@@Container_Helpers@Glib@@@Container_Helpers@Glib@@V123@@std@@YAXAEBV?$ArrayIterator@U?$TypeTraits@Vustring@Glib@@@Container_Helpers@Glib@@@Container_Helpers@Glib@@0@Z
    ??$_Get_unwrapped@AEAV?$ArrayIterator@U?$TypeTraits@Vustring@Glib@@@Container_Helpers@Glib@@@Container_Helpers@Glib@@@std@@YA?A_TAEAV?$ArrayIterator@U?$TypeTraits@Vustring@Glib@@@Container_Helpers@Glib@@@Container_Helpers@Glib@@@Z
    ??$distance@V?$ArrayIterator@U?$TypeTraits@Vustring@Glib@@@Container_Helpers@Glib@@@Container_Helpers@Glib@@@std@@YA_JV?$ArrayIterator@U?$TypeTraits@Vustring@Glib@@@Container_Helpers@Glib@@@Container_Helpers@Glib@@0@Z
    ??$move@AEAV?$ArrayIterator@U?$TypeTraits@Vustring@Glib@@@Container_Helpers@Glib@@@Container_Helpers@Glib@@@std@@YA$$QEAV?$ArrayIterator@U?$TypeTraits@Vustring@Glib@@@Container_Helpers@Glib@@@Container_Helpers@Glib@@AEAV123@@Z
    ??$_Construct_n@V?$ArrayIterator@U?$TypeTraits@Vustring@Glib@@@Container_Helpers@Glib@@@Container_Helpers@Glib@@V123@@?$vector@Vustring@Glib@@V?$allocator@Vustring@Glib@@@std@@@std@@AEAAX_K$$QEAV?$ArrayIterator@U?$TypeTraits@Vustring@Glib@@@Container_Helpers@Glib@@@Container_Helpers@Glib@@1@Z
    ??$_Unfancy@Vustring@Glib@@@std@@YAPEAVustring@Glib@@PEAV12@@Z
    ??$destroy@Vustring@Glib@@@?$_Default_allocator_traits@V?$allocator@Vustring@Glib@@@std@@@std@@SAXAEAV?$allocator@Vustring@Glib@@@1@QEAVustring@Glib@@@Z
    ??$exchange@PEAD$$T@std@@YAPEADAEAPEAD$$QEA$$T@Z
    ??$_Get_size_of_n@$0CA@@std@@YA_K_K@Z
    ??$_Allocate@$0BA@U_Default_allocate_traits@std@@@std@@YAPEAX_K@Z
    ??$?0$$V@?$_Compressed_pair@V?$allocator@Vustring@Glib@@@std@@V?$_Vector_val@U?$_Simple_types@Vustring@Glib@@@std@@@2@$00@std@@QEAA@U_Zero_then_variadic_args_t@1@@Z
    ??$_Destroy_in_place@PEAD@std@@YAXAEAPEAD@Z
    ??$_Max_limit@_J@std@@YA_JXZ
    ??$forward@AEBV?$allocator@Vustring@Glib@@@std@@@std@@YAAEBV?$allocator@Vustring@Glib@@@0@AEBV10@@Z
    ??1?$_Tidy_guard@V?$vector@Vustring@Glib@@V?$allocator@Vustring@Glib@@@std@@@std@@@std@@QEAA@XZ
    ??$forward@V?$ArrayIterator@U?$TypeTraits@Vustring@Glib@@@Container_Helpers@Glib@@@Container_Helpers@Glib@@@std@@YA$$QEAV?$ArrayIterator@U?$TypeTraits@Vustring@Glib@@@Container_Helpers@Glib@@@Container_Helpers@Glib@@AEAV123@@Z
    ??$_Uninitialized_copy@V?$ArrayIterator@U?$TypeTraits@Vustring@Glib@@@Container_Helpers@Glib@@@Container_Helpers@Glib@@V123@V?$allocator@Vustring@Glib@@@std@@@std@@YAPEAVustring@Glib@@V?$ArrayIterator@U?$TypeTraits@Vustring@Glib@@@Container_Helpers@Glib@@@Container_Helpers@2@0PEAV12@AEAV?$allocator@Vustring@Glib@@@0@@Z
    ??$_Allocate_manually_vector_aligned@U_Default_allocate_traits@std@@@std@@YAPEAX_K@Z
    ??$_Get_unwrapped@V?$ArrayIterator@U?$TypeTraits@Vustring@Glib@@@Container_Helpers@Glib@@@Container_Helpers@Glib@@@std@@YA?A_T$$QEAV?$ArrayIterator@U?$TypeTraits@Vustring@Glib@@@Container_Helpers@Glib@@@Container_Helpers@Glib@@@Z
    ??0?$_Uninitialized_backout_al@V?$allocator@Vustring@Glib@@@std@@@std@@QEAA@PEAVustring@Glib@@AEAV?$allocator@Vustring@Glib@@@1@@Z
    ??1?$_Uninitialized_backout_al@V?$allocator@Vustring@Glib@@@std@@@std@@QEAA@XZ
    ?_Release@?$_Uninitialized_backout_al@V?$allocator@Vustring@Glib@@@std@@@std@@QEAAPEAVustring@Glib@@XZ
    ??$_Emplace_back@Vustring@Glib@@@?$_Uninitialized_backout_al@V?$allocator@Vustring@Glib@@@std@@@std@@QEAAX$$QEAVustring@Glib@@@Z
    ??$_Get_size_of_n@$00@std@@YA_K_K@Z
    ??$forward@Vustring@Glib@@@std@@YA$$QEAVustring@Glib@@AEAV12@@Z
    ??$construct@Vustring@Glib@@V12@@?$_Default_allocator_traits@V?$allocator@Vustring@Glib@@@std@@@std@@SAXAEAV?$allocator@Vustring@Glib@@@1@QEAVustring@Glib@@$$QEAV34@@Z
    ??$_Allocate_at_least_helper@V?$allocator@Vustring@Glib@@@std@@@std@@YAPEAVustring@Glib@@AEAV?$allocator@Vustring@Glib@@@0@AEA_K@Z
    ??_7exception@std@@6B@
    ??_C@_0BC@EOODALEL@Unknown?5exception@
    ??_7bad_alloc@std@@6B@
    ??_7bad_array_new_length@std@@6B@
    ??_C@_0BF@KINCDENJ@bad?5array?5new?5length@
    ??_R0?AVexception@std@@@8
    _CT??_R0?AVexception@std@@@8??0exception@std@@QEAA@AEBV01@@Z24
    _TI3?AVbad_array_new_length@std@@
    _CTA3?AVbad_array_new_length@std@@
    ??_R0?AVbad_array_new_length@std@@@8
    _CT??_R0?AVbad_array_new_length@std@@@8??0bad_array_new_length@std@@QEAA@AEBV01@@Z24
    ??_R0?AVbad_alloc@std@@@8
    _CT??_R0?AVbad_alloc@std@@@8??0bad_alloc@std@@QEAA@AEBV01@@Z24
    ??_C@_0BA@JFNIOLAK@string?5too?5long@
    ??_7AppLaunchContext@Gio@@6B@
    ??_8AppLaunchContext@Gio@@7BObject@Glib@@@
    ??_8AppLaunchContext@Gio@@7BObjectBase@Glib@@@
    ??_R0?AVObjectBase@Glib@@@8
    ??_R0?AVAppLaunchContext@Gio@@@8
    ??_C@_0BA@FOIKENOD@vector?5too?5long@
    ??_R4exception@std@@6B@
    ??_R3exception@std@@8
    ??_R2exception@std@@8
    ??_R1A@?0A@EA@exception@std@@8
    ??_R4bad_array_new_length@std@@6B@
    ??_R3bad_array_new_length@std@@8
    ??_R2bad_array_new_length@std@@8
    ??_R1A@?0A@EA@bad_array_new_length@std@@8
    ??_R1A@?0A@EA@bad_alloc@std@@8
    ??_R3bad_alloc@std@@8
    ??_R2bad_alloc@std@@8
    ??_R4bad_alloc@std@@6B@
    ??_R4AppLaunchContext@Gio@@6B@
    ??_R3AppLaunchContext@Gio@@8
    ??_R2AppLaunchContext@Gio@@8
    ??_R1A@?0A@EA@AppLaunchContext@Gio@@8
    ??_R1A@?0A@EA@Object@Glib@@8
    ??_R0?AVObject@Glib@@@8
    ??_R3Object@Glib@@8
    ??_R2Object@Glib@@8
    ??_R1A@A@7FA@ObjectBase@Glib@@8
    ??_R3ObjectBase@Glib@@8
    ??_R2ObjectBase@Glib@@8
    ??_R1A@?0A@EA@ObjectBase@Glib@@8
    ??_R1A@73FA@trackable@sigc@@8
    ??_R0?AUtrackable@sigc@@@8
    ??_R3trackable@sigc@@8
    ??_R2trackable@sigc@@8
    ??_R1A@?0A@EA@trackable@sigc@@8
    ??_R1A@A@3FA@trackable@sigc@@8
    ??_C@_07HJMHMJAL@startup@
    ??_C@_08FIACBBDA@shutdown@
    ??_C@_08IFCMKJCD@activate@
    ??_C@_0N@KMLAKKBG@command?9line@
    ??_C@_0BF@ENILFECI@handle?9local?9options@
    ??_C@_09JDHCOBIP@name?9lost@
    ?application_class_@Application@Gio@@0VApplication_Class@2@A
    ??_C@_0DH@CLMGOCJO@glibmm__Gio?3?3Application?3?3quark@
    ??_C@_04PMOCAHAA@open@
    ?__empty_global_delete@@YAXPEAX@Z
    ?__empty_global_delete@@YAXPEAX_K@Z
    ??2@YAPEAX_KPEAX@Z
    ??0exception@std@@QEAA@QEBD@Z
    ??0exception@std@@QEAA@QEBDH@Z
    ??0exception@std@@QEAA@AEBV01@@Z
    ??1exception@std@@UEAA@XZ
    ?what@exception@std@@UEBAPEBDXZ
    ??0bad_alloc@std@@AEAA@QEBD@Z
    ??1bad_alloc@std@@UEAA@XZ
    ??0bad_alloc@std@@QEAA@AEBV01@@Z
    ??0bad_array_new_length@std@@QEAA@XZ
    ??1bad_array_new_length@std@@UEAA@XZ
    ??0bad_array_new_length@std@@QEAA@AEBV01@@Z
    ?copy@?$_Char_traits@DH@std@@SAPEADQEADQEBD_K@Z
    ?length@?$_Narrow_char_traits@DH@std@@SA_KQEBD@Z
    ?assign@?$_Narrow_char_traits@DH@std@@SAXAEADAEBD@Z
    ?_Throw_bad_array_new_length@std@@YAXXZ
    ?_Allocate@_Default_allocate_traits@std@@SAPEAX_K@Z
    ?_Adjust_manually_vector_aligned@std@@YAXAEAPEAXAEA_K@Z
    ?_Orphan_all@_Container_base0@std@@QEAAXXZ
    ?_Swap_proxy_and_iterators@_Container_base0@std@@QEAAXAEAU12@@Z
    ?_Alloc_proxy@_Container_base0@std@@QEAAXAEBU_Fake_allocator@2@@Z
    ?_Adopt@_Iterator_base0@std@@QEAAXPEBX@Z
    ?_Getcont@_Iterator_base0@std@@QEBAPEBU_Container_base0@2@XZ
    ??0_Fake_proxy_ptr_impl@std@@QEAA@AEBU_Fake_allocator@1@AEBU_Container_base0@1@@Z
    ?_Release@_Fake_proxy_ptr_impl@std@@QEAAXXZ
    ?_Xlen_string@std@@YAXXZ
    ??0?$allocator@D@std@@QEAA@XZ
    ?deallocate@?$allocator@D@std@@QEAAXQEAD_K@Z
    ?allocate@?$allocator@D@std@@QEAAPEAD_K@Z
    ?max_size@?$_Default_allocator_traits@V?$allocator@D@std@@@std@@SA_KAEBV?$allocator@D@2@@Z
    ??0?$_String_val@U?$_Simple_types@D@std@@@std@@QEAA@XZ
    ?_Myptr@?$_String_val@U?$_Simple_types@D@std@@@std@@QEBAPEBDXZ
    ?_Large_mode_engaged@?$_String_val@U?$_Simple_types@D@std@@@std@@QEBA_NXZ
    ?_Activate_SSO_buffer@?$_String_val@U?$_Simple_types@D@std@@@std@@QEAAXXZ
    ??0_Bxty@?$_String_val@U?$_Simple_types@D@std@@@std@@QEAA@XZ
    ??1_Bxty@?$_String_val@U?$_Simple_types@D@std@@@std@@QEAA@XZ
    ?_Switch_to_buf@_Bxty@?$_String_val@U?$_Simple_types@D@std@@@std@@QEAAXXZ
    ??1?$_String_val@U?$_Simple_types@D@std@@@std@@QEAA@XZ
    ??0?$basic_string@DU?$char_traits@D@std@@V?$allocator@D@2@@std@@QEAA@XZ
    ??0?$basic_string@DU?$char_traits@D@std@@V?$allocator@D@2@@std@@QEAA@QEBD@Z
    ?_Deallocate_for_capacity@?$basic_string@DU?$char_traits@D@std@@V?$allocator@D@2@@std@@CAXAEAV?$allocator@D@2@QEAD_K@Z
    ?_Construct_empty@?$basic_string@DU?$char_traits@D@std@@V?$allocator@D@2@@std@@AEAAXXZ
    ??0?$basic_string@DU?$char_traits@D@std@@V?$allocator@D@2@@std@@QEAA@$$QEAV01@@Z
    ?_Take_contents@?$basic_string@DU?$char_traits@D@std@@V?$allocator@D@2@@std@@AEAAXAEAV12@@Z
    ??1?$basic_string@DU?$char_traits@D@std@@V?$allocator@D@2@@std@@QEAA@XZ
    ?c_str@?$basic_string@DU?$char_traits@D@std@@V?$allocator@D@2@@std@@QEBAPEBDXZ
    ?max_size@?$basic_string@DU?$char_traits@D@std@@V?$allocator@D@2@@std@@QEBA_KXZ
    ?_Calculate_growth@?$basic_string@DU?$char_traits@D@std@@V?$allocator@D@2@@std@@CA_K_K00@Z
    ?_Tidy_deallocate@?$basic_string@DU?$char_traits@D@std@@V?$allocator@D@2@@std@@AEAAXXZ
    ?_Swap_proxy_and_iterators@?$basic_string@DU?$char_traits@D@std@@V?$allocator@D@2@@std@@AEAAXAEAV12@@Z
    ?_Getal@?$basic_string@DU?$char_traits@D@std@@V?$allocator@D@2@@std@@AEAAAEAV?$allocator@D@2@XZ
    ?_Getal@?$basic_string@DU?$char_traits@D@std@@V?$allocator@D@2@@std@@AEBAAEBV?$allocator@D@2@XZ
    ?_Get_first@?$_Compressed_pair@V?$allocator@D@std@@V?$_String_val@U?$_Simple_types@D@std@@@2@$00@std@@QEAAAEAV?$allocator@D@2@XZ
    ?_Get_first@?$_Compressed_pair@V?$allocator@D@std@@V?$_String_val@U?$_Simple_types@D@std@@@2@$00@std@@QEBAAEBV?$allocator@D@2@XZ
    ??1?$_Compressed_pair@V?$allocator@D@std@@V?$_String_val@U?$_Simple_types@D@std@@@2@$00@std@@QEAA@XZ
    ??0runtime_error@std@@QEAA@AEBV?$basic_string@DU?$char_traits@D@std@@V?$allocator@D@2@@1@@Z
    ??1runtime_error@std@@UEAA@XZ
    ??0runtime_error@std@@QEAA@AEBV01@@Z
    ?generic_category@std@@YAAEBVerror_category@1@XZ
    ??1error_category@std@@UEAA@XZ
    ?default_error_condition@error_category@std@@UEBA?AVerror_condition@2@H@Z
    ?equivalent@error_category@std@@UEBA_NHAEBVerror_condition@2@@Z
    ?equivalent@error_category@std@@UEBA_NAEBVerror_code@2@H@Z
    ??8error_category@std@@QEBA_NAEBV01@@Z
    ??$_Bit_cast@_KT_Addr_storage@error_category@std@@$0A@@std@@YA_KAEBT_Addr_storage@error_category@0@@Z
    ??0error_code@std@@QEAA@HAEBVerror_category@1@@Z
    ?value@error_code@std@@QEBAHXZ
    ?category@error_code@std@@QEBAAEBVerror_category@2@XZ
    ?message@error_code@std@@QEBA?AV?$basic_string@DU?$char_traits@D@std@@V?$allocator@D@2@@2@XZ
    ??0error_condition@std@@QEAA@HAEBVerror_category@1@@Z
    ?value@error_condition@std@@QEBAHXZ
    ?category@error_condition@std@@QEBAAEBVerror_category@2@XZ
    ??8std@@YA_NAEBVerror_condition@0@0@Z
    ?make_error_code@std@@YA?AVerror_code@1@W4errc@1@@Z
    ??0_System_error@std@@IEAA@Verror_code@1@@Z
    ??1_System_error@std@@UEAA@XZ
    ??0_System_error@std@@QEAA@AEBV01@@Z
    ??0system_error@std@@QEAA@Verror_code@1@@Z
    ??1system_error@std@@UEAA@XZ
    ??0system_error@std@@QEAA@AEBV01@@Z
    ?_Throw_system_error@std@@YAXW4errc@1@@Z
    ?name@_Generic_error_category@std@@UEBAPEBDXZ
    ?message@_Generic_error_category@std@@UEBA?AV?$basic_string@DU?$char_traits@D@std@@V?$allocator@D@2@@2@H@Z
    ??1_Generic_error_category@std@@UEAA@XZ
    ??$_Immortalize_memcpy_image@V_Generic_error_category@std@@@std@@YAAEBV_Generic_error_category@0@XZ
    ??MGlib@@YA_NAEBVustring@0@0@Z
    ??HGlib@@YA?AVustring@0@PEBDAEBV10@@Z
    ??$function_pointer_cast@P6AXPEAUslot_rep@internal@sigc@@@ZP6APEAXPEAX@Z@internal@sigc@@YAP6AXPEAUslot_rep@01@@ZP6APEAXPEAX@Z@Z
    ??0?$tuple@$$V@std@@QEAA@AEBV01@@Z
    ?_Throw_tree_length_error@std@@YAXXZ
    ?gobj@VariantBase@Glib@@QEBAPEBU_GVariant@@XZ
    ?get_type@Class@Glib@@QEBA_KXZ
    ?data_to_slot@SignalProxyBase@Glib@@SAPEAVslot_base@sigc@@PEAX@Z
    ?lock@_Mutex_base@std@@QEAAXXZ
    ?unlock@_Mutex_base@std@@QEAAXXZ
    ?_Verify_ownership_levels@_Mutex_base@std@@IEAA_NXZ
    ?_Mymtx@_Mutex_base@std@@AEAAPEAU_Mtx_internal_imp_t@@XZ
    ??0?$unique_lock@Vmutex@std@@@std@@QEAA@AEAVmutex@1@@Z
    ??1?$unique_lock@Vmutex@std@@@std@@QEAA@XZ
    ?unlock@?$unique_lock@Vmutex@std@@@std@@QEAAXXZ
    ??0?$lock_guard@Vmutex@std@@@std@@QEAA@AEAVmutex@1@@Z
    ??1?$lock_guard@Vmutex@std@@@std@@QEAA@XZ
    ?convert_const_gchar_ptr_to_ustring@Glib@@YA?AVustring@1@PEBD@Z
    ?convert_const_gchar_ptr_to_stdstring@Glib@@YA?AV?$basic_string@DU?$char_traits@D@std@@V?$allocator@D@2@@std@@PEBD@Z
    ??R?$less@Vustring@Glib@@@std@@QEBA_NAEBVustring@Glib@@0@Z
    ??1OptionError@Glib@@UEAA@XZ
    ??R?$slot0@X@sigc@@QEBAXXZ
    ?gobj@ActionGroup@Gio@@QEAAPEAU_GActionGroup@@XZ
    ?gobj@Cancellable@Gio@@QEAAPEAU_GCancellable@@XZ
    ??C?$RefPtr@VCancellable@Gio@@@Glib@@QEBAPEAVCancellable@Gio@@XZ
    ??B?$RefPtr@VCancellable@Gio@@@Glib@@QEBA_NXZ
    ?gobj@File@Gio@@QEAAPEAU_GFile@@XZ
    ?to_c_type@?$TypeTraits@V?$RefPtr@VFile@Gio@@@Glib@@@Container_Helpers@Glib@@SAPEAU_GFile@@AEBV?$RefPtr@VFile@Gio@@@3@@Z
    ?release_c_type@?$TypeTraits@V?$RefPtr@VFile@Gio@@@Glib@@@Container_Helpers@Glib@@SAXPEAU_GFile@@@Z
    ??0?$RefPtr@VFile@Gio@@@Glib@@QEAA@XZ
    ??1?$RefPtr@VFile@Gio@@@Glib@@QEAA@XZ
    ??0?$RefPtr@VFile@Gio@@@Glib@@QEAA@AEBV01@@Z
    ??0?$RefPtr@VFile@Gio@@@Glib@@QEAA@$$QEAV01@@Z
    ?swap@?$RefPtr@VFile@Gio@@@Glib@@QEAAXAEAV12@@Z
    ??4?$RefPtr@VFile@Gio@@@Glib@@QEAAAEAV01@AEBV01@@Z
    ??4?$RefPtr@VFile@Gio@@@Glib@@QEAAAEAV01@$$QEAV01@@Z
    ??C?$RefPtr@VFile@Gio@@@Glib@@QEBAPEAVFile@Gio@@XZ
    ??B?$RefPtr@VFile@Gio@@@Glib@@QEBA_NXZ
    ??$unwrap@VFile@Gio@@@Glib@@YAPEAU_GFile@@AEBV?$RefPtr@VFile@Gio@@@0@@Z
    ?gobj@ApplicationCommandLine@Gio@@QEAAPEAU_GApplicationCommandLine@@XZ
    ?gobj@Notification@Gio@@QEAAPEAU_GNotification@@XZ
    ?value_type@?$Value@W4ApplicationFlags@Gio@@@Glib@@SA_KXZ
    ??0Application@Gio@@IEAA@AEBVConstructParams@Glib@@@Z
    ??0Application@Gio@@IEAA@PEAU_GApplication@@@Z
    ??0Application@Gio@@QEAA@$$QEAV01@@Z
    ??4Application@Gio@@QEAAAEAV01@$$QEAV01@@Z
    ??1Application@Gio@@UEAA@XZ
    ?get_type@Application@Gio@@SA_KXZ
    ?get_base_type@Application@Gio@@SA_KXZ
    ?gobj@Application@Gio@@QEAAPEAU_GApplication@@XZ
    ?gobj@Application@Gio@@QEBAPEBU_GApplication@@XZ
    ?gobj_copy@Application@Gio@@QEAAPEAU_GApplication@@XZ
    ??0Application@Gio@@IEAA@AEBVustring@Glib@@W4ApplicationFlags@1@@Z
    ?create@Application@Gio@@SA?AV?$RefPtr@VApplication@Gio@@@Glib@@AEBVustring@4@W4ApplicationFlags@2@@Z
    ?id_is_valid@Application@Gio@@SA_NAEBVustring@Glib@@@Z
    ?get_id@Application@Gio@@QEBA?AVustring@Glib@@XZ
    ?set_id@Application@Gio@@QEAAXAEBVustring@Glib@@@Z
    ?get_dbus_connection@Application@Gio@@QEAA?AV?$RefPtr@VConnection@DBus@Gio@@@Glib@@XZ
    ?get_dbus_connection@Application@Gio@@QEBA?AV?$RefPtr@$$CBVConnection@DBus@Gio@@@Glib@@XZ
    ?get_dbus_object_path@Application@Gio@@QEBA?AVustring@Glib@@XZ
    ?get_inactivity_timeout@Application@Gio@@QEBAIXZ
    ?set_inactivity_timeout@Application@Gio@@QEAAXI@Z
    ?get_flags@Application@Gio@@QEBA?AW4ApplicationFlags@2@XZ
    ?set_flags@Application@Gio@@QEAAXW4ApplicationFlags@2@@Z
    ?get_resource_base_path@Application@Gio@@QEBA?AV?$basic_string@DU?$char_traits@D@std@@V?$allocator@D@2@@std@@XZ
    ?set_resource_base_path@Application@Gio@@QEAAXAEBV?$basic_string@DU?$char_traits@D@std@@V?$allocator@D@2@@std@@@Z
    ?unset_resource_base_path@Application@Gio@@QEAAXXZ
    ?set_action_group@Application@Gio@@QEAAXAEBV?$RefPtr@VActionGroup@Gio@@@Glib@@@Z
    ?add_main_option_entry@Application@Gio@@QEAAXW4OptionType@12@AEBVustring@Glib@@D11H@Z
    ?add_main_option_entry@Application@Gio@@QEAAXAEBV?$slot@_NAEBVustring@Glib@@AEBV12@_NUnil@sigc@@U34@U34@U34@@sigc@@AEBVustring@Glib@@D11H@Z
    ?add_main_option_entry_filename@Application@Gio@@QEAAXAEBV?$slot@_NAEBVustring@Glib@@AEBV?$basic_string@DU?$char_traits@D@std@@V?$allocator@D@2@@std@@_NUnil@sigc@@U56@U56@U56@@sigc@@AEBVustring@Glib@@D11H@Z
    ?add_option_group@Application@Gio@@QEAAXAEAVOptionGroup@Glib@@@Z
    ?set_option_context_parameter_string@Application@Gio@@QEAAXAEBVustring@Glib@@@Z
    ?set_option_context_summary@Application@Gio@@QEAAXAEBVustring@Glib@@@Z
    ?set_option_context_description@Application@Gio@@QEAAXAEBVustring@Glib@@@Z
    ?is_registered@Application@Gio@@QEBA_NXZ
    ?is_remote@Application@Gio@@QEBA_NXZ
    ?register_application@Application@Gio@@QEAA_NAEBV?$RefPtr@VCancellable@Gio@@@Glib@@@Z
    ?register_application@Application@Gio@@QEAA_NXZ
    ?hold@Application@Gio@@QEAAXXZ
    ?release@Application@Gio@@QEAAXXZ
    ?activate@Application@Gio@@QEAAXXZ
    ?open@Application@Gio@@QEAAXAEBV?$vector@V?$RefPtr@VFile@Gio@@@Glib@@V?$allocator@V?$RefPtr@VFile@Gio@@@Glib@@@std@@@std@@AEBVustring@Glib@@@Z
    ?open@Application@Gio@@QEAAXAEBV?$RefPtr@VFile@Gio@@@Glib@@AEBVustring@4@@Z
    ?run@Application@Gio@@QEAAHHPEAPEAD@Z
    ?quit@Application@Gio@@QEAAXXZ
    ?set_default@Application@Gio@@SAXAEBV?$RefPtr@VApplication@Gio@@@Glib@@@Z
    ?unset_default@Application@Gio@@SAXXZ
    ?get_default@Application@Gio@@SA?AV?$RefPtr@VApplication@Gio@@@Glib@@XZ
    ?mark_busy@Application@Gio@@QEAAXXZ
    ?unmark_busy@Application@Gio@@QEAAXXZ
    ?get_is_busy@Application@Gio@@QEBA_NXZ
    ?send_notification@Application@Gio@@QEAAXAEBVustring@Glib@@AEBV?$RefPtr@VNotification@Gio@@@4@@Z
    ?send_notification@Application@Gio@@QEAAXAEBV?$RefPtr@VNotification@Gio@@@Glib@@@Z
    ?withdraw_notification@Application@Gio@@QEAAXAEBVustring@Glib@@@Z
    ?property_action_group@Application@Gio@@QEAA?AV?$PropertyProxy_WriteOnly@V?$RefPtr@VActionGroup@Gio@@@Glib@@@Glib@@XZ
    ?property_application_id@Application@Gio@@QEAA?AV?$PropertyProxy@Vustring@Glib@@@Glib@@XZ
    ?property_application_id@Application@Gio@@QEBA?AV?$PropertyProxy_ReadOnly@Vustring@Glib@@@Glib@@XZ
    ?property_flags@Application@Gio@@QEAA?AV?$PropertyProxy@W4ApplicationFlags@Gio@@@Glib@@XZ
    ?property_flags@Application@Gio@@QEBA?AV?$PropertyProxy_ReadOnly@W4ApplicationFlags@Gio@@@Glib@@XZ
    ?property_inactivity_timeout@Application@Gio@@QEAA?AV?$PropertyProxy@I@Glib@@XZ
    ?property_inactivity_timeout@Application@Gio@@QEBA?AV?$PropertyProxy_ReadOnly@I@Glib@@XZ
    ?property_is_registered@Application@Gio@@QEBA?AV?$PropertyProxy_ReadOnly@_N@Glib@@XZ
    ?property_is_remote@Application@Gio@@QEBA?AV?$PropertyProxy_ReadOnly@_N@Glib@@XZ
    ?property_resource_base_path@Application@Gio@@QEAA?AV?$PropertyProxy@_N@Glib@@XZ
    ?property_resource_base_path@Application@Gio@@QEBA?AV?$PropertyProxy_ReadOnly@_N@Glib@@XZ
    ?property_resource_base_path_string@Application@Gio@@QEAA?AV?$PropertyProxy@V?$basic_string@DU?$char_traits@D@std@@V?$allocator@D@2@@std@@@Glib@@XZ
    ?property_resource_base_path_string@Application@Gio@@QEBA?AV?$PropertyProxy_ReadOnly@V?$basic_string@DU?$char_traits@D@std@@V?$allocator@D@2@@std@@@Glib@@XZ
    ?property_is_busy@Application@Gio@@QEBA?AV?$PropertyProxy_ReadOnly@_N@Glib@@XZ
    ?signal_startup@Application@Gio@@QEAA?AV?$SignalProxy@X$$V@Glib@@XZ
    ?signal_shutdown@Application@Gio@@QEAA?AV?$SignalProxy@X$$V@Glib@@XZ
    ?signal_activate@Application@Gio@@QEAA?AV?$SignalProxy@X$$V@Glib@@XZ
    ?signal_open@Application@Gio@@QEAA?AV?$SignalProxy@XAEBV?$vector@V?$RefPtr@VFile@Gio@@@Glib@@V?$allocator@V?$RefPtr@VFile@Gio@@@Glib@@@std@@@std@@AEBVustring@Glib@@@Glib@@XZ
    ?signal_command_line@Application@Gio@@QEAA?AV?$SignalProxy@HAEBV?$RefPtr@VApplicationCommandLine@Gio@@@Glib@@@Glib@@XZ
    ?signal_handle_local_options@Application@Gio@@QEAA?AV?$SignalProxy@HAEBV?$RefPtr@VVariantDict@Glib@@@Glib@@@Glib@@XZ
    ?signal_name_lost@Application@Gio@@QEAA?AV?$SignalProxy@_N$$V@Glib@@XZ
    ?on_open@Application@Gio@@MEAAXAEBV?$vector@V?$RefPtr@VFile@Gio@@@Glib@@V?$allocator@V?$RefPtr@VFile@Gio@@@Glib@@@std@@@std@@AEBVustring@Glib@@@Z
    ?local_command_line_vfunc@Application@Gio@@MEAA_NAEAPEAPEADAEAH@Z
    ?before_emit_vfunc@Application@Gio@@MEAAXAEBVVariantBase@Glib@@@Z
    ?after_emit_vfunc@Application@Gio@@MEAAXAEBVVariantBase@Glib@@@Z
    ?quit_mainloop_vfunc@Application@Gio@@MEAAXXZ
    ?run_mainloop_vfunc@Application@Gio@@MEAAXXZ
    ?custom_class_init@Application@Gio@@AEAAAEBVClass@Glib@@XZ
    ?add_main_option_entry_private@Application@Gio@@AEAAXW4GOptionArg@@AEBVustring@Glib@@D11H@Z
    ?on_startup@Application@Gio@@MEAAXXZ
    ?on_activate@Application@Gio@@MEAAXXZ
    ?on_command_line@Application@Gio@@MEAAHAEBV?$RefPtr@VApplicationCommandLine@Gio@@@Glib@@@Z
    ??_DApplication@Gio@@QEAAXXZ
    ?wrap@Glib@@YA?AV?$RefPtr@VApplication@Gio@@@1@PEAU_GApplication@@_N@Z
    ?init@Application_Class@Gio@@QEAAAEBVClass@Glib@@XZ
    ?class_init_function@Application_Class@Gio@@SAXPEAX0@Z
    ?wrap_new@Application_Class@Gio@@SAPEAVObjectBase@Glib@@PEAU_GObject@@@Z
    ?startup_callback@Application_Class@Gio@@KAXPEAU_GApplication@@@Z
    ?activate_callback@Application_Class@Gio@@KAXPEAU_GApplication@@@Z
    ?command_line_callback@Application_Class@Gio@@KAHPEAU_GApplication@@PEAU_GApplicationCommandLine@@@Z
    ?open_callback@Application_Class@Gio@@KAXPEAU_GApplication@@PEAPEAU_GFile@@HPEBD@Z
    ?local_command_line_vfunc_callback@Application_Class@Gio@@KAHPEAU_GApplication@@PEAPEAPEADPEAH@Z
    ?before_emit_vfunc_callback@Application_Class@Gio@@KAXPEAU_GApplication@@PEAU_GVariant@@@Z
    ?after_emit_vfunc_callback@Application_Class@Gio@@KAXPEAU_GApplication@@PEAU_GVariant@@@Z
    ?quit_mainloop_vfunc_callback@Application_Class@Gio@@KAXPEAU_GApplication@@@Z
    ?run_mainloop_vfunc_callback@Application_Class@Gio@@KAXPEAU_GApplication@@@Z
    ??0?$allocator@PEAD@std@@QEAA@XZ
    ?deallocate@?$allocator@PEAD@std@@QEAAXQEAPEAD_K@Z
    ?allocate@?$allocator@PEAD@std@@QEAAPEAPEAD_K@Z
    ?max_size@?$_Default_allocator_traits@V?$allocator@PEAD@std@@@std@@SA_KAEBV?$allocator@PEAD@2@@Z
    ??0?$vector@PEADV?$allocator@PEAD@std@@@std@@QEAA@XZ
    ??1?$vector@PEADV?$allocator@PEAD@std@@@std@@QEAA@XZ
    ?_Unchecked_begin@?$vector@PEADV?$allocator@PEAD@std@@@std@@QEAAPEAPEADXZ
    ?_Unchecked_end@?$vector@PEADV?$allocator@PEAD@std@@@std@@QEAAPEAPEADXZ
    ?max_size@?$vector@PEADV?$allocator@PEAD@std@@@std@@QEBA_KXZ
    ?capacity@?$vector@PEADV?$allocator@PEAD@std@@@std@@QEBA_KXZ
    ?_Calculate_growth@?$vector@PEADV?$allocator@PEAD@std@@@std@@AEBA_K_K@Z
    ?_Change_array@?$vector@PEADV?$allocator@PEAD@std@@@std@@AEAAXQEAPEAD_K1@Z
    ?_Tidy@?$vector@PEADV?$allocator@PEAD@std@@@std@@AEAAXXZ
    ?_Xlength@?$vector@PEADV?$allocator@PEAD@std@@@std@@CAXXZ
    ?_Orphan_range@?$vector@PEADV?$allocator@PEAD@std@@@std@@AEBAXPEAPEAD0@Z
    ?_Getal@?$vector@PEADV?$allocator@PEAD@std@@@std@@AEAAAEAV?$allocator@PEAD@2@XZ
    ?_Getal@?$vector@PEADV?$allocator@PEAD@std@@@std@@AEBAAEBV?$allocator@PEAD@2@XZ
    ??0?$_Vector_val@U?$_Simple_types@PEAD@std@@@std@@QEAA@XZ
    ?_Get_first@?$_Compressed_pair@V?$allocator@PEAD@std@@V?$_Vector_val@U?$_Simple_types@PEAD@std@@@2@$00@std@@QEAAAEAV?$allocator@PEAD@2@XZ
    ?_Get_first@?$_Compressed_pair@V?$allocator@PEAD@std@@V?$_Vector_val@U?$_Simple_types@PEAD@std@@@2@$00@std@@QEBAAEBV?$allocator@PEAD@2@XZ
    ??0?$allocator@V?$RefPtr@VFile@Gio@@@Glib@@@std@@QEAA@XZ
    ?deallocate@?$allocator@V?$RefPtr@VFile@Gio@@@Glib@@@std@@QEAAXQEAV?$RefPtr@VFile@Gio@@@Glib@@_K@Z
    ?allocate@?$allocator@V?$RefPtr@VFile@Gio@@@Glib@@@std@@QEAAPEAV?$RefPtr@VFile@Gio@@@Glib@@_K@Z
    ?max_size@?$_Default_allocator_traits@V?$allocator@V?$RefPtr@VFile@Gio@@@Glib@@@std@@@std@@SA_KAEBV?$allocator@V?$RefPtr@VFile@Gio@@@Glib@@@2@@Z
    ??0?$vector@V?$RefPtr@VFile@Gio@@@Glib@@V?$allocator@V?$RefPtr@VFile@Gio@@@Glib@@@std@@@std@@QEAA@_KAEBV?$allocator@V?$RefPtr@VFile@Gio@@@Glib@@@1@@Z
    ??1?$vector@V?$RefPtr@VFile@Gio@@@Glib@@V?$allocator@V?$RefPtr@VFile@Gio@@@Glib@@@std@@@std@@QEAA@XZ
    ?begin@?$vector@V?$RefPtr@VFile@Gio@@@Glib@@V?$allocator@V?$RefPtr@VFile@Gio@@@Glib@@@std@@@std@@QEBA?AV?$_Vector_const_iterator@V?$_Vector_val@U?$_Simple_types@V?$RefPtr@VFile@Gio@@@Glib@@@std@@@std@@@2@XZ
    ?size@?$vector@V?$RefPtr@VFile@Gio@@@Glib@@V?$allocator@V?$RefPtr@VFile@Gio@@@Glib@@@std@@@std@@QEBA_KXZ
    ?max_size@?$vector@V?$RefPtr@VFile@Gio@@@Glib@@V?$allocator@V?$RefPtr@VFile@Gio@@@Glib@@@std@@@std@@QEBA_KXZ
    ??A?$vector@V?$RefPtr@VFile@Gio@@@Glib@@V?$allocator@V?$RefPtr@VFile@Gio@@@Glib@@@std@@@std@@QEAAAEAV?$RefPtr@VFile@Gio@@@Glib@@_K@Z
    ?_Buy_raw@?$vector@V?$RefPtr@VFile@Gio@@@Glib@@V?$allocator@V?$RefPtr@VFile@Gio@@@Glib@@@std@@@std@@AEAAX_K@Z
    ?_Buy_nonzero@?$vector@V?$RefPtr@VFile@Gio@@@Glib@@V?$allocator@V?$RefPtr@VFile@Gio@@@Glib@@@std@@@std@@AEAAX_K@Z
    ?_Tidy@?$vector@V?$RefPtr@VFile@Gio@@@Glib@@V?$allocator@V?$RefPtr@VFile@Gio@@@Glib@@@std@@@std@@AEAAXXZ
    ?_Xlength@?$vector@V?$RefPtr@VFile@Gio@@@Glib@@V?$allocator@V?$RefPtr@VFile@Gio@@@Glib@@@std@@@std@@CAXXZ
    ?_Getal@?$vector@V?$RefPtr@VFile@Gio@@@Glib@@V?$allocator@V?$RefPtr@VFile@Gio@@@Glib@@@std@@@std@@AEAAAEAV?$allocator@V?$RefPtr@VFile@Gio@@@Glib@@@2@XZ
    ?_Getal@?$vector@V?$RefPtr@VFile@Gio@@@Glib@@V?$allocator@V?$RefPtr@VFile@Gio@@@Glib@@@std@@@std@@AEBAAEBV?$allocator@V?$RefPtr@VFile@Gio@@@Glib@@@2@XZ
    ??0?$_Vector_val@U?$_Simple_types@V?$RefPtr@VFile@Gio@@@Glib@@@std@@@std@@QEAA@XZ
    ?_Get_first@?$_Compressed_pair@V?$allocator@V?$RefPtr@VFile@Gio@@@Glib@@@std@@V?$_Vector_val@U?$_Simple_types@V?$RefPtr@VFile@Gio@@@Glib@@@std@@@2@$00@std@@QEAAAEAV?$allocator@V?$RefPtr@VFile@Gio@@@Glib@@@2@XZ
    ?_Get_first@?$_Compressed_pair@V?$allocator@V?$RefPtr@VFile@Gio@@@Glib@@@std@@V?$_Vector_val@U?$_Simple_types@V?$RefPtr@VFile@Gio@@@Glib@@@std@@@2@$00@std@@QEBAAEBV?$allocator@V?$RefPtr@VFile@Gio@@@Glib@@@2@XZ
    ??R?$slot2@XAEBV?$vector@V?$RefPtr@VFile@Gio@@@Glib@@V?$allocator@V?$RefPtr@VFile@Gio@@@Glib@@@std@@@std@@AEBVustring@Glib@@@sigc@@QEBAXAEBV?$vector@V?$RefPtr@VFile@Gio@@@Glib@@V?$allocator@V?$RefPtr@VFile@Gio@@@Glib@@@std@@@std@@AEBVustring@Glib@@@Z
    ??R?$slot3@_NAEBVustring@Glib@@AEBV12@_N@sigc@@QEBA_NAEBVustring@Glib@@0AEB_N@Z
    ??0?$slot3@_NAEBVustring@Glib@@AEBV12@_N@sigc@@QEAA@AEBV01@@Z
    ??1?$slot3@_NAEBVustring@Glib@@AEBV12@_N@sigc@@QEAA@XZ
    ??0?$slot@_NAEBVustring@Glib@@AEBV12@_NUnil@sigc@@U34@U34@U34@@sigc@@QEAA@AEBV01@@Z
    ??1?$slot@_NAEBVustring@Glib@@AEBV12@_NUnil@sigc@@U34@U34@U34@@sigc@@QEAA@XZ
    ??R?$slot3@_NAEBVustring@Glib@@AEBV?$basic_string@DU?$char_traits@D@std@@V?$allocator@D@2@@std@@_N@sigc@@QEBA_NAEBVustring@Glib@@AEBV?$basic_string@DU?$char_traits@D@std@@V?$allocator@D@2@@std@@AEB_N@Z
    ??0?$slot3@_NAEBVustring@Glib@@AEBV?$basic_string@DU?$char_traits@D@std@@V?$allocator@D@2@@std@@_N@sigc@@QEAA@AEBV01@@Z
    ??1?$slot3@_NAEBVustring@Glib@@AEBV?$basic_string@DU?$char_traits@D@std@@V?$allocator@D@2@@std@@_N@sigc@@QEAA@XZ
    ??0?$slot@_NAEBVustring@Glib@@AEBV?$basic_string@DU?$char_traits@D@std@@V?$allocator@D@2@@std@@_NUnil@sigc@@U56@U56@U56@@sigc@@QEAA@AEBV01@@Z
    ??1?$slot@_NAEBVustring@Glib@@AEBV?$basic_string@DU?$char_traits@D@std@@V?$allocator@D@2@@std@@_NUnil@sigc@@U56@U56@U56@@sigc@@QEAA@XZ
    ??$c_str_or_nullptr@Vustring@Glib@@@Glib@@YAPEBDAEBVustring@0@@Z
    ??0?$SignalProxy@XAEBV?$vector@V?$RefPtr@VFile@Gio@@@Glib@@V?$allocator@V?$RefPtr@VFile@Gio@@@Glib@@@std@@@std@@AEBVustring@Glib@@@Glib@@QEAA@PEAVObjectBase@1@PEBUSignalProxyInfo@1@@Z
    ??1?$SignalProxy@XAEBV?$vector@V?$RefPtr@VFile@Gio@@@Glib@@V?$allocator@V?$RefPtr@VFile@Gio@@@Glib@@@std@@@std@@AEBVustring@Glib@@@Glib@@QEAA@XZ
    ?vector_to_array@?$ArrayHandler@V?$RefPtr@VFile@Gio@@@Glib@@U?$TypeTraits@V?$RefPtr@VFile@Gio@@@Glib@@@Container_Helpers@2@@Glib@@SA?AV?$ArrayKeeper@U?$TypeTraits@V?$RefPtr@VFile@Gio@@@Glib@@@Container_Helpers@Glib@@@Container_Helpers@2@AEBV?$vector@V?$RefPtr@VFile@Gio@@@Glib@@V?$allocator@V?$RefPtr@VFile@Gio@@@Glib@@@std@@@std@@@Z
    ??0?$ArrayKeeper@U?$TypeTraits@V?$RefPtr@VFile@Gio@@@Glib@@@Container_Helpers@Glib@@@Container_Helpers@Glib@@QEAA@PEBQEAU_GFile@@_KW4OwnershipType@2@@Z
    ??1?$ArrayKeeper@U?$TypeTraits@V?$RefPtr@VFile@Gio@@@Glib@@@Container_Helpers@Glib@@@Container_Helpers@Glib@@QEAA@XZ
    ?data@?$ArrayKeeper@U?$TypeTraits@V?$RefPtr@VFile@Gio@@@Glib@@@Container_Helpers@Glib@@@Container_Helpers@Glib@@QEBAPEAPEAU_GFile@@XZ
    ??$emplace_back@AEAPEAD@?$vector@PEADV?$allocator@PEAD@std@@@std@@QEAAXAEAPEAD@Z
    ??0?$PropertyProxy@V?$basic_string@DU?$char_traits@D@std@@V?$allocator@D@2@@std@@@Glib@@QEAA@PEAVObjectBase@1@PEBD@Z
    ??0?$PropertyProxy_ReadOnly@V?$basic_string@DU?$char_traits@D@std@@V?$allocator@D@2@@std@@@Glib@@QEAA@PEBVObjectBase@1@PEBD@Z
    ??R?$slot1@HAEBV?$RefPtr@VApplicationCommandLine@Gio@@@Glib@@@sigc@@QEBAHAEBV?$RefPtr@VApplicationCommandLine@Gio@@@Glib@@@Z
    ??1?$RefPtr@VApplicationCommandLine@Gio@@@Glib@@QEAA@XZ
    ??C?$RefPtr@VApplicationCommandLine@Gio@@@Glib@@QEBAPEAVApplicationCommandLine@Gio@@XZ
    ??B?$RefPtr@VApplicationCommandLine@Gio@@@Glib@@QEBA_NXZ
    ??R?$slot1@XAEBV?$RefPtr@VApplicationCommandLine@Gio@@@Glib@@@sigc@@QEBAXAEBV?$RefPtr@VApplicationCommandLine@Gio@@@Glib@@@Z
    ??R?$slot1@HAEBV?$RefPtr@VVariantDict@Glib@@@Glib@@@sigc@@QEBAHAEBV?$RefPtr@VVariantDict@Glib@@@Glib@@@Z
    ??1?$RefPtr@VVariantDict@Glib@@@Glib@@QEAA@XZ
    ??R?$slot1@XAEBV?$RefPtr@VVariantDict@Glib@@@Glib@@@sigc@@QEBAXAEBV?$RefPtr@VVariantDict@Glib@@@Glib@@@Z
    ??R?$slot0@_N@sigc@@QEBA_NXZ
    ??1?$RefPtr@VApplication@Gio@@@Glib@@QEAA@XZ
    ??0?$RefPtr@VApplication@Gio@@@Glib@@QEAA@PEAVApplication@Gio@@@Z
    ??0?$RefPtr@VApplication@Gio@@@Glib@@QEAA@$$QEAV01@@Z
    ??C?$RefPtr@VApplication@Gio@@@Glib@@QEBAPEAVApplication@Gio@@XZ
    ??B?$RefPtr@VApplication@Gio@@@Glib@@QEBA_NXZ
    ??$move@AEAVApplication@Gio@@@std@@YA$$QEAVApplication@Gio@@AEAV12@@Z
    ??1?$RefPtr@VConnection@DBus@Gio@@@Glib@@QEAA@XZ
    ??0?$RefPtr@VConnection@DBus@Gio@@@Glib@@QEAA@$$QEAV01@@Z
    ??C?$RefPtr@VConnection@DBus@Gio@@@Glib@@QEBAPEAVConnection@DBus@Gio@@XZ
    ??B?$RefPtr@VConnection@DBus@Gio@@@Glib@@QEBA_NXZ
    ?release@?$RefPtr@VConnection@DBus@Gio@@@Glib@@QEAAPEAVConnection@DBus@Gio@@XZ
    ??1?$RefPtr@$$CBVConnection@DBus@Gio@@@Glib@@QEAA@XZ
    ??$?0VConnection@DBus@Gio@@@?$RefPtr@$$CBVConnection@DBus@Gio@@@Glib@@QEAA@$$QEAV?$RefPtr@VConnection@DBus@Gio@@@1@@Z
    ??C?$RefPtr@VActionGroup@Gio@@@Glib@@QEBAPEAVActionGroup@Gio@@XZ
    ??B?$RefPtr@VActionGroup@Gio@@@Glib@@QEBA_NXZ
    ??$unwrap@VActionGroup@Gio@@@Glib@@YAPEAU_GActionGroup@@AEBV?$RefPtr@VActionGroup@Gio@@@0@@Z
    ??$unwrap@VCancellable@Gio@@@Glib@@YAPEAU_GCancellable@@AEBV?$RefPtr@VCancellable@Gio@@@0@@Z
    ??$unwrap@VApplication@Gio@@@Glib@@YAPEAU_GApplication@@AEBV?$RefPtr@VApplication@Gio@@@0@@Z
    ??C?$RefPtr@VNotification@Gio@@@Glib@@QEBAPEAVNotification@Gio@@XZ
    ??B?$RefPtr@VNotification@Gio@@@Glib@@QEBA_NXZ
    ??$unwrap@VNotification@Gio@@@Glib@@YAPEAU_GNotification@@AEBV?$RefPtr@VNotification@Gio@@@0@@Z
    ??0?$SignalProxy@X$$V@Glib@@QEAA@PEAVObjectBase@1@PEBUSignalProxyInfo@1@@Z
    ??1?$SignalProxy@X$$V@Glib@@QEAA@XZ
    ??0?$SignalProxy@HAEBV?$RefPtr@VApplicationCommandLine@Gio@@@Glib@@@Glib@@QEAA@PEAVObjectBase@1@PEBUSignalProxyInfo@1@@Z
    ??1?$SignalProxy@HAEBV?$RefPtr@VApplicationCommandLine@Gio@@@Glib@@@Glib@@QEAA@XZ
    ??0?$SignalProxy@HAEBV?$RefPtr@VVariantDict@Glib@@@Glib@@@Glib@@QEAA@PEAVObjectBase@1@PEBUSignalProxyInfo@1@@Z
    ??1?$SignalProxy@HAEBV?$RefPtr@VVariantDict@Glib@@@Glib@@@Glib@@QEAA@XZ
    ??0?$SignalProxy@_N$$V@Glib@@QEAA@PEAVObjectBase@1@PEBUSignalProxyInfo@1@@Z
    ??1?$SignalProxy@_N$$V@Glib@@QEAA@XZ
    ??0?$PropertyProxy_WriteOnly@V?$RefPtr@VActionGroup@Gio@@@Glib@@@Glib@@QEAA@PEAVObjectBase@1@PEBD@Z
    ??0?$PropertyProxy@Vustring@Glib@@@Glib@@QEAA@PEAVObjectBase@1@PEBD@Z
    ??0?$PropertyProxy_ReadOnly@Vustring@Glib@@@Glib@@QEAA@PEBVObjectBase@1@PEBD@Z
    ??0?$PropertyProxy@W4ApplicationFlags@Gio@@@Glib@@QEAA@PEAVObjectBase@1@PEBD@Z
    ??0?$PropertyProxy_ReadOnly@W4ApplicationFlags@Gio@@@Glib@@QEAA@PEBVObjectBase@1@PEBD@Z
    ??0?$PropertyProxy@I@Glib@@QEAA@PEAVObjectBase@1@PEBD@Z
    ??0?$PropertyProxy_ReadOnly@I@Glib@@QEAA@PEBVObjectBase@1@PEBD@Z
    ??0?$PropertyProxy_ReadOnly@_N@Glib@@QEAA@PEBVObjectBase@1@PEBD@Z
    ??0?$PropertyProxy@_N@Glib@@QEAA@PEAVObjectBase@1@PEBD@Z
    ??$unwrap@VApplicationCommandLine@Gio@@@Glib@@YAPEAU_GApplicationCommandLine@@AEBV?$RefPtr@VApplicationCommandLine@Gio@@@0@@Z
    ??$min@_K@std@@YAAEB_KAEB_K0@Z
    ??$forward@AEAPEAD@std@@YAAEAPEADAEAPEAD@Z
    ??$_Emplace_one_at_back@AEAPEAD@?$vector@PEADV?$allocator@PEAD@std@@@std@@AEAAAEAPEADAEAPEAD@Z
    ??$move@AEAV?$RefPtr@VFile@Gio@@@Glib@@@std@@YA$$QEAV?$RefPtr@VFile@Gio@@@Glib@@AEAV12@@Z
    ??0?$_Vector_const_iterator@V?$_Vector_val@U?$_Simple_types@V?$RefPtr@VFile@Gio@@@Glib@@@std@@@std@@@std@@QEAA@PEAV?$RefPtr@VFile@Gio@@@Glib@@PEBU_Container_base0@1@@Z
    ??D?$_Vector_const_iterator@V?$_Vector_val@U?$_Simple_types@V?$RefPtr@VFile@Gio@@@Glib@@@std@@@std@@@std@@QEBAAEBV?$RefPtr@VFile@Gio@@@Glib@@XZ
    ??E?$_Vector_const_iterator@V?$_Vector_val@U?$_Simple_types@V?$RefPtr@VFile@Gio@@@Glib@@@std@@@std@@@std@@QEAAAEAV01@XZ
    ??$create_array@U?$TypeTraits@V?$RefPtr@VFile@Gio@@@Glib@@@Container_Helpers@Glib@@@Container_Helpers@Glib@@YAPEAPEAU_GFile@@V?$_Vector_const_iterator@V?$_Vector_val@U?$_Simple_types@V?$RefPtr@VFile@Gio@@@Glib@@@std@@@std@@@std@@_K@Z
    ??$function_pointer_cast@P6A_NPEAUslot_rep@internal@sigc@@@ZP6APEAXPEAX@Z@internal@sigc@@YAP6A_NPEAUslot_rep@01@@ZP6APEAXPEAX@Z@Z
    ??$function_pointer_cast@P6AXPEAUslot_rep@internal@sigc@@AEBV?$RefPtr@VVariantDict@Glib@@@Glib@@@ZP6APEAXPEAX@Z@internal@sigc@@YAP6AXPEAUslot_rep@01@AEBV?$RefPtr@VVariantDict@Glib@@@Glib@@@ZP6APEAXPEAX@Z@Z
    ??$function_pointer_cast@P6AHPEAUslot_rep@internal@sigc@@AEBV?$RefPtr@VVariantDict@Glib@@@Glib@@@ZP6APEAXPEAX@Z@internal@sigc@@YAP6AHPEAUslot_rep@01@AEBV?$RefPtr@VVariantDict@Glib@@@Glib@@@ZP6APEAXPEAX@Z@Z
    ??$function_pointer_cast@P6AXPEAUslot_rep@internal@sigc@@AEBV?$RefPtr@VApplicationCommandLine@Gio@@@Glib@@@ZP6APEAXPEAX@Z@internal@sigc@@YAP6AXPEAUslot_rep@01@AEBV?$RefPtr@VApplicationCommandLine@Gio@@@Glib@@@ZP6APEAXPEAX@Z@Z
    ??$function_pointer_cast@P6AHPEAUslot_rep@internal@sigc@@AEBV?$RefPtr@VApplicationCommandLine@Gio@@@Glib@@@ZP6APEAXPEAX@Z@internal@sigc@@YAP6AHPEAUslot_rep@01@AEBV?$RefPtr@VApplicationCommandLine@Gio@@@Glib@@@ZP6APEAXPEAX@Z@Z
    ??$function_pointer_cast@P6A_NPEAUslot_rep@internal@sigc@@AEBVustring@Glib@@AEBV?$basic_string@DU?$char_traits@D@std@@V?$allocator@D@2@@std@@AEB_N@ZP6APEAXPEAX@Z@internal@sigc@@YAP6A_NPEAUslot_rep@01@AEBVustring@Glib@@AEBV?$basic_string@DU?$char_traits@D@std@@V?$allocator@D@2@@std@@AEB_N@ZP6APEAXPEAX@Z@Z
    ??$function_pointer_cast@P6A_NPEAUslot_rep@internal@sigc@@AEBVustring@Glib@@1AEB_N@ZP6APEAXPEAX@Z@internal@sigc@@YAP6A_NPEAUslot_rep@01@AEBVustring@Glib@@1AEB_N@ZP6APEAXPEAX@Z@Z
    ??$function_pointer_cast@P6AXPEAUslot_rep@internal@sigc@@AEBV?$vector@V?$RefPtr@VFile@Gio@@@Glib@@V?$allocator@V?$RefPtr@VFile@Gio@@@Glib@@@std@@@std@@AEBVustring@Glib@@@ZP6APEAXPEAX@Z@internal@sigc@@YAP6AXPEAUslot_rep@01@AEBV?$vector@V?$RefPtr@VFile@Gio@@@Glib@@V?$allocator@V?$RefPtr@VFile@Gio@@@Glib@@@std@@@std@@AEBVustring@Glib@@@ZP6APEAXPEAX@Z@Z
    ??$_Unfancy_maybe_null@PEAD@std@@YAPEAPEADPEAPEAD@Z
    ??$?0$$V@?$_Compressed_pair@V?$allocator@PEAD@std@@V?$_Vector_val@U?$_Simple_types@PEAD@std@@@2@$00@std@@QEAA@U_Zero_then_variadic_args_t@1@@Z
    ??$?0AEBV?$allocator@V?$RefPtr@VFile@Gio@@@Glib@@@std@@$$V@?$_Compressed_pair@V?$allocator@V?$RefPtr@VFile@Gio@@@Glib@@@std@@V?$_Vector_val@U?$_Simple_types@V?$RefPtr@VFile@Gio@@@Glib@@@std@@@2@$00@std@@QEAA@U_One_then_variadic_args_t@1@AEBV?$allocator@V?$RefPtr@VFile@Gio@@@Glib@@@1@@Z
    ??$_Construct_n@$$V@?$vector@V?$RefPtr@VFile@Gio@@@Glib@@V?$allocator@V?$RefPtr@VFile@Gio@@@Glib@@@std@@@std@@AEAAX_K@Z
    ??$addressof@Vmutex@std@@@std@@YAPEAVmutex@0@AEAV10@@Z
    ??$_Convert_size@_K_K@std@@YA_K_K@Z
    ??$move@AEAV?$allocator@D@std@@@std@@YA$$QEAV?$allocator@D@0@AEAV10@@Z
    ??$?0V?$allocator@D@std@@$$V@?$_Compressed_pair@V?$allocator@D@std@@V?$_String_val@U?$_Simple_types@D@std@@@2@$00@std@@QEAA@U_One_then_variadic_args_t@1@$$QEAV?$allocator@D@1@@Z
    ??$?0$$V@?$_Compressed_pair@V?$allocator@D@std@@V?$_String_val@U?$_Simple_types@D@std@@@2@$00@std@@QEAA@U_Zero_then_variadic_args_t@1@@Z
    ??$_Construct@$00PEBD@?$basic_string@DU?$char_traits@D@std@@V?$allocator@D@2@@std@@AEAAXQEBD_K@Z
    ??$_Emplace_back_with_unused_capacity@AEAPEAD@?$vector@PEADV?$allocator@PEAD@std@@@std@@AEAAAEAPEADAEAPEAD@Z
    ??$_Emplace_reallocate@AEAPEAD@?$vector@PEADV?$allocator@PEAD@std@@@std@@AEAAPEAPEADQEAPEADAEAPEAD@Z
    ??$forward@AEBVustring@Glib@@@std@@YAAEBVustring@Glib@@AEBV12@@Z
    ??$forward_as_tuple@AEBVustring@Glib@@@std@@YA?AV?$tuple@AEBVustring@Glib@@@0@AEBVustring@Glib@@@Z
    ??0?$tuple@AEBVustring@Glib@@@std@@QEAA@$$QEAV01@@Z
    ??$forward_as_tuple@$$V@std@@YA?AV?$tuple@$$V@0@XZ
    ??$forward@AEBV?$allocator@V?$RefPtr@VFile@Gio@@@Glib@@@std@@@std@@YAAEBV?$allocator@V?$RefPtr@VFile@Gio@@@Glib@@@0@AEBV10@@Z
    ??1?$_Tidy_guard@V?$vector@V?$RefPtr@VFile@Gio@@@Glib@@V?$allocator@V?$RefPtr@VFile@Gio@@@Glib@@@std@@@std@@@std@@QEAA@XZ
    ??$_Uninitialized_value_construct_n@V?$allocator@V?$RefPtr@VFile@Gio@@@Glib@@@std@@@std@@YAPEAV?$RefPtr@VFile@Gio@@@Glib@@PEAV12@_KAEAV?$allocator@V?$RefPtr@VFile@Gio@@@Glib@@@0@@Z
    ??$forward@V?$allocator@D@std@@@std@@YA$$QEAV?$allocator@D@0@AEAV10@@Z
    ??$_Allocate_for_capacity@$0A@@?$basic_string@DU?$char_traits@D@std@@V?$allocator@D@2@@std@@CAPEADAEAV?$allocator@D@1@AEA_K@Z
    ??$_Construct_in_place@PEADAEBQEAD@std@@YAXAEAPEADAEBQEAD@Z
    ??$_Unfancy@D@std@@YAPEADPEAD@Z
    ??$_Destroy_range@V?$allocator@PEAD@std@@@std@@YAXPEAPEADQEAPEADAEAV?$allocator@PEAD@0@@Z
    ??$_Destroy_range@V?$allocator@V?$RefPtr@VFile@Gio@@@Glib@@@std@@@std@@YAXPEAV?$RefPtr@VFile@Gio@@@Glib@@QEAV12@AEAV?$allocator@V?$RefPtr@VFile@Gio@@@Glib@@@0@@Z
    ??$addressof@$$CBV?$_Vector_val@U?$_Simple_types@V?$RefPtr@VFile@Gio@@@Glib@@@std@@@std@@@std@@YAPEBV?$_Vector_val@U?$_Simple_types@V?$RefPtr@VFile@Gio@@@Glib@@@std@@@0@AEBV10@@Z
    ??$addressof@V?$_String_val@U?$_Simple_types@D@std@@@std@@@std@@YAPEAV?$_String_val@U?$_Simple_types@D@std@@@0@AEAV10@@Z
    ??$_Construct_in_place@PEADAEAPEAD@std@@YAXAEAPEAD0@Z
    ??$max@_K@std@@YAAEB_KAEB_K0@Z
    ??$_Deallocate@$0BA@@std@@YAXPEAX_K@Z
    ??$forward@PEAD@std@@YA$$QEAPEADAEAPEAD@Z
    ??$_Allocate_at_least_helper@V?$allocator@PEAD@std@@@std@@YAPEAPEADAEAV?$allocator@PEAD@0@AEA_K@Z
    ??1_Reallocation_guard@?$vector@PEADV?$allocator@PEAD@std@@@std@@QEAA@XZ
    ??$_Unfancy@PEAD@std@@YAPEAPEADPEAPEAD@Z
    ??$construct@PEADAEAPEAD@?$_Default_allocator_traits@V?$allocator@PEAD@std@@@std@@SAXAEAV?$allocator@PEAD@1@QEAPEADAEAPEAD@Z
    ??$_Uninitialized_move@PEAPEADV?$allocator@PEAD@std@@@std@@YAPEAPEADQEAPEAD0PEAPEADAEAV?$allocator@PEAD@0@@Z
    ??$forward@_N@std@@YA$$QEA_NAEA_N@Z
    ??$?0AEBVustring@Glib@@$0A@@?$tuple@AEBVustring@Glib@@@std@@QEAA@AEBVustring@Glib@@@Z
    ??$forward@AEBUpiecewise_construct_t@std@@@std@@YAAEBUpiecewise_construct_t@0@AEBU10@@Z
    ??$forward@V?$tuple@AEBVustring@Glib@@@std@@@std@@YA$$QEAV?$tuple@AEBVustring@Glib@@@0@AEAV10@@Z
    ??$forward@V?$tuple@$$V@std@@@std@@YA$$QEAV?$tuple@$$V@0@AEAV10@@Z
    ??0?$_Uninitialized_backout_al@V?$allocator@V?$RefPtr@VFile@Gio@@@Glib@@@std@@@std@@QEAA@PEAV?$RefPtr@VFile@Gio@@@Glib@@AEAV?$allocator@V?$RefPtr@VFile@Gio@@@Glib@@@1@@Z
    ??1?$_Uninitialized_backout_al@V?$allocator@V?$RefPtr@VFile@Gio@@@Glib@@@std@@@std@@QEAA@XZ
    ?_Release@?$_Uninitialized_backout_al@V?$allocator@V?$RefPtr@VFile@Gio@@@Glib@@@std@@@std@@QEAAPEAV?$RefPtr@VFile@Gio@@@Glib@@XZ
    ??$_Emplace_back@$$V@?$_Uninitialized_backout_al@V?$allocator@V?$RefPtr@VFile@Gio@@@Glib@@@std@@@std@@QEAAXXZ
    ??$swap@D$0A@@std@@YAXAEAD0@Z
    ??$_Allocate_at_least_helper@V?$allocator@D@std@@@std@@YAPEADAEAV?$allocator@D@0@AEA_K@Z
    ??$addressof@PEAD@std@@YAPEAPEADAEAPEAD@Z
    ??$forward@AEBQEAD@std@@YAAEBQEADAEBQEAD@Z
    ??$forward@AEBU?$less@Vustring@Glib@@@std@@@std@@YAAEBU?$less@Vustring@Glib@@@0@AEBU10@@Z
    ??$forward@U_Zero_then_variadic_args_t@std@@@std@@YA$$QEAU_Zero_then_variadic_args_t@0@AEAU10@@Z
    ??$_Unfancy@V?$RefPtr@VFile@Gio@@@Glib@@@std@@YAPEAV?$RefPtr@VFile@Gio@@@Glib@@PEAV12@@Z
    ??$destroy@V?$RefPtr@VFile@Gio@@@Glib@@@?$_Default_allocator_traits@V?$allocator@V?$RefPtr@VFile@Gio@@@Glib@@@std@@@std@@SAXAEAV?$allocator@V?$RefPtr@VFile@Gio@@@Glib@@@1@QEAV?$RefPtr@VFile@Gio@@@Glib@@@Z
    ??$_Allocate@$0BA@U_Default_allocate_traits@std@@@std@@YAPEAX_K@Z
    ??$_Destroy_in_place@PEAD@std@@YAXAEAPEAD@Z
    ??$_Max_limit@_J@std@@YA_JXZ
    ??$_Get_unwrapped@AEBQEAPEAD@std@@YA?A_TAEBQEAPEAD@Z
    ??$move@AEAPEAD@std@@YA$$QEAPEADAEAPEAD@Z
    ??$_Copy_memmove@PEAPEADPEAPEAD@std@@YAPEAPEADPEAPEAD00@Z
    ??0?$_Uninitialized_backout_al@V?$allocator@PEAD@std@@@std@@QEAA@PEAPEADAEAV?$allocator@PEAD@1@@Z
    ??1?$_Uninitialized_backout_al@V?$allocator@PEAD@std@@@std@@QEAA@XZ
    ?_Release@?$_Uninitialized_backout_al@V?$allocator@PEAD@std@@@std@@QEAAPEAPEADXZ
    ??$_Emplace_back@PEAD@?$_Uninitialized_backout_al@V?$allocator@PEAD@std@@@std@@QEAAX$$QEAPEAD@Z
    ??$?0U_Exact_args_t@std@@AEBVustring@Glib@@$$V$0A@@?$tuple@AEBVustring@Glib@@@std@@QEAA@U_Exact_args_t@1@AEBVustring@Glib@@@Z
    ??$construct@V?$RefPtr@VFile@Gio@@@Glib@@$$V@?$_Default_allocator_traits@V?$allocator@V?$RefPtr@VFile@Gio@@@Glib@@@std@@@std@@SAXAEAV?$allocator@V?$RefPtr@VFile@Gio@@@Glib@@@1@QEAV?$RefPtr@VFile@Gio@@@Glib@@@Z
    ??$move@AEAD@std@@YA$$QEADAEAD@Z
    ??$_Allocate_manually_vector_aligned@U_Default_allocate_traits@std@@@std@@YAPEAX_K@Z
    ??$_Allocate_at_least_helper@V?$allocator@V?$RefPtr@VFile@Gio@@@Glib@@@std@@@std@@YAPEAV?$RefPtr@VFile@Gio@@@Glib@@AEAV?$allocator@V?$RefPtr@VFile@Gio@@@Glib@@@0@AEA_K@Z
    ??$_To_address@PEAPEAD@std@@YA?A_PAEBQEAPEAD@Z
    ??$move@AEAPEAPEAD@std@@YA$$QEAPEAPEADAEAPEAPEAD@Z
    ??$_Copy_memmove_tail@PEAPEAD@std@@YAPEAPEADQEBDQEAPEAD_K2@Z
    ??$construct@PEADPEAD@?$_Default_allocator_traits@V?$allocator@PEAD@std@@@std@@SAXAEAV?$allocator@PEAD@1@QEAPEAD$$QEAPEAD@Z
    ??$?0U_Exact_args_t@std@@$0A@@?$tuple@$$V@std@@QEAA@U_Exact_args_t@1@@Z
    ??$?0AEBVustring@Glib@@@?$_Tuple_val@AEBVustring@Glib@@@std@@QEAA@AEBVustring@Glib@@@Z
    ??$_Get_size_of_n@$0EI@@std@@YA_K_K@Z
    ??$_Get_size_of_n@$07@std@@YA_K_K@Z
    ??$_Get_size_of_n@$00@std@@YA_K_K@Z
    ??$move@AEAV?$tuple@AEBVustring@Glib@@@std@@@std@@YA$$QEAV?$tuple@AEBVustring@Glib@@@0@AEAV10@@Z
    ??$_Tuple_get@$0A@AEBVustring@Glib@@@std@@YA$$QEA_P$$QEAV?$tuple@AEBVustring@Glib@@@0@@Z
    ??_7exception@std@@6B@
    ??_C@_0BC@EOODALEL@Unknown?5exception@
    ??_7bad_alloc@std@@6B@
    ??_7bad_array_new_length@std@@6B@
    ??_C@_0BF@KINCDENJ@bad?5array?5new?5length@
    ??_R0?AVexception@std@@@8
    _CT??_R0?AVexception@std@@@8??0exception@std@@QEAA@AEBV01@@Z24
    _TI3?AVbad_array_new_length@std@@
    _CTA3?AVbad_array_new_length@std@@
    ??_R0?AVbad_array_new_length@std@@@8
    _CT??_R0?AVbad_array_new_length@std@@@8??0bad_array_new_length@std@@QEAA@AEBV01@@Z24
    ??_R0?AVbad_alloc@std@@@8
    _CT??_R0?AVbad_alloc@std@@@8??0bad_alloc@std@@QEAA@AEBV01@@Z24
    ??_C@_0BA@JFNIOLAK@string?5too?5long@
    ??_7runtime_error@std@@6B@
    ??_R0?AVruntime_error@std@@@8
    _CT??_R0?AVruntime_error@std@@@8??0runtime_error@std@@QEAA@AEBV01@@Z24
    ??_7_System_error@std@@6B@
    ??_7system_error@std@@6B@
    _TI4?AVsystem_error@std@@
    _CTA4?AVsystem_error@std@@
    ??_R0?AVsystem_error@std@@@8
    _CT??_R0?AVsystem_error@std@@@8??0system_error@std@@QEAA@AEBV01@@Z40
    ??_R0?AV_System_error@std@@@8
    _CT??_R0?AV_System_error@std@@@8??0_System_error@std@@QEAA@AEBV01@@Z40
    ??_7_Generic_error_category@std@@6B@
    ??_C@_07DCLBNMLN@generic@
    ??_C@_00CNPNBAHC@@
    ??_C@_0BB@GCADKGJO@map?1set?5too?5long@
    ??_7Application@Gio@@6BActionGroup@1@@
    ??_7Application@Gio@@6BActionMap@1@@
    ??_7Application@Gio@@6B@
    ??_8Application@Gio@@7BObject@Glib@@@
    ??_8Application@Gio@@7BInterface@Glib@@ActionGroup@1@@
    ??_8Application@Gio@@7BInterface@Glib@@ActionMap@1@@
    ??_8Application@Gio@@7BObjectBase@Glib@@@
    ??_C@_0DD@CPKPPNFP@Application_option_arg_callback@
    ??_R0?AVError@Glib@@@8
    ??_C@_05GECEPKB@flags@
    ??_C@_0P@MIBGKNHF@application_id@
    ??_R0?AVObjectBase@Glib@@@8
    ??_R0?AVApplication@Gio@@@8
    ??_C@_0BD@IANOMIME@resource?9base?9path@
    ??_C@_0N@HPFJBGGA@action?9group@
    ??_C@_0P@JCAMFGC@application?9id@
    ??_C@_0BD@BFOMBNNI@inactivity?9timeout@
    ??_C@_0O@HJBDPNNF@is?9registered@
    ??_C@_09PAIBGEII@is?9remote@
    ??_C@_07CEJCCHGN@is?9busy@
    ?_Static@?1???$_Immortalize_memcpy_image@V_Generic_error_category@std@@@std@@YAAEBV_Generic_error_category@1@XZ@4U?$_Constexpr_immortalize_impl@V_Generic_error_category@std@@@1@A
    ??_C@_0BA@FOIKENOD@vector?5too?5long@
    ??_R4exception@std@@6B@
    ??_R3exception@std@@8
    ??_R2exception@std@@8
    ??_R1A@?0A@EA@exception@std@@8
    ??_R4bad_array_new_length@std@@6B@
    ??_R3bad_array_new_length@std@@8
    ??_R2bad_array_new_length@std@@8
    ??_R1A@?0A@EA@bad_array_new_length@std@@8
    ??_R1A@?0A@EA@bad_alloc@std@@8
    ??_R3bad_alloc@std@@8
    ??_R2bad_alloc@std@@8
    ??_R4bad_alloc@std@@6B@
    ??_R4runtime_error@std@@6B@
    ??_R3runtime_error@std@@8
    ??_R2runtime_error@std@@8
    ??_R1A@?0A@EA@runtime_error@std@@8
    ??_R0?AVerror_category@std@@@8
    ??_R3error_category@std@@8
    ??_R2error_category@std@@8
    ??_R1A@?0A@EA@error_category@std@@8
    ??_R4_System_error@std@@6B@
    ??_R3_System_error@std@@8
    ??_R2_System_error@std@@8
    ??_R1A@?0A@EA@_System_error@std@@8
    ??_R4system_error@std@@6B@
    ??_R3system_error@std@@8
    ??_R2system_error@std@@8
    ??_R1A@?0A@EA@system_error@std@@8
    ??_R4_Generic_error_category@std@@6B@
    ??_R0?AV_Generic_error_category@std@@@8
    ??_R3_Generic_error_category@std@@8
    ??_R2_Generic_error_category@std@@8
    ??_R1A@?0A@EA@_Generic_error_category@std@@8
    ??_R4Application@Gio@@6BActionGroup@1@@
    ??_R3Application@Gio@@8
    ??_R2Application@Gio@@8
    ??_R1A@?0A@EA@Application@Gio@@8
    ??_R1CA@?0A@EA@Object@Glib@@8
    ??_R0?AVObject@Glib@@@8
    ??_R3Object@Glib@@8
    ??_R2Object@Glib@@8
    ??_R1A@?0A@EA@Object@Glib@@8
    ??_R1A@A@7FA@ObjectBase@Glib@@8
    ??_R3ObjectBase@Glib@@8
    ??_R2ObjectBase@Glib@@8
    ??_R1A@?0A@EA@ObjectBase@Glib@@8
    ??_R1A@73FA@trackable@sigc@@8
    ??_R0?AUtrackable@sigc@@@8
    ??_R3trackable@sigc@@8
    ??_R2trackable@sigc@@8
    ??_R1A@?0A@EA@trackable@sigc@@8
    ??_R1A@A@3FA@trackable@sigc@@8
    ??_R1A@CA@7FA@ObjectBase@Glib@@8
    ??_R1A@CA@3FA@trackable@sigc@@8
    ??_R1A@?0A@EA@ActionGroup@Gio@@8
    ??_R0?AVActionGroup@Gio@@@8
    ??_R3ActionGroup@Gio@@8
    ??_R2ActionGroup@Gio@@8
    ??_R17?0A@EA@Interface@Glib@@8
    ??_R0?AVInterface@Glib@@@8
    ??_R3Interface@Glib@@8
    ??_R2Interface@Glib@@8
    ??_R1A@?0A@EA@Interface@Glib@@8
    ??_R1A@77FA@ObjectBase@Glib@@8
    ??_R17?0A@EC@Interface@Glib@@8
    ??_R1BA@?0A@EA@ActionMap@Gio@@8
    ??_R0?AVActionMap@Gio@@@8
    ??_R3ActionMap@Gio@@8
    ??_R2ActionMap@Gio@@8
    ??_R1A@?0A@EA@ActionMap@Gio@@8
    ??_R1BI@?0A@EC@Interface@Glib@@8
    ??_R4Application@Gio@@6BActionMap@1@@
    ??_R4Application@Gio@@6B@
    ?applicationcommandline_class_@ApplicationCommandLine@Gio@@0VApplicationCommandLine_Class@2@A
    ?__empty_global_delete@@YAXPEAX@Z
    ?__empty_global_delete@@YAXPEAX_K@Z
    ??2@YAPEAX_KPEAX@Z
    ??0exception@std@@QEAA@QEBDH@Z
    ??0exception@std@@QEAA@AEBV01@@Z
    ??1exception@std@@UEAA@XZ
    ?what@exception@std@@UEBAPEBDXZ
    ??0bad_alloc@std@@AEAA@QEBD@Z
    ??1bad_alloc@std@@UEAA@XZ
    ??0bad_alloc@std@@QEAA@AEBV01@@Z
    ??0bad_array_new_length@std@@QEAA@XZ
    ??1bad_array_new_length@std@@UEAA@XZ
    ??0bad_array_new_length@std@@QEAA@AEBV01@@Z
    ?copy@?$_Char_traits@DH@std@@SAPEADQEADQEBD_K@Z
    ?length@?$_Narrow_char_traits@DH@std@@SA_KQEBD@Z
    ?assign@?$_Narrow_char_traits@DH@std@@SAXAEADAEBD@Z
    ?_Throw_bad_array_new_length@std@@YAXXZ
    ?_Allocate@_Default_allocate_traits@std@@SAPEAX_K@Z
    ?_Adjust_manually_vector_aligned@std@@YAXAEAPEAXAEA_K@Z
    ?_Orphan_all@_Container_base0@std@@QEAAXXZ
    ?_Swap_proxy_and_iterators@_Container_base0@std@@QEAAXAEAU12@@Z
    ?_Alloc_proxy@_Container_base0@std@@QEAAXAEBU_Fake_allocator@2@@Z
    ??0_Fake_proxy_ptr_impl@std@@QEAA@AEBU_Fake_allocator@1@AEBU_Container_base0@1@@Z
    ?_Release@_Fake_proxy_ptr_impl@std@@QEAAXXZ
    ?_Xlen_string@std@@YAXXZ
    ??0?$allocator@D@std@@QEAA@XZ
    ?deallocate@?$allocator@D@std@@QEAAXQEAD_K@Z
    ?allocate@?$allocator@D@std@@QEAAPEAD_K@Z
    ?max_size@?$_Default_allocator_traits@V?$allocator@D@std@@@std@@SA_KAEBV?$allocator@D@2@@Z
    ??0?$_String_val@U?$_Simple_types@D@std@@@std@@QEAA@XZ
    ?_Large_mode_engaged@?$_String_val@U?$_Simple_types@D@std@@@std@@QEBA_NXZ
    ?_Activate_SSO_buffer@?$_String_val@U?$_Simple_types@D@std@@@std@@QEAAXXZ
    ??0_Bxty@?$_String_val@U?$_Simple_types@D@std@@@std@@QEAA@XZ
    ??1_Bxty@?$_String_val@U?$_Simple_types@D@std@@@std@@QEAA@XZ
    ?_Switch_to_buf@_Bxty@?$_String_val@U?$_Simple_types@D@std@@@std@@QEAAXXZ
    ??1?$_String_val@U?$_Simple_types@D@std@@@std@@QEAA@XZ
    ??0?$basic_string@DU?$char_traits@D@std@@V?$allocator@D@2@@std@@QEAA@XZ
    ??0?$basic_string@DU?$char_traits@D@std@@V?$allocator@D@2@@std@@QEAA@QEBD@Z
    ?_Deallocate_for_capacity@?$basic_string@DU?$char_traits@D@std@@V?$allocator@D@2@@std@@CAXAEAV?$allocator@D@2@QEAD_K@Z
    ?_Construct_empty@?$basic_string@DU?$char_traits@D@std@@V?$allocator@D@2@@std@@AEAAXXZ
    ??0?$basic_string@DU?$char_traits@D@std@@V?$allocator@D@2@@std@@QEAA@$$QEAV01@@Z
    ?_Take_contents@?$basic_string@DU?$char_traits@D@std@@V?$allocator@D@2@@std@@AEAAXAEAV12@@Z
    ??1?$basic_string@DU?$char_traits@D@std@@V?$allocator@D@2@@std@@QEAA@XZ
    ?max_size@?$basic_string@DU?$char_traits@D@std@@V?$allocator@D@2@@std@@QEBA_KXZ
    ?_Calculate_growth@?$basic_string@DU?$char_traits@D@std@@V?$allocator@D@2@@std@@CA_K_K00@Z
    ?_Tidy_deallocate@?$basic_string@DU?$char_traits@D@std@@V?$allocator@D@2@@std@@AEAAXXZ
    ?_Swap_proxy_and_iterators@?$basic_string@DU?$char_traits@D@std@@V?$allocator@D@2@@std@@AEAAXAEAV12@@Z
    ?_Getal@?$basic_string@DU?$char_traits@D@std@@V?$allocator@D@2@@std@@AEAAAEAV?$allocator@D@2@XZ
    ?_Getal@?$basic_string@DU?$char_traits@D@std@@V?$allocator@D@2@@std@@AEBAAEBV?$allocator@D@2@XZ
    ?_Get_first@?$_Compressed_pair@V?$allocator@D@std@@V?$_String_val@U?$_Simple_types@D@std@@@2@$00@std@@QEAAAEAV?$allocator@D@2@XZ
    ?_Get_first@?$_Compressed_pair@V?$allocator@D@std@@V?$_String_val@U?$_Simple_types@D@std@@@2@$00@std@@QEBAAEBV?$allocator@D@2@XZ
    ??1?$_Compressed_pair@V?$allocator@D@std@@V?$_String_val@U?$_Simple_types@D@std@@@2@$00@std@@QEAA@XZ
    ??1VariantContainerBase@Glib@@QEAA@XZ
    ?get_type@Class@Glib@@QEBA_KXZ
    ?to_cpp_type@?$TypeTraits@V?$basic_string@DU?$char_traits@D@std@@V?$allocator@D@2@@std@@@Container_Helpers@Glib@@SA?AV?$basic_string@DU?$char_traits@D@std@@V?$allocator@D@2@@std@@PEBD@Z
    ?release_c_type@?$TypeTraits@V?$basic_string@DU?$char_traits@D@std@@V?$allocator@D@2@@std@@@Container_Helpers@Glib@@SAXPEBD@Z
    ?convert_const_gchar_ptr_to_stdstring@Glib@@YA?AV?$basic_string@DU?$char_traits@D@std@@V?$allocator@D@2@@std@@PEBD@Z
    ??1?$RefPtr@VFile@Gio@@@Glib@@QEAA@XZ
    ??0ApplicationCommandLine@Gio@@IEAA@AEBVConstructParams@Glib@@@Z
    ??0ApplicationCommandLine@Gio@@IEAA@PEAU_GApplicationCommandLine@@@Z
    ??0ApplicationCommandLine@Gio@@QEAA@$$QEAV01@@Z
    ??4ApplicationCommandLine@Gio@@QEAAAEAV01@$$QEAV01@@Z
    ??1ApplicationCommandLine@Gio@@UEAA@XZ
    ?get_type@ApplicationCommandLine@Gio@@SA_KXZ
    ?get_base_type@ApplicationCommandLine@Gio@@SA_KXZ
    ?gobj@ApplicationCommandLine@Gio@@QEAAPEAU_GApplicationCommandLine@@XZ
    ?gobj@ApplicationCommandLine@Gio@@QEBAPEBU_GApplicationCommandLine@@XZ
    ?gobj_copy@ApplicationCommandLine@Gio@@QEAAPEAU_GApplicationCommandLine@@XZ
    ??0ApplicationCommandLine@Gio@@IEAA@XZ
    ?get_arguments@ApplicationCommandLine@Gio@@QEBAPEAPEADAEAH@Z
    ?get_options_dict@ApplicationCommandLine@Gio@@QEAA?AV?$RefPtr@VVariantDict@Glib@@@Glib@@XZ
    ?get_options_dict@ApplicationCommandLine@Gio@@QEBA?AV?$RefPtr@$$CBVVariantDict@Glib@@@Glib@@XZ
    ?get_stdin@ApplicationCommandLine@Gio@@QEAA?AV?$RefPtr@VInputStream@Gio@@@Glib@@XZ
    ?get_stdin@ApplicationCommandLine@Gio@@QEBA?AV?$RefPtr@$$CBVInputStream@Gio@@@Glib@@XZ
    ?get_cwd@ApplicationCommandLine@Gio@@QEBA?AV?$basic_string@DU?$char_traits@D@std@@V?$allocator@D@2@@std@@XZ
    ?get_environ@ApplicationCommandLine@Gio@@QEBA?AV?$vector@V?$basic_string@DU?$char_traits@D@std@@V?$allocator@D@2@@std@@V?$allocator@V?$basic_string@DU?$char_traits@D@std@@V?$allocator@D@2@@std@@@2@@std@@XZ
    ?getenv@ApplicationCommandLine@Gio@@QEBA?AV?$basic_string@DU?$char_traits@D@std@@V?$allocator@D@2@@std@@AEBVustring@Glib@@@Z
    ?is_remote@ApplicationCommandLine@Gio@@QEBA_NXZ
    ?get_platform_data@ApplicationCommandLine@Gio@@QEBA?AV?$Variant@V?$map@Vustring@Glib@@VVariantBase@2@U?$less@Vustring@Glib@@@std@@V?$allocator@U?$pair@$$CBVustring@Glib@@VVariantBase@2@@std@@@5@@std@@@Glib@@XZ
    ?set_exit_status@ApplicationCommandLine@Gio@@QEAAXH@Z
    ?get_exit_status@ApplicationCommandLine@Gio@@QEBAHXZ
    ?print@ApplicationCommandLine@Gio@@QEAAXAEBVustring@Glib@@@Z
    ?printerr@ApplicationCommandLine@Gio@@QEAAXAEBVustring@Glib@@@Z
    ?create_file_for_arg@ApplicationCommandLine@Gio@@QEBA?AV?$RefPtr@VFile@Gio@@@Glib@@AEBVustring@4@@Z
    ??_DApplicationCommandLine@Gio@@QEAAXXZ
    ?wrap@Glib@@YA?AV?$RefPtr@VApplicationCommandLine@Gio@@@1@PEAU_GApplicationCommandLine@@_N@Z
    ?init@ApplicationCommandLine_Class@Gio@@QEAAAEBVClass@Glib@@XZ
    ?class_init_function@ApplicationCommandLine_Class@Gio@@SAXPEAX0@Z
    ?wrap_new@ApplicationCommandLine_Class@Gio@@SAPEAVObjectBase@Glib@@PEAU_GObject@@@Z
    ??1?$RefPtr@VApplicationCommandLine@Gio@@@Glib@@QEAA@XZ
    ??0?$RefPtr@VApplicationCommandLine@Gio@@@Glib@@QEAA@PEAVApplicationCommandLine@Gio@@@Z
    ??$move@AEAVApplicationCommandLine@Gio@@@std@@YA$$QEAVApplicationCommandLine@Gio@@AEAV12@@Z
    ??1?$RefPtr@VVariantDict@Glib@@@Glib@@QEAA@XZ
    ??0?$RefPtr@VVariantDict@Glib@@@Glib@@QEAA@$$QEAV01@@Z
    ??C?$RefPtr@VVariantDict@Glib@@@Glib@@QEBAPEAVVariantDict@1@XZ
    ??B?$RefPtr@VVariantDict@Glib@@@Glib@@QEBA_NXZ
    ?release@?$RefPtr@VVariantDict@Glib@@@Glib@@QEAAPEAVVariantDict@2@XZ
    ??1?$RefPtr@$$CBVVariantDict@Glib@@@Glib@@QEAA@XZ
    ??$?0VVariantDict@Glib@@@?$RefPtr@$$CBVVariantDict@Glib@@@Glib@@QEAA@$$QEAV?$RefPtr@VVariantDict@Glib@@@1@@Z
    ??1?$RefPtr@VInputStream@Gio@@@Glib@@QEAA@XZ
    ??0?$RefPtr@VInputStream@Gio@@@Glib@@QEAA@$$QEAV01@@Z
    ??C?$RefPtr@VInputStream@Gio@@@Glib@@QEBAPEAVInputStream@Gio@@XZ
    ??B?$RefPtr@VInputStream@Gio@@@Glib@@QEBA_NXZ
    ?release@?$RefPtr@VInputStream@Gio@@@Glib@@QEAAPEAVInputStream@Gio@@XZ
    ??1?$RefPtr@$$CBVInputStream@Gio@@@Glib@@QEAA@XZ
    ??$?0VInputStream@Gio@@@?$RefPtr@$$CBVInputStream@Gio@@@Glib@@QEAA@$$QEAV?$RefPtr@VInputStream@Gio@@@1@@Z
    ??0?$allocator@V?$basic_string@DU?$char_traits@D@std@@V?$allocator@D@2@@std@@@std@@QEAA@XZ
    ?deallocate@?$allocator@V?$basic_string@DU?$char_traits@D@std@@V?$allocator@D@2@@std@@@std@@QEAAXQEAV?$basic_string@DU?$char_traits@D@std@@V?$allocator@D@2@@2@_K@Z
    ?allocate@?$allocator@V?$basic_string@DU?$char_traits@D@std@@V?$allocator@D@2@@std@@@std@@QEAAPEAV?$basic_string@DU?$char_traits@D@std@@V?$allocator@D@2@@2@_K@Z
    ?max_size@?$_Default_allocator_traits@V?$allocator@V?$basic_string@DU?$char_traits@D@std@@V?$allocator@D@2@@std@@@std@@@std@@SA_KAEBV?$allocator@V?$basic_string@DU?$char_traits@D@std@@V?$allocator@D@2@@std@@@2@@Z
    ??0?$vector@V?$basic_string@DU?$char_traits@D@std@@V?$allocator@D@2@@std@@V?$allocator@V?$basic_string@DU?$char_traits@D@std@@V?$allocator@D@2@@std@@@2@@std@@QEAA@XZ
    ??1?$vector@V?$basic_string@DU?$char_traits@D@std@@V?$allocator@D@2@@std@@V?$allocator@V?$basic_string@DU?$char_traits@D@std@@V?$allocator@D@2@@std@@@2@@std@@QEAA@XZ
    ?max_size@?$vector@V?$basic_string@DU?$char_traits@D@std@@V?$allocator@D@2@@std@@V?$allocator@V?$basic_string@DU?$char_traits@D@std@@V?$allocator@D@2@@std@@@2@@std@@QEBA_KXZ
    ?_Buy_raw@?$vector@V?$basic_string@DU?$char_traits@D@std@@V?$allocator@D@2@@std@@V?$allocator@V?$basic_string@DU?$char_traits@D@std@@V?$allocator@D@2@@std@@@2@@std@@AEAAX_K@Z
    ?_Buy_nonzero@?$vector@V?$basic_string@DU?$char_traits@D@std@@V?$allocator@D@2@@std@@V?$allocator@V?$basic_string@DU?$char_traits@D@std@@V?$allocator@D@2@@std@@@2@@std@@AEAAX_K@Z
    ?_Tidy@?$vector@V?$basic_string@DU?$char_traits@D@std@@V?$allocator@D@2@@std@@V?$allocator@V?$basic_string@DU?$char_traits@D@std@@V?$allocator@D@2@@std@@@2@@std@@AEAAXXZ
    ?_Xlength@?$vector@V?$basic_string@DU?$char_traits@D@std@@V?$allocator@D@2@@std@@V?$allocator@V?$basic_string@DU?$char_traits@D@std@@V?$allocator@D@2@@std@@@2@@std@@CAXXZ
    ?_Getal@?$vector@V?$basic_string@DU?$char_traits@D@std@@V?$allocator@D@2@@std@@V?$allocator@V?$basic_string@DU?$char_traits@D@std@@V?$allocator@D@2@@std@@@2@@std@@AEAAAEAV?$allocator@V?$basic_string@DU?$char_traits@D@std@@V?$allocator@D@2@@std@@@2@XZ
    ?_Getal@?$vector@V?$basic_string@DU?$char_traits@D@std@@V?$allocator@D@2@@std@@V?$allocator@V?$basic_string@DU?$char_traits@D@std@@V?$allocator@D@2@@std@@@2@@std@@AEBAAEBV?$allocator@V?$basic_string@DU?$char_traits@D@std@@V?$allocator@D@2@@std@@@2@XZ
    ??0?$_Vector_val@U?$_Simple_types@V?$basic_string@DU?$char_traits@D@std@@V?$allocator@D@2@@std@@@std@@@std@@QEAA@XZ
    ?_Get_first@?$_Compressed_pair@V?$allocator@V?$basic_string@DU?$char_traits@D@std@@V?$allocator@D@2@@std@@@std@@V?$_Vector_val@U?$_Simple_types@V?$basic_string@DU?$char_traits@D@std@@V?$allocator@D@2@@std@@@std@@@2@$00@std@@QEAAAEAV?$allocator@V?$basic_string@DU?$char_traits@D@std@@V?$allocator@D@2@@std@@@2@XZ
    ?_Get_first@?$_Compressed_pair@V?$allocator@V?$basic_string@DU?$char_traits@D@std@@V?$allocator@D@2@@std@@@std@@V?$_Vector_val@U?$_Simple_types@V?$basic_string@DU?$char_traits@D@std@@V?$allocator@D@2@@std@@@std@@@2@$00@std@@QEBAAEBV?$allocator@V?$basic_string@DU?$char_traits@D@std@@V?$allocator@D@2@@std@@@2@XZ
    ?array_to_vector@?$ArrayHandler@V?$basic_string@DU?$char_traits@D@std@@V?$allocator@D@2@@std@@U?$TypeTraits@V?$basic_string@DU?$char_traits@D@std@@V?$allocator@D@2@@std@@@Container_Helpers@Glib@@@Glib@@SA?AV?$vector@V?$basic_string@DU?$char_traits@D@std@@V?$allocator@D@2@@std@@V?$allocator@V?$basic_string@DU?$char_traits@D@std@@V?$allocator@D@2@@std@@@2@@std@@PEBQEBD_KW4OwnershipType@2@@Z
    ?array_to_vector@?$ArrayHandler@V?$basic_string@DU?$char_traits@D@std@@V?$allocator@D@2@@std@@U?$TypeTraits@V?$basic_string@DU?$char_traits@D@std@@V?$allocator@D@2@@std@@@Container_Helpers@Glib@@@Glib@@SA?AV?$vector@V?$basic_string@DU?$char_traits@D@std@@V?$allocator@D@2@@std@@V?$allocator@V?$basic_string@DU?$char_traits@D@std@@V?$allocator@D@2@@std@@@2@@std@@PEBQEBDW4OwnershipType@2@@Z
    ??0?$Variant@V?$map@Vustring@Glib@@VVariantBase@2@U?$less@Vustring@Glib@@@std@@V?$allocator@U?$pair@$$CBVustring@Glib@@VVariantBase@2@@std@@@5@@std@@@Glib@@QEAA@PEAU_GVariant@@_N@Z
    ??1?$Variant@V?$map@Vustring@Glib@@VVariantBase@2@U?$less@Vustring@Glib@@@std@@V?$allocator@U?$pair@$$CBVustring@Glib@@VVariantBase@2@@std@@@5@@std@@@Glib@@QEAA@XZ
    ??$min@_K@std@@YAAEB_KAEB_K0@Z
    ??$compute_array_size2@PEBD@Container_Helpers@Glib@@YA_KPEBQEBD@Z
    ??$_Convert_size@_K_K@std@@YA_K_K@Z
    ??$move@AEAV?$allocator@D@std@@@std@@YA$$QEAV?$allocator@D@0@AEAV10@@Z
    ??$?0V?$allocator@D@std@@$$V@?$_Compressed_pair@V?$allocator@D@std@@V?$_String_val@U?$_Simple_types@D@std@@@2@$00@std@@QEAA@U_One_then_variadic_args_t@1@$$QEAV?$allocator@D@1@@Z
    ??$?0$$V@?$_Compressed_pair@V?$allocator@D@std@@V?$_String_val@U?$_Simple_types@D@std@@@2@$00@std@@QEAA@U_Zero_then_variadic_args_t@1@@Z
    ??$_Construct@$00PEBD@?$basic_string@DU?$char_traits@D@std@@V?$allocator@D@2@@std@@AEAAXQEBD_K@Z
    ??$forward@V?$allocator@D@std@@@std@@YA$$QEAV?$allocator@D@0@AEAV10@@Z
    ??$_Allocate_for_capacity@$0A@@?$basic_string@DU?$char_traits@D@std@@V?$allocator@D@2@@std@@CAPEADAEAV?$allocator@D@1@AEA_K@Z
    ??$_Construct_in_place@PEADAEBQEAD@std@@YAXAEAPEADAEBQEAD@Z
    ??$_Unfancy@D@std@@YAPEADPEAD@Z
    ??0?$ArrayKeeper@U?$TypeTraits@V?$basic_string@DU?$char_traits@D@std@@V?$allocator@D@2@@std@@@Container_Helpers@Glib@@@Container_Helpers@Glib@@QEAA@PEBQEBD_KW4OwnershipType@2@@Z
    ??1?$ArrayKeeper@U?$TypeTraits@V?$basic_string@DU?$char_traits@D@std@@V?$allocator@D@2@@std@@@Container_Helpers@Glib@@@Container_Helpers@Glib@@QEAA@XZ
    ??0?$ArrayIterator@U?$TypeTraits@V?$basic_string@DU?$char_traits@D@std@@V?$allocator@D@2@@std@@@Container_Helpers@Glib@@@Container_Helpers@Glib@@QEAA@PEBQEBD@Z
    ??D?$ArrayIterator@U?$TypeTraits@V?$basic_string@DU?$char_traits@D@std@@V?$allocator@D@2@@std@@@Container_Helpers@Glib@@@Container_Helpers@Glib@@QEBA?AV?$basic_string@DU?$char_traits@D@std@@V?$allocator@D@2@@std@@XZ
    ??E?$ArrayIterator@U?$TypeTraits@V?$basic_string@DU?$char_traits@D@std@@V?$allocator@D@2@@std@@@Container_Helpers@Glib@@@Container_Helpers@Glib@@QEAAAEAV012@XZ
    ??G?$ArrayIterator@U?$TypeTraits@V?$basic_string@DU?$char_traits@D@std@@V?$allocator@D@2@@std@@@Container_Helpers@Glib@@@Container_Helpers@Glib@@QEBA_JAEBV012@@Z
    ??9?$ArrayIterator@U?$TypeTraits@V?$basic_string@DU?$char_traits@D@std@@V?$allocator@D@2@@std@@@Container_Helpers@Glib@@@Container_Helpers@Glib@@QEBA_NAEBV012@@Z
    ??$?0V?$ArrayIterator@U?$TypeTraits@V?$basic_string@DU?$char_traits@D@std@@V?$allocator@D@2@@std@@@Container_Helpers@Glib@@@Container_Helpers@Glib@@$0A@@?$vector@V?$basic_string@DU?$char_traits@D@std@@V?$allocator@D@2@@std@@V?$allocator@V?$basic_string@DU?$char_traits@D@std@@V?$allocator@D@2@@std@@@2@@std@@QEAA@V?$ArrayIterator@U?$TypeTraits@V?$basic_string@DU?$char_traits@D@std@@V?$allocator@D@2@@std@@@Container_Helpers@Glib@@@Container_Helpers@Glib@@0AEBV?$allocator@V?$basic_string@DU?$char_traits@D@std@@V?$allocator@D@2@@std@@@1@@Z
    ??$_Destroy_range@V?$allocator@V?$basic_string@DU?$char_traits@D@std@@V?$allocator@D@2@@std@@@std@@@std@@YAXPEAV?$basic_string@DU?$char_traits@D@std@@V?$allocator@D@2@@0@QEAV10@AEAV?$allocator@V?$basic_string@DU?$char_traits@D@std@@V?$allocator@D@2@@std@@@0@@Z
    ??$addressof@V?$_String_val@U?$_Simple_types@D@std@@@std@@@std@@YAPEAV?$_String_val@U?$_Simple_types@D@std@@@0@AEAV10@@Z
    ??$_Construct_in_place@PEADAEAPEAD@std@@YAXAEAPEAD0@Z
    ??$max@_K@std@@YAAEB_KAEB_K0@Z
    ??$_Deallocate@$0BA@@std@@YAXPEAX_K@Z
    ??$forward@AEAPEAD@std@@YAAEAPEADAEAPEAD@Z
    ??$_Allocate_at_least_helper@V?$allocator@D@std@@@std@@YAPEADAEAV?$allocator@D@0@AEA_K@Z
    ??$addressof@PEAD@std@@YAPEAPEADAEAPEAD@Z
    ??$forward@AEBQEAD@std@@YAAEBQEADAEBQEAD@Z
    ??$?0AEBV?$allocator@V?$basic_string@DU?$char_traits@D@std@@V?$allocator@D@2@@std@@@std@@$$V@?$_Compressed_pair@V?$allocator@V?$basic_string@DU?$char_traits@D@std@@V?$allocator@D@2@@std@@@std@@V?$_Vector_val@U?$_Simple_types@V?$basic_string@DU?$char_traits@D@std@@V?$allocator@D@2@@std@@@std@@@2@$00@std@@QEAA@U_One_then_variadic_args_t@1@AEBV?$allocator@V?$basic_string@DU?$char_traits@D@std@@V?$allocator@D@2@@std@@@1@@Z
    ??$_Adl_verify_range@V?$ArrayIterator@U?$TypeTraits@V?$basic_string@DU?$char_traits@D@std@@V?$allocator@D@2@@std@@@Container_Helpers@Glib@@@Container_Helpers@Glib@@V123@@std@@YAXAEBV?$ArrayIterator@U?$TypeTraits@V?$basic_string@DU?$char_traits@D@std@@V?$allocator@D@2@@std@@@Container_Helpers@Glib@@@Container_Helpers@Glib@@0@Z
    ??$_Get_unwrapped@AEAV?$ArrayIterator@U?$TypeTraits@V?$basic_string@DU?$char_traits@D@std@@V?$allocator@D@2@@std@@@Container_Helpers@Glib@@@Container_Helpers@Glib@@@std@@YA?A_TAEAV?$ArrayIterator@U?$TypeTraits@V?$basic_string@DU?$char_traits@D@std@@V?$allocator@D@2@@std@@@Container_Helpers@Glib@@@Container_Helpers@Glib@@@Z
    ??$distance@V?$ArrayIterator@U?$TypeTraits@V?$basic_string@DU?$char_traits@D@std@@V?$allocator@D@2@@std@@@Container_Helpers@Glib@@@Container_Helpers@Glib@@@std@@YA_JV?$ArrayIterator@U?$TypeTraits@V?$basic_string@DU?$char_traits@D@std@@V?$allocator@D@2@@std@@@Container_Helpers@Glib@@@Container_Helpers@Glib@@0@Z
    ??$move@AEAV?$ArrayIterator@U?$TypeTraits@V?$basic_string@DU?$char_traits@D@std@@V?$allocator@D@2@@std@@@Container_Helpers@Glib@@@Container_Helpers@Glib@@@std@@YA$$QEAV?$ArrayIterator@U?$TypeTraits@V?$basic_string@DU?$char_traits@D@std@@V?$allocator@D@2@@std@@@Container_Helpers@Glib@@@Container_Helpers@Glib@@AEAV123@@Z
    ??$_Construct_n@V?$ArrayIterator@U?$TypeTraits@V?$basic_string@DU?$char_traits@D@std@@V?$allocator@D@2@@std@@@Container_Helpers@Glib@@@Container_Helpers@Glib@@V123@@?$vector@V?$basic_string@DU?$char_traits@D@std@@V?$allocator@D@2@@std@@V?$allocator@V?$basic_string@DU?$char_traits@D@std@@V?$allocator@D@2@@std@@@2@@std@@AEAAX_K$$QEAV?$ArrayIterator@U?$TypeTraits@V?$basic_string@DU?$char_traits@D@std@@V?$allocator@D@2@@std@@@Container_Helpers@Glib@@@Container_Helpers@Glib@@1@Z
    ??$_Unfancy@V?$basic_string@DU?$char_traits@D@std@@V?$allocator@D@2@@std@@@std@@YAPEAV?$basic_string@DU?$char_traits@D@std@@V?$allocator@D@2@@0@PEAV10@@Z
    ??$destroy@V?$basic_string@DU?$char_traits@D@std@@V?$allocator@D@2@@std@@@?$_Default_allocator_traits@V?$allocator@V?$basic_string@DU?$char_traits@D@std@@V?$allocator@D@2@@std@@@std@@@std@@SAXAEAV?$allocator@V?$basic_string@DU?$char_traits@D@std@@V?$allocator@D@2@@std@@@1@QEAV?$basic_string@DU?$char_traits@D@std@@V?$allocator@D@2@@1@@Z
    ??$_Get_size_of_n@$0CA@@std@@YA_K_K@Z
    ??$_Allocate@$0BA@U_Default_allocate_traits@std@@@std@@YAPEAX_K@Z
    ??$?0$$V@?$_Compressed_pair@V?$allocator@V?$basic_string@DU?$char_traits@D@std@@V?$allocator@D@2@@std@@@std@@V?$_Vector_val@U?$_Simple_types@V?$basic_string@DU?$char_traits@D@std@@V?$allocator@D@2@@std@@@std@@@2@$00@std@@QEAA@U_Zero_then_variadic_args_t@1@@Z
    ??$_Destroy_in_place@PEAD@std@@YAXAEAPEAD@Z
    ??$_Max_limit@_J@std@@YA_JXZ
    ??$forward@AEBV?$allocator@V?$basic_string@DU?$char_traits@D@std@@V?$allocator@D@2@@std@@@std@@@std@@YAAEBV?$allocator@V?$basic_string@DU?$char_traits@D@std@@V?$allocator@D@2@@std@@@0@AEBV10@@Z
    ??1?$_Tidy_guard@V?$vector@V?$basic_string@DU?$char_traits@D@std@@V?$allocator@D@2@@std@@V?$allocator@V?$basic_string@DU?$char_traits@D@std@@V?$allocator@D@2@@std@@@2@@std@@@std@@QEAA@XZ
    ??$forward@V?$ArrayIterator@U?$TypeTraits@V?$basic_string@DU?$char_traits@D@std@@V?$allocator@D@2@@std@@@Container_Helpers@Glib@@@Container_Helpers@Glib@@@std@@YA$$QEAV?$ArrayIterator@U?$TypeTraits@V?$basic_string@DU?$char_traits@D@std@@V?$allocator@D@2@@std@@@Container_Helpers@Glib@@@Container_Helpers@Glib@@AEAV123@@Z
    ??$_Uninitialized_copy@V?$ArrayIterator@U?$TypeTraits@V?$basic_string@DU?$char_traits@D@std@@V?$allocator@D@2@@std@@@Container_Helpers@Glib@@@Container_Helpers@Glib@@V123@V?$allocator@V?$basic_string@DU?$char_traits@D@std@@V?$allocator@D@2@@std@@@std@@@std@@YAPEAV?$basic_string@DU?$char_traits@D@std@@V?$allocator@D@2@@0@V?$ArrayIterator@U?$TypeTraits@V?$basic_string@DU?$char_traits@D@std@@V?$allocator@D@2@@std@@@Container_Helpers@Glib@@@Container_Helpers@Glib@@0PEAV10@AEAV?$allocator@V?$basic_string@DU?$char_traits@D@std@@V?$allocator@D@2@@std@@@0@@Z
    ??$_Allocate_manually_vector_aligned@U_Default_allocate_traits@std@@@std@@YAPEAX_K@Z
    ??$_Get_unwrapped@V?$ArrayIterator@U?$TypeTraits@V?$basic_string@DU?$char_traits@D@std@@V?$allocator@D@2@@std@@@Container_Helpers@Glib@@@Container_Helpers@Glib@@@std@@YA?A_T$$QEAV?$ArrayIterator@U?$TypeTraits@V?$basic_string@DU?$char_traits@D@std@@V?$allocator@D@2@@std@@@Container_Helpers@Glib@@@Container_Helpers@Glib@@@Z
    ??0?$_Uninitialized_backout_al@V?$allocator@V?$basic_string@DU?$char_traits@D@std@@V?$allocator@D@2@@std@@@std@@@std@@QEAA@PEAV?$basic_string@DU?$char_traits@D@std@@V?$allocator@D@2@@1@AEAV?$allocator@V?$basic_string@DU?$char_traits@D@std@@V?$allocator@D@2@@std@@@1@@Z
    ??1?$_Uninitialized_backout_al@V?$allocator@V?$basic_string@DU?$char_traits@D@std@@V?$allocator@D@2@@std@@@std@@@std@@QEAA@XZ
    ?_Release@?$_Uninitialized_backout_al@V?$allocator@V?$basic_string@DU?$char_traits@D@std@@V?$allocator@D@2@@std@@@std@@@std@@QEAAPEAV?$basic_string@DU?$char_traits@D@std@@V?$allocator@D@2@@2@XZ
    ??$_Emplace_back@V?$basic_string@DU?$char_traits@D@std@@V?$allocator@D@2@@std@@@?$_Uninitialized_backout_al@V?$allocator@V?$basic_string@DU?$char_traits@D@std@@V?$allocator@D@2@@std@@@std@@@std@@QEAAX$$QEAV?$basic_string@DU?$char_traits@D@std@@V?$allocator@D@2@@1@@Z
    ??$_Get_size_of_n@$00@std@@YA_K_K@Z
    ??$forward@V?$basic_string@DU?$char_traits@D@std@@V?$allocator@D@2@@std@@@std@@YA$$QEAV?$basic_string@DU?$char_traits@D@std@@V?$allocator@D@2@@0@AEAV10@@Z
    ??$construct@V?$basic_string@DU?$char_traits@D@std@@V?$allocator@D@2@@std@@V12@@?$_Default_allocator_traits@V?$allocator@V?$basic_string@DU?$char_traits@D@std@@V?$allocator@D@2@@std@@@std@@@std@@SAXAEAV?$allocator@V?$basic_string@DU?$char_traits@D@std@@V?$allocator@D@2@@std@@@1@QEAV?$basic_string@DU?$char_traits@D@std@@V?$allocator@D@2@@1@$$QEAV31@@Z
    ??$_Allocate_at_least_helper@V?$allocator@V?$basic_string@DU?$char_traits@D@std@@V?$allocator@D@2@@std@@@std@@@std@@YAPEAV?$basic_string@DU?$char_traits@D@std@@V?$allocator@D@2@@0@AEAV?$allocator@V?$basic_string@DU?$char_traits@D@std@@V?$allocator@D@2@@std@@@0@AEA_K@Z
    ??_7exception@std@@6B@
    ??_C@_0BC@EOODALEL@Unknown?5exception@
    ??_7bad_alloc@std@@6B@
    ??_7bad_array_new_length@std@@6B@
    ??_C@_0BF@KINCDENJ@bad?5array?5new?5length@
    ??_R0?AVexception@std@@@8
    _CT??_R0?AVexception@std@@@8??0exception@std@@QEAA@AEBV01@@Z24
    _TI3?AVbad_array_new_length@std@@
    _CTA3?AVbad_array_new_length@std@@
    ??_R0?AVbad_array_new_length@std@@@8
    _CT??_R0?AVbad_array_new_length@std@@@8??0bad_array_new_length@std@@QEAA@AEBV01@@Z24
    ??_R0?AVbad_alloc@std@@@8
    _CT??_R0?AVbad_alloc@std@@@8??0bad_alloc@std@@QEAA@AEBV01@@Z24
    ??_C@_0BA@JFNIOLAK@string?5too?5long@
    ??_7ApplicationCommandLine@Gio@@6B@
    ??_8ApplicationCommandLine@Gio@@7BObject@Glib@@@
    ??_8ApplicationCommandLine@Gio@@7BObjectBase@Glib@@@
    ??_C@_02DKCKIIND@?$CFs@
    ??_R0?AVObjectBase@Glib@@@8
    ??_R0?AVApplicationCommandLine@Gio@@@8
    ??_C@_0BA@FOIKENOD@vector?5too?5long@
    ??_R4exception@std@@6B@
    ??_R3exception@std@@8
    ??_R2exception@std@@8
    ??_R1A@?0A@EA@exception@std@@8
    ??_R4bad_array_new_length@std@@6B@
    ??_R3bad_array_new_length@std@@8
    ??_R2bad_array_new_length@std@@8
    ??_R1A@?0A@EA@bad_array_new_length@std@@8
    ??_R1A@?0A@EA@bad_alloc@std@@8
    ??_R3bad_alloc@std@@8
    ??_R2bad_alloc@std@@8
    ??_R4bad_alloc@std@@6B@
    ??_R4ApplicationCommandLine@Gio@@6B@
    ??_R3ApplicationCommandLine@Gio@@8
    ??_R2ApplicationCommandLine@Gio@@8
    ??_R1A@?0A@EA@ApplicationCommandLine@Gio@@8
    ??_R1A@?0A@EA@Object@Glib@@8
    ??_R0?AVObject@Glib@@@8
    ??_R3Object@Glib@@8
    ??_R2Object@Glib@@8
    ??_R1A@A@7FA@ObjectBase@Glib@@8
    ??_R3ObjectBase@Glib@@8
    ??_R2ObjectBase@Glib@@8
    ??_R1A@?0A@EA@ObjectBase@Glib@@8
    ??_R1A@73FA@trackable@sigc@@8
    ??_R0?AUtrackable@sigc@@@8
    ??_R3trackable@sigc@@8
    ??_R2trackable@sigc@@8
    ??_R1A@?0A@EA@trackable@sigc@@8
    ??_R1A@A@3FA@trackable@sigc@@8
    ?asyncinitable_class_@AsyncInitable@Gio@@0VAsyncInitable_Class@2@A
    ?__empty_global_delete@@YAXPEAX@Z
    ?__empty_global_delete@@YAXPEAX_K@Z
    ?name@type_info@@QEBAPEBDXZ
    ?get_type@Class@Glib@@QEBA_KXZ
    ?gobj@AsyncResult@Gio@@QEAAPEAU_GAsyncResult@@XZ
    ??0AsyncInitable@Gio@@IEAA@XZ
    ??0AsyncInitable@Gio@@IEAA@AEBVInterface_Class@Glib@@@Z
    ??0AsyncInitable@Gio@@QEAA@PEAU_GAsyncInitable@@@Z
    ??0AsyncInitable@Gio@@QEAA@$$QEAV01@@Z
    ??4AsyncInitable@Gio@@QEAAAEAV01@$$QEAV01@@Z
    ??1AsyncInitable@Gio@@UEAA@XZ
    ?add_interface@AsyncInitable@Gio@@SAX_K@Z
    ?get_type@AsyncInitable@Gio@@SA_KXZ
    ?get_base_type@AsyncInitable@Gio@@SA_KXZ
    ?gobj@AsyncInitable@Gio@@QEAAPEAU_GAsyncInitable@@XZ
    ?init_async@AsyncInitable@Gio@@IEAAXAEBV?$slot@XAEAV?$RefPtr@VAsyncResult@Gio@@@Glib@@Unil@sigc@@U34@U34@U34@U34@U34@@sigc@@AEBV?$RefPtr@VCancellable@Gio@@@Glib@@H@Z
    ?init_async@AsyncInitable@Gio@@IEAAXAEBV?$slot@XAEAV?$RefPtr@VAsyncResult@Gio@@@Glib@@Unil@sigc@@U34@U34@U34@U34@U34@@sigc@@H@Z
    ?init_finish@AsyncInitable@Gio@@IEAA_NAEBV?$RefPtr@VAsyncResult@Gio@@@Glib@@@Z
    ?create_finish@AsyncInitable@Gio@@IEAA?AV?$RefPtr@VObject@Glib@@@Glib@@AEBV?$RefPtr@VAsyncResult@Gio@@@4@@Z
    ?init_async_vfunc@AsyncInitable@Gio@@MEAAXAEBV?$slot@XAEAV?$RefPtr@VAsyncResult@Gio@@@Glib@@Unil@sigc@@U34@U34@U34@U34@U34@@sigc@@AEBV?$RefPtr@VCancellable@Gio@@@Glib@@H@Z
    ?init_finish_vfunc@AsyncInitable@Gio@@MEAA_NAEBV?$RefPtr@VAsyncResult@Gio@@@Glib@@@Z
    ??_DAsyncInitable@Gio@@QEAAXXZ
    ?wrap@Glib@@YA?AV?$RefPtr@VAsyncInitable@Gio@@@1@PEAU_GAsyncInitable@@_N@Z
    ?init@AsyncInitable_Class@Gio@@QEAAAEBVInterface_Class@Glib@@XZ
    ?iface_init_function@AsyncInitable_Class@Gio@@SAXPEAX0@Z
    ?wrap_new@AsyncInitable_Class@Gio@@SAPEAVObjectBase@Glib@@PEAU_GObject@@@Z
    ?init_async_vfunc_callback@AsyncInitable_Class@Gio@@KAXPEAU_GAsyncInitable@@HPEAU_GCancellable@@P6AXPEAU_GObject@@PEAU_GAsyncResult@@PEAX@Z4@Z
    ?init_finish_vfunc_callback@AsyncInitable_Class@Gio@@KAHPEAU_GAsyncInitable@@PEAU_GAsyncResult@@PEAPEAU_GError@@@Z
    ?gobj@Cancellable@Gio@@QEAAPEAU_GCancellable@@XZ
    ??0?$slot1@XAEAV?$RefPtr@VAsyncResult@Gio@@@Glib@@@sigc@@QEAA@AEBV01@@Z
    ??1?$slot1@XAEAV?$RefPtr@VAsyncResult@Gio@@@Glib@@@sigc@@QEAA@XZ
    ??0?$slot@XAEAV?$RefPtr@VAsyncResult@Gio@@@Glib@@Unil@sigc@@U34@U34@U34@U34@U34@@sigc@@QEAA@AEBV01@@Z
    ??1?$RefPtr@VCancellable@Gio@@@Glib@@QEAA@XZ
    ??C?$RefPtr@VCancellable@Gio@@@Glib@@QEBAPEAVCancellable@Gio@@XZ
    ??B?$RefPtr@VCancellable@Gio@@@Glib@@QEBA_NXZ
    ??$unwrap@VCancellable@Gio@@@Glib@@YAPEAU_GCancellable@@AEBV?$RefPtr@VCancellable@Gio@@@0@@Z
    ??1?$RefPtr@VAsyncResult@Gio@@@Glib@@QEAA@XZ
    ??C?$RefPtr@VAsyncResult@Gio@@@Glib@@QEBAPEAVAsyncResult@Gio@@XZ
    ??B?$RefPtr@VAsyncResult@Gio@@@Glib@@QEBA_NXZ
    ??$unwrap@VAsyncResult@Gio@@@Glib@@YAPEAU_GAsyncResult@@AEBV?$RefPtr@VAsyncResult@Gio@@@0@@Z
    ??1?$RefPtr@VAsyncInitable@Gio@@@Glib@@QEAA@XZ
    ??0?$RefPtr@VAsyncInitable@Gio@@@Glib@@QEAA@PEAVAsyncInitable@Gio@@@Z
    ??$wrap_auto_interface@VAsyncInitable@Gio@@@Glib@@YAPEAVAsyncInitable@Gio@@PEAU_GObject@@_N@Z
    ??$move@AEAVAsyncInitable@Gio@@@std@@YA$$QEAVAsyncInitable@Gio@@AEAV12@@Z
    ??1?$RefPtr@VObject@Glib@@@Glib@@QEAA@XZ
    ??0?$RefPtr@VObject@Glib@@@Glib@@QEAA@$$QEAV01@@Z
    ??_7AsyncInitable@Gio@@6B01@@
    ??_7AsyncInitable@Gio@@6BInterface@Glib@@@
    ??_8AsyncInitable@Gio@@7BInterface@Glib@@@
    ??_8AsyncInitable@Gio@@7BObjectBase@Glib@@@
    ??_R0?AVObjectBase@Glib@@@8
    ??_R0?AVAsyncInitable@Gio@@@8
    ??_C@_0BB@DJDNGIAO@klass?5?$CB?$DN?5nullptr@
    ??_C@_0CO@DFCCFHFH@Gio?3?3AsyncInitable_Class?3?3iface@
    ??_C@_0BO@CBBPBHKJ@?4?4?2gio?2giomm?2asyncinitable?4cc@
    ??_C@_0FM@MEPOJGMK@Glib?3?3wrap_auto_interface?$CI?$CJ?3?5Th@
    ??_R4AsyncInitable@Gio@@6B01@@
    ??_R3AsyncInitable@Gio@@8
    ??_R2AsyncInitable@Gio@@8
    ??_R1A@?0A@EA@AsyncInitable@Gio@@8
    ??_R17?0A@EA@Interface@Glib@@8
    ??_R0?AVInterface@Glib@@@8
    ??_R3Interface@Glib@@8
    ??_R2Interface@Glib@@8
    ??_R1A@?0A@EA@Interface@Glib@@8
    ??_R1A@A@7FA@ObjectBase@Glib@@8
    ??_R3ObjectBase@Glib@@8
    ??_R2ObjectBase@Glib@@8
    ??_R1A@?0A@EA@ObjectBase@Glib@@8
    ??_R1A@73FA@trackable@sigc@@8
    ??_R0?AUtrackable@sigc@@@8
    ??_R3trackable@sigc@@8
    ??_R2trackable@sigc@@8
    ??_R1A@?0A@EA@trackable@sigc@@8
    ??_R1A@A@3FA@trackable@sigc@@8
    ??_R1A@77FA@ObjectBase@Glib@@8
    ??_R4AsyncInitable@Gio@@6BInterface@Glib@@@
    ?asyncresult_class_@AsyncResult@Gio@@0VAsyncResult_Class@2@A
    ?__empty_global_delete@@YAXPEAX@Z
    ?__empty_global_delete@@YAXPEAX_K@Z
    ?name@type_info@@QEBAPEBDXZ
    ?get_type@Class@Glib@@QEBA_KXZ
    ??0AsyncResult@Gio@@IEAA@XZ
    ??0AsyncResult@Gio@@IEAA@AEBVInterface_Class@Glib@@@Z
    ??0AsyncResult@Gio@@QEAA@PEAU_GAsyncResult@@@Z
    ??0AsyncResult@Gio@@QEAA@$$QEAV01@@Z
    ??4AsyncResult@Gio@@QEAAAEAV01@$$QEAV01@@Z
    ??1AsyncResult@Gio@@UEAA@XZ
    ?add_interface@AsyncResult@Gio@@SAX_K@Z
    ?get_type@AsyncResult@Gio@@SA_KXZ
    ?get_base_type@AsyncResult@Gio@@SA_KXZ
    ?gobj@AsyncResult@Gio@@QEAAPEAU_GAsyncResult@@XZ
    ?gobj@AsyncResult@Gio@@QEBAPEBU_GAsyncResult@@XZ
    ?get_source_object@AsyncResult@Gio@@QEAA?AV?$RefPtr@VObject@Glib@@@Glib@@XZ
    ?get_source_object@AsyncResult@Gio@@QEBA?AV?$RefPtr@$$CBVObject@Glib@@@Glib@@XZ
    ?get_source_object_base@AsyncResult@Gio@@QEAA?AV?$RefPtr@VObjectBase@Glib@@@Glib@@XZ
    ?get_source_object_base@AsyncResult@Gio@@QEBA?AV?$RefPtr@$$CBVObjectBase@Glib@@@Glib@@XZ
    ?is_tagged@AsyncResult@Gio@@QEBA_NPEAX@Z
    ?get_source_object_vfunc@AsyncResult@Gio@@UEAA?AV?$RefPtr@VObjectBase@Glib@@@Glib@@XZ
    ??_DAsyncResult@Gio@@QEAAXXZ
    ?wrap@Glib@@YA?AV?$RefPtr@VAsyncResult@Gio@@@1@PEAU_GAsyncResult@@_N@Z
    ?init@AsyncResult_Class@Gio@@QEAAAEBVInterface_Class@Glib@@XZ
    ?iface_init_function@AsyncResult_Class@Gio@@SAXPEAX0@Z
    ?wrap_new@AsyncResult_Class@Gio@@SAPEAVObjectBase@Glib@@PEAU_GObject@@@Z
    ?get_source_object_vfunc_callback@AsyncResult_Class@Gio@@KAPEAU_GObject@@PEAU_GAsyncResult@@@Z
    ??0?$RefPtr@VObjectBase@Glib@@@Glib@@QEAA@XZ
    ??1?$RefPtr@VObjectBase@Glib@@@Glib@@QEAA@XZ
    ??0?$RefPtr@VObjectBase@Glib@@@Glib@@QEAA@PEAVObjectBase@1@@Z
    ??0?$RefPtr@VObjectBase@Glib@@@Glib@@QEAA@$$QEAV01@@Z
    ??C?$RefPtr@VObjectBase@Glib@@@Glib@@QEBAPEAVObjectBase@1@XZ
    ??B?$RefPtr@VObjectBase@Glib@@@Glib@@QEBA_NXZ
    ?release@?$RefPtr@VObjectBase@Glib@@@Glib@@QEAAPEAVObjectBase@2@XZ
    ??1?$RefPtr@$$CBVObjectBase@Glib@@@Glib@@QEAA@XZ
    ??$?0VObjectBase@Glib@@@?$RefPtr@$$CBVObjectBase@Glib@@@Glib@@QEAA@$$QEAV?$RefPtr@VObjectBase@Glib@@@1@@Z
    ??1?$RefPtr@VAsyncResult@Gio@@@Glib@@QEAA@XZ
    ??0?$RefPtr@VAsyncResult@Gio@@@Glib@@QEAA@PEAVAsyncResult@Gio@@@Z
    ??$wrap_auto_interface@VAsyncResult@Gio@@@Glib@@YAPEAVAsyncResult@Gio@@PEAU_GObject@@_N@Z
    ??$move@AEAVAsyncResult@Gio@@@std@@YA$$QEAVAsyncResult@Gio@@AEAV12@@Z
    ??1?$RefPtr@VObject@Glib@@@Glib@@QEAA@XZ
    ?release@?$RefPtr@VObject@Glib@@@Glib@@QEAAPEAVObject@2@XZ
    ??1?$RefPtr@$$CBVObject@Glib@@@Glib@@QEAA@XZ
    ??$?0VObject@Glib@@@?$RefPtr@$$CBVObject@Glib@@@Glib@@QEAA@$$QEAV?$RefPtr@VObject@Glib@@@1@@Z
    ??$?0VObject@Glib@@@?$RefPtr@VObjectBase@Glib@@@Glib@@QEAA@$$QEAV?$RefPtr@VObject@Glib@@@1@@Z
    ??_7AsyncResult@Gio@@6B01@@
    ??_7AsyncResult@Gio@@6BInterface@Glib@@@
    ??_8AsyncResult@Gio@@7BInterface@Glib@@@
    ??_8AsyncResult@Gio@@7BObjectBase@Glib@@@
    ??_C@_0BB@DJDNGIAO@klass?5?$CB?$DN?5nullptr@
    ??_C@_0CM@GNPCMPMB@Gio?3?3AsyncResult_Class?3?3iface_i@
    ??_C@_0BM@NDPEDDIL@?4?4?2gio?2giomm?2asyncresult?4cc@
    ??_R0?AVObjectBase@Glib@@@8
    ??_R0?AVAsyncResult@Gio@@@8
    ??_C@_0FM@MEPOJGMK@Glib?3?3wrap_auto_interface?$CI?$CJ?3?5Th@
    ??_R4AsyncResult@Gio@@6B01@@
    ??_R3AsyncResult@Gio@@8
    ??_R2AsyncResult@Gio@@8
    ??_R1A@?0A@EA@AsyncResult@Gio@@8
    ??_R17?0A@EA@Interface@Glib@@8
    ??_R0?AVInterface@Glib@@@8
    ??_R3Interface@Glib@@8
    ??_R2Interface@Glib@@8
    ??_R1A@?0A@EA@Interface@Glib@@8
    ??_R1A@A@7FA@ObjectBase@Glib@@8
    ??_R3ObjectBase@Glib@@8
    ??_R2ObjectBase@Glib@@8
    ??_R1A@?0A@EA@ObjectBase@Glib@@8
    ??_R1A@73FA@trackable@sigc@@8
    ??_R0?AUtrackable@sigc@@@8
    ??_R3trackable@sigc@@8
    ??_R2trackable@sigc@@8
    ??_R1A@?0A@EA@trackable@sigc@@8
    ??_R1A@A@3FA@trackable@sigc@@8
    ??_R1A@77FA@ObjectBase@Glib@@8
    ??_R4AsyncResult@Gio@@6BInterface@Glib@@@
    ?bufferedinputstream_class_@BufferedInputStream@Gio@@0VBufferedInputStream_Class@2@A
    ?__empty_global_delete@@YAXPEAX@Z
    ?__empty_global_delete@@YAXPEAX_K@Z
    ?get_type@Class@Glib@@QEBA_KXZ
    ?gobj@AsyncResult@Gio@@QEAAPEAU_GAsyncResult@@XZ
    ?gobj@Cancellable@Gio@@QEAAPEAU_GCancellable@@XZ
    ?gobj@InputStream@Gio@@QEAAPEAU_GInputStream@@XZ
    ??0BufferedInputStream@Gio@@IEAA@AEBVConstructParams@Glib@@@Z
    ??0BufferedInputStream@Gio@@IEAA@PEAU_GBufferedInputStream@@@Z
    ??0BufferedInputStream@Gio@@QEAA@$$QEAV01@@Z
    ??4BufferedInputStream@Gio@@QEAAAEAV01@$$QEAV01@@Z
    ??1BufferedInputStream@Gio@@UEAA@XZ
    ?get_type@BufferedInputStream@Gio@@SA_KXZ
    ?get_base_type@BufferedInputStream@Gio@@SA_KXZ
    ?gobj@BufferedInputStream@Gio@@QEAAPEAU_GBufferedInputStream@@XZ
    ?gobj@BufferedInputStream@Gio@@QEBAPEBU_GBufferedInputStream@@XZ
    ?gobj_copy@BufferedInputStream@Gio@@QEAAPEAU_GBufferedInputStream@@XZ
    ??0BufferedInputStream@Gio@@IEAA@AEBV?$RefPtr@VInputStream@Gio@@@Glib@@@Z
    ??0BufferedInputStream@Gio@@IEAA@AEBV?$RefPtr@VInputStream@Gio@@@Glib@@_K@Z
    ?create@BufferedInputStream@Gio@@SA?AV?$RefPtr@VBufferedInputStream@Gio@@@Glib@@AEBV?$RefPtr@VInputStream@Gio@@@4@@Z
    ?create_sized@BufferedInputStream@Gio@@SA?AV?$RefPtr@VBufferedInputStream@Gio@@@Glib@@AEBV?$RefPtr@VInputStream@Gio@@@4@_K@Z
    ?get_buffer_size@BufferedInputStream@Gio@@QEBA_KXZ
    ?set_buffer_size@BufferedInputStream@Gio@@QEAAX_K@Z
    ?get_available@BufferedInputStream@Gio@@QEBA_KXZ
    ?peek@BufferedInputStream@Gio@@QEBA_KPEAX_K1@Z
    ?peek_buffer@BufferedInputStream@Gio@@QEBAPEBXAEA_K@Z
    ?fill@BufferedInputStream@Gio@@QEAA_J_JAEBV?$RefPtr@VCancellable@Gio@@@Glib@@@Z
    ?fill@BufferedInputStream@Gio@@QEAA_J_J@Z
    ?fill_async@BufferedInputStream@Gio@@QEAAXAEBV?$slot@XAEAV?$RefPtr@VAsyncResult@Gio@@@Glib@@Unil@sigc@@U34@U34@U34@U34@U34@@sigc@@_JAEBV?$RefPtr@VCancellable@Gio@@@Glib@@H@Z
    ?fill_async@BufferedInputStream@Gio@@QEAAXAEBV?$slot@XAEAV?$RefPtr@VAsyncResult@Gio@@@Glib@@Unil@sigc@@U34@U34@U34@U34@U34@@sigc@@_JH@Z
    ?fill_finish@BufferedInputStream@Gio@@QEAA_JAEBV?$RefPtr@VAsyncResult@Gio@@@Glib@@@Z
    ?read_byte@BufferedInputStream@Gio@@QEAAHAEBV?$RefPtr@VCancellable@Gio@@@Glib@@@Z
    ?read_byte@BufferedInputStream@Gio@@QEAAHXZ
    ?property_buffer_size@BufferedInputStream@Gio@@QEAA?AV?$PropertyProxy@I@Glib@@XZ
    ?property_buffer_size@BufferedInputStream@Gio@@QEBA?AV?$PropertyProxy_ReadOnly@I@Glib@@XZ
    ??_DBufferedInputStream@Gio@@QEAAXXZ
    ?wrap@Glib@@YA?AV?$RefPtr@VBufferedInputStream@Gio@@@1@PEAU_GBufferedInputStream@@_N@Z
    ?init@BufferedInputStream_Class@Gio@@QEAAAEBVClass@Glib@@XZ
    ?class_init_function@BufferedInputStream_Class@Gio@@SAXPEAX0@Z
    ?wrap_new@BufferedInputStream_Class@Gio@@SAPEAVObjectBase@Glib@@PEAU_GObject@@@Z
    ??1?$RefPtr@VBufferedInputStream@Gio@@@Glib@@QEAA@XZ
    ??0?$RefPtr@VBufferedInputStream@Gio@@@Glib@@QEAA@PEAVBufferedInputStream@Gio@@@Z
    ??0?$slot1@XAEAV?$RefPtr@VAsyncResult@Gio@@@Glib@@@sigc@@QEAA@AEBV01@@Z
    ??1?$slot1@XAEAV?$RefPtr@VAsyncResult@Gio@@@Glib@@@sigc@@QEAA@XZ
    ??0?$slot@XAEAV?$RefPtr@VAsyncResult@Gio@@@Glib@@Unil@sigc@@U34@U34@U34@U34@U34@@sigc@@QEAA@AEBV01@@Z
    ??C?$RefPtr@VCancellable@Gio@@@Glib@@QEBAPEAVCancellable@Gio@@XZ
    ??B?$RefPtr@VCancellable@Gio@@@Glib@@QEBA_NXZ
    ??$unwrap@VCancellable@Gio@@@Glib@@YAPEAU_GCancellable@@AEBV?$RefPtr@VCancellable@Gio@@@0@@Z
    ??C?$RefPtr@VAsyncResult@Gio@@@Glib@@QEBAPEAVAsyncResult@Gio@@XZ
    ??B?$RefPtr@VAsyncResult@Gio@@@Glib@@QEBA_NXZ
    ??C?$RefPtr@VInputStream@Gio@@@Glib@@QEBAPEAVInputStream@Gio@@XZ
    ??B?$RefPtr@VInputStream@Gio@@@Glib@@QEBA_NXZ
    ??$move@AEAVBufferedInputStream@Gio@@@std@@YA$$QEAVBufferedInputStream@Gio@@AEAV12@@Z
    ??$unwrap@VInputStream@Gio@@@Glib@@YAPEAU_GInputStream@@AEBV?$RefPtr@VInputStream@Gio@@@0@@Z
    ??$unwrap@VAsyncResult@Gio@@@Glib@@YAPEAU_GAsyncResult@@AEBV?$RefPtr@VAsyncResult@Gio@@@0@@Z
    ??0?$PropertyProxy@I@Glib@@QEAA@PEAVObjectBase@1@PEBD@Z
    ??0?$PropertyProxy_ReadOnly@I@Glib@@QEAA@PEBVObjectBase@1@PEBD@Z
    ??_7BufferedInputStream@Gio@@6B@
    ??_8BufferedInputStream@Gio@@7BObject@Glib@@@
    ??_8BufferedInputStream@Gio@@7BObjectBase@Glib@@@
    ??_R0?AVObjectBase@Glib@@@8
    ??_R0?AVBufferedInputStream@Gio@@@8
    ??_C@_0M@NAKBMOH@base_stream@
    ??_C@_0M@JLCCDMKC@buffer_size@
    ??_C@_0M@NNMIJAGI@buffer?9size@
    ??_R4BufferedInputStream@Gio@@6B@
    ??_R3BufferedInputStream@Gio@@8
    ??_R2BufferedInputStream@Gio@@8
    ??_R1A@?0A@EA@BufferedInputStream@Gio@@8
    ??_R1A@?0A@EA@FilterInputStream@Gio@@8
    ??_R0?AVFilterInputStream@Gio@@@8
    ??_R3FilterInputStream@Gio@@8
    ??_R2FilterInputStream@Gio@@8
    ??_R1A@?0A@EA@InputStream@Gio@@8
    ??_R0?AVInputStream@Gio@@@8
    ??_R3InputStream@Gio@@8
    ??_R2InputStream@Gio@@8
    ??_R1A@?0A@EA@Object@Glib@@8
    ??_R0?AVObject@Glib@@@8
    ??_R3Object@Glib@@8
    ??_R2Object@Glib@@8
    ??_R1A@A@7FA@ObjectBase@Glib@@8
    ??_R3ObjectBase@Glib@@8
    ??_R2ObjectBase@Glib@@8
    ??_R1A@?0A@EA@ObjectBase@Glib@@8
    ??_R1A@73FA@trackable@sigc@@8
    ??_R0?AUtrackable@sigc@@@8
    ??_R3trackable@sigc@@8
    ??_R2trackable@sigc@@8
    ??_R1A@?0A@EA@trackable@sigc@@8
    ??_R1A@A@3FA@trackable@sigc@@8
    ?bufferedoutputstream_class_@BufferedOutputStream@Gio@@0VBufferedOutputStream_Class@2@A
    ?__empty_global_delete@@YAXPEAX@Z
    ?__empty_global_delete@@YAXPEAX_K@Z
    ?get_type@Class@Glib@@QEBA_KXZ
    ?gobj@OutputStream@Gio@@QEAAPEAU_GOutputStream@@XZ
    ??0BufferedOutputStream@Gio@@IEAA@AEBVConstructParams@Glib@@@Z
    ??0BufferedOutputStream@Gio@@IEAA@PEAU_GBufferedOutputStream@@@Z
    ??0BufferedOutputStream@Gio@@QEAA@$$QEAV01@@Z
    ??4BufferedOutputStream@Gio@@QEAAAEAV01@$$QEAV01@@Z
    ??1BufferedOutputStream@Gio@@UEAA@XZ
    ?get_type@BufferedOutputStream@Gio@@SA_KXZ
    ?get_base_type@BufferedOutputStream@Gio@@SA_KXZ
    ?gobj@BufferedOutputStream@Gio@@QEAAPEAU_GBufferedOutputStream@@XZ
    ?gobj@BufferedOutputStream@Gio@@QEBAPEBU_GBufferedOutputStream@@XZ
    ?gobj_copy@BufferedOutputStream@Gio@@QEAAPEAU_GBufferedOutputStream@@XZ
    ??0BufferedOutputStream@Gio@@IEAA@AEBV?$RefPtr@VOutputStream@Gio@@@Glib@@@Z
    ??0BufferedOutputStream@Gio@@IEAA@AEBV?$RefPtr@VOutputStream@Gio@@@Glib@@_K@Z
    ?create@BufferedOutputStream@Gio@@SA?AV?$RefPtr@VBufferedOutputStream@Gio@@@Glib@@AEBV?$RefPtr@VOutputStream@Gio@@@4@@Z
    ?create_sized@BufferedOutputStream@Gio@@SA?AV?$RefPtr@VBufferedOutputStream@Gio@@@Glib@@AEBV?$RefPtr@VOutputStream@Gio@@@4@_K@Z
    ?get_buffer_size@BufferedOutputStream@Gio@@QEBA_KXZ
    ?set_buffer_size@BufferedOutputStream@Gio@@QEAAX_K@Z
    ?set_auto_grow@BufferedOutputStream@Gio@@QEAAX_N@Z
    ?get_auto_grow@BufferedOutputStream@Gio@@QEBA_NXZ
    ?property_buffer_size@BufferedOutputStream@Gio@@QEAA?AV?$PropertyProxy@I@Glib@@XZ
    ?property_buffer_size@BufferedOutputStream@Gio@@QEBA?AV?$PropertyProxy_ReadOnly@I@Glib@@XZ
    ?property_auto_grow@BufferedOutputStream@Gio@@QEAA?AV?$PropertyProxy@_N@Glib@@XZ
    ?property_auto_grow@BufferedOutputStream@Gio@@QEBA?AV?$PropertyProxy_ReadOnly@_N@Glib@@XZ
    ??_DBufferedOutputStream@Gio@@QEAAXXZ
    ?wrap@Glib@@YA?AV?$RefPtr@VBufferedOutputStream@Gio@@@1@PEAU_GBufferedOutputStream@@_N@Z
    ?init@BufferedOutputStream_Class@Gio@@QEAAAEBVClass@Glib@@XZ
    ?class_init_function@BufferedOutputStream_Class@Gio@@SAXPEAX0@Z
    ?wrap_new@BufferedOutputStream_Class@Gio@@SAPEAVObjectBase@Glib@@PEAU_GObject@@@Z
    ??1?$RefPtr@VBufferedOutputStream@Gio@@@Glib@@QEAA@XZ
    ??0?$RefPtr@VBufferedOutputStream@Gio@@@Glib@@QEAA@PEAVBufferedOutputStream@Gio@@@Z
    ??C?$RefPtr@VOutputStream@Gio@@@Glib@@QEBAPEAVOutputStream@Gio@@XZ
    ??B?$RefPtr@VOutputStream@Gio@@@Glib@@QEBA_NXZ
    ??$move@AEAVBufferedOutputStream@Gio@@@std@@YA$$QEAVBufferedOutputStream@Gio@@AEAV12@@Z
    ??$unwrap@VOutputStream@Gio@@@Glib@@YAPEAU_GOutputStream@@AEBV?$RefPtr@VOutputStream@Gio@@@0@@Z
    ??0?$PropertyProxy@I@Glib@@QEAA@PEAVObjectBase@1@PEBD@Z
    ??0?$PropertyProxy_ReadOnly@I@Glib@@QEAA@PEBVObjectBase@1@PEBD@Z
    ??0?$PropertyProxy@_N@Glib@@QEAA@PEAVObjectBase@1@PEBD@Z
    ??0?$PropertyProxy_ReadOnly@_N@Glib@@QEAA@PEBVObjectBase@1@PEBD@Z
    ??_7BufferedOutputStream@Gio@@6B@
    ??_8BufferedOutputStream@Gio@@7BObject@Glib@@@
    ??_8BufferedOutputStream@Gio@@7BObjectBase@Glib@@@
    ??_R0?AVObjectBase@Glib@@@8
    ??_R0?AVBufferedOutputStream@Gio@@@8
    ??_C@_0M@NAKBMOH@base_stream@
    ??_C@_0M@JLCCDMKC@buffer_size@
    ??_C@_0M@NNMIJAGI@buffer?9size@
    ??_C@_09LPGDGLLF@auto?9grow@
    ??_R4BufferedOutputStream@Gio@@6B@
    ??_R3BufferedOutputStream@Gio@@8
    ??_R2BufferedOutputStream@Gio@@8
    ??_R1A@?0A@EA@BufferedOutputStream@Gio@@8
    ??_R1A@?0A@EA@FilterOutputStream@Gio@@8
    ??_R0?AVFilterOutputStream@Gio@@@8
    ??_R3FilterOutputStream@Gio@@8
    ??_R2FilterOutputStream@Gio@@8
    ??_R1A@?0A@EA@OutputStream@Gio@@8
    ??_R0?AVOutputStream@Gio@@@8
    ??_R3OutputStream@Gio@@8
    ??_R2OutputStream@Gio@@8
    ??_R1A@?0A@EA@Object@Glib@@8
    ??_R0?AVObject@Glib@@@8
    ??_R3Object@Glib@@8
    ??_R2Object@Glib@@8
    ??_R1A@A@7FA@ObjectBase@Glib@@8
    ??_R3ObjectBase@Glib@@8
    ??_R2ObjectBase@Glib@@8
    ??_R1A@?0A@EA@ObjectBase@Glib@@8
    ??_R1A@73FA@trackable@sigc@@8
    ??_R0?AUtrackable@sigc@@@8
    ??_R3trackable@sigc@@8
    ??_R2trackable@sigc@@8
    ??_R1A@?0A@EA@trackable@sigc@@8
    ??_R1A@A@3FA@trackable@sigc@@8
    ?cancellable_class_@Cancellable@Gio@@0VCancellable_Class@2@A
    ??_C@_09CIAELCJK@cancelled@
    ?__empty_global_delete@@YAXPEAX@Z
    ?__empty_global_delete@@YAXPEAX_K@Z
    ??$function_pointer_cast@P6AXPEAUslot_rep@internal@sigc@@@ZP6APEAXPEAX@Z@internal@sigc@@YAP6AXPEAUslot_rep@01@@ZP6APEAXPEAX@Z@Z
    ?get_type@Class@Glib@@QEBA_KXZ
    ??R?$slot0@X@sigc@@QEBAXXZ
    ??0?$slot0@X@sigc@@QEAA@AEBV01@@Z
    ??1?$slot0@X@sigc@@QEAA@XZ
    ??0?$slot@XUnil@sigc@@U12@U12@U12@U12@U12@U12@@sigc@@QEAA@AEBV01@@Z
    ??1?$slot@XUnil@sigc@@U12@U12@U12@U12@U12@U12@@sigc@@QEAA@XZ
    ??0Cancellable@Gio@@IEAA@AEBVConstructParams@Glib@@@Z
    ??0Cancellable@Gio@@IEAA@PEAU_GCancellable@@@Z
    ??0Cancellable@Gio@@QEAA@$$QEAV01@@Z
    ??4Cancellable@Gio@@QEAAAEAV01@$$QEAV01@@Z
    ??1Cancellable@Gio@@UEAA@XZ
    ?get_type@Cancellable@Gio@@SA_KXZ
    ?get_base_type@Cancellable@Gio@@SA_KXZ
    ?gobj@Cancellable@Gio@@QEAAPEAU_GCancellable@@XZ
    ?gobj@Cancellable@Gio@@QEBAPEBU_GCancellable@@XZ
    ?gobj_copy@Cancellable@Gio@@QEAAPEAU_GCancellable@@XZ
    ??0Cancellable@Gio@@IEAA@XZ
    ?create@Cancellable@Gio@@SA?AV?$RefPtr@VCancellable@Gio@@@Glib@@XZ
    ?is_cancelled@Cancellable@Gio@@QEBA_NXZ
    ?get_fd@Cancellable@Gio@@QEBAHXZ
    ?make_pollfd@Cancellable@Gio@@QEAA_NPEAU_GPollFD@@@Z
    ?release_fd@Cancellable@Gio@@QEAAXXZ
    ?cancel@Cancellable@Gio@@QEAAXXZ
    ?get_current@Cancellable@Gio@@SA?AV?$RefPtr@VCancellable@Gio@@@Glib@@XZ
    ?push_current@Cancellable@Gio@@QEAAXXZ
    ?pop_current@Cancellable@Gio@@QEAAXXZ
    ?reset@Cancellable@Gio@@QEAAXXZ
    ?connect@Cancellable@Gio@@QEAAKAEBV?$slot@XUnil@sigc@@U12@U12@U12@U12@U12@U12@@sigc@@@Z
    ?disconnect@Cancellable@Gio@@QEAAXK@Z
    ?signal_cancelled@Cancellable@Gio@@QEAA?AV?$SignalProxy@X$$V@Glib@@XZ
    ?on_cancelled@Cancellable@Gio@@MEAAXXZ
    ??_DCancellable@Gio@@QEAAXXZ
    ?wrap@Glib@@YA?AV?$RefPtr@VCancellable@Gio@@@1@PEAU_GCancellable@@_N@Z
    ?init@Cancellable_Class@Gio@@QEAAAEBVClass@Glib@@XZ
    ?class_init_function@Cancellable_Class@Gio@@SAXPEAX0@Z
    ?wrap_new@Cancellable_Class@Gio@@SAPEAVObjectBase@Glib@@PEAU_GObject@@@Z
    ?cancelled_callback@Cancellable_Class@Gio@@KAXPEAU_GCancellable@@@Z
    ??1?$RefPtr@VCancellable@Gio@@@Glib@@QEAA@XZ
    ??0?$RefPtr@VCancellable@Gio@@@Glib@@QEAA@PEAVCancellable@Gio@@@Z
    ??0?$RefPtr@VCancellable@Gio@@@Glib@@QEAA@$$QEAV01@@Z
    ??C?$RefPtr@VCancellable@Gio@@@Glib@@QEBAPEAVCancellable@Gio@@XZ
    ??B?$RefPtr@VCancellable@Gio@@@Glib@@QEBA_NXZ
    ??$move@AEAVCancellable@Gio@@@std@@YA$$QEAVCancellable@Gio@@AEAV12@@Z
    ??0?$SignalProxy@X$$V@Glib@@QEAA@PEAVObjectBase@1@PEBUSignalProxyInfo@1@@Z
    ??1?$SignalProxy@X$$V@Glib@@QEAA@XZ
    ??_7Cancellable@Gio@@6B01@@
    ??_7Cancellable@Gio@@6BObject@Glib@@@
    ??_8Cancellable@Gio@@7BObject@Glib@@@
    ??_8Cancellable@Gio@@7BObjectBase@Glib@@@
    ??_R0?AVObjectBase@Glib@@@8
    ??_R0?AVCancellable@Gio@@@8
    ??_R4Cancellable@Gio@@6B01@@
    ??_R3Cancellable@Gio@@8
    ??_R2Cancellable@Gio@@8
    ??_R1A@?0A@EA@Cancellable@Gio@@8
    ??_R17?0A@EA@Object@Glib@@8
    ??_R0?AVObject@Glib@@@8
    ??_R3Object@Glib@@8
    ??_R2Object@Glib@@8
    ??_R1A@?0A@EA@Object@Glib@@8
    ??_R1A@A@7FA@ObjectBase@Glib@@8
    ??_R3ObjectBase@Glib@@8
    ??_R2ObjectBase@Glib@@8
    ??_R1A@?0A@EA@ObjectBase@Glib@@8
    ??_R1A@73FA@trackable@sigc@@8
    ??_R0?AUtrackable@sigc@@@8
    ??_R3trackable@sigc@@8
    ??_R2trackable@sigc@@8
    ??_R1A@?0A@EA@trackable@sigc@@8
    ??_R1A@A@3FA@trackable@sigc@@8
    ??_R1A@77FA@ObjectBase@Glib@@8
    ??_R4Cancellable@Gio@@6BObject@Glib@@@
    ?charsetconverter_class_@CharsetConverter@Gio@@0VCharsetConverter_Class@2@A
    ?__empty_global_delete@@YAXPEAX@Z
    ?__empty_global_delete@@YAXPEAX_K@Z
    ?get_type@Class@Glib@@QEBA_KXZ
    ??0CharsetConverter@Gio@@IEAA@AEBVConstructParams@Glib@@@Z
    ??0CharsetConverter@Gio@@IEAA@PEAU_GCharsetConverter@@@Z
    ??0CharsetConverter@Gio@@QEAA@$$QEAV01@@Z
    ??4CharsetConverter@Gio@@QEAAAEAV01@$$QEAV01@@Z
    ??1CharsetConverter@Gio@@UEAA@XZ
    ?get_type@CharsetConverter@Gio@@SA_KXZ
    ?get_base_type@CharsetConverter@Gio@@SA_KXZ
    ?gobj@CharsetConverter@Gio@@QEAAPEAU_GCharsetConverter@@XZ
    ?gobj@CharsetConverter@Gio@@QEBAPEBU_GCharsetConverter@@XZ
    ?gobj_copy@CharsetConverter@Gio@@QEAAPEAU_GCharsetConverter@@XZ
    ??0CharsetConverter@Gio@@IEAA@AEBVustring@Glib@@0@Z
    ?create@CharsetConverter@Gio@@SA?AV?$RefPtr@VCharsetConverter@Gio@@@Glib@@AEBVustring@4@0@Z
    ?set_use_fallback@CharsetConverter@Gio@@QEAAX_N@Z
    ?get_use_fallback@CharsetConverter@Gio@@QEBA_NXZ
    ?get_num_fallbacks@CharsetConverter@Gio@@QEBAIXZ
    ?property_from_charset@CharsetConverter@Gio@@QEBA?AV?$PropertyProxy_ReadOnly@Vustring@Glib@@@Glib@@XZ
    ?property_to_charset@CharsetConverter@Gio@@QEBA?AV?$PropertyProxy_ReadOnly@Vustring@Glib@@@Glib@@XZ
    ?property_use_fallback@CharsetConverter@Gio@@QEAA?AV?$PropertyProxy@_N@Glib@@XZ
    ?property_use_fallback@CharsetConverter@Gio@@QEBA?AV?$PropertyProxy_ReadOnly@_N@Glib@@XZ
    ??_DCharsetConverter@Gio@@QEAAXXZ
    ?wrap@Glib@@YA?AV?$RefPtr@VCharsetConverter@Gio@@@1@PEAU_GCharsetConverter@@_N@Z
    ?init@CharsetConverter_Class@Gio@@QEAAAEBVClass@Glib@@XZ
    ?class_init_function@CharsetConverter_Class@Gio@@SAXPEAX0@Z
    ?wrap_new@CharsetConverter_Class@Gio@@SAPEAVObjectBase@Glib@@PEAU_GObject@@@Z
    ??1?$RefPtr@VCharsetConverter@Gio@@@Glib@@QEAA@XZ
    ??0?$RefPtr@VCharsetConverter@Gio@@@Glib@@QEAA@PEAVCharsetConverter@Gio@@@Z
    ??$move@AEAVCharsetConverter@Gio@@@std@@YA$$QEAVCharsetConverter@Gio@@AEAV12@@Z
    ??0?$PropertyProxy_ReadOnly@Vustring@Glib@@@Glib@@QEAA@PEBVObjectBase@1@PEBD@Z
    ??0?$PropertyProxy@_N@Glib@@QEAA@PEAVObjectBase@1@PEBD@Z
    ??0?$PropertyProxy_ReadOnly@_N@Glib@@QEAA@PEBVObjectBase@1@PEBD@Z
    ??_7CharsetConverter@Gio@@6BConverter@1@@
    ??_7CharsetConverter@Gio@@6B@
    ??_8CharsetConverter@Gio@@7BObject@Glib@@@
    ??_8CharsetConverter@Gio@@7BInterface@Glib@@@
    ??_8CharsetConverter@Gio@@7BObjectBase@Glib@@@
    ??_C@_0N@NICFFLJO@from?9charset@
    ??_C@_0L@FDJDCFKK@to?9charset@
    ??_R0?AVObjectBase@Glib@@@8
    ??_R0?AVCharsetConverter@Gio@@@8
    ??_C@_0N@DDEMFFBB@use?9fallback@
    ??_R4CharsetConverter@Gio@@6BConverter@1@@
    ??_R3CharsetConverter@Gio@@8
    ??_R2CharsetConverter@Gio@@8
    ??_R1A@?0A@EA@CharsetConverter@Gio@@8
    ??_R1BA@?0A@EA@Object@Glib@@8
    ??_R0?AVObject@Glib@@@8
    ??_R3Object@Glib@@8
    ??_R2Object@Glib@@8
    ??_R1A@?0A@EA@Object@Glib@@8
    ??_R1A@A@7FA@ObjectBase@Glib@@8
    ??_R3ObjectBase@Glib@@8
    ??_R2ObjectBase@Glib@@8
    ??_R1A@?0A@EA@ObjectBase@Glib@@8
    ??_R1A@73FA@trackable@sigc@@8
    ??_R0?AUtrackable@sigc@@@8
    ??_R3trackable@sigc@@8
    ??_R2trackable@sigc@@8
    ??_R1A@?0A@EA@trackable@sigc@@8
    ??_R1A@A@3FA@trackable@sigc@@8
    ??_R1A@BA@7FA@ObjectBase@Glib@@8
    ??_R1A@BA@3FA@trackable@sigc@@8
    ??_R1A@?0A@EA@Converter@Gio@@8
    ??_R0?AVConverter@Gio@@@8
    ??_R3Converter@Gio@@8
    ??_R2Converter@Gio@@8
    ??_R17?0A@EA@Interface@Glib@@8
    ??_R0?AVInterface@Glib@@@8
    ??_R3Interface@Glib@@8
    ??_R2Interface@Glib@@8
    ??_R1A@?0A@EA@Interface@Glib@@8
    ??_R1A@77FA@ObjectBase@Glib@@8
    ??_R4CharsetConverter@Gio@@6B@
    ?__empty_global_delete@@YAXPEAX@Z
    ?__empty_global_delete@@YAXPEAX_K@Z
    ?_Myptr@?$_String_val@U?$_Simple_types@D@std@@@std@@QEBAPEBDXZ
    ?_Large_mode_engaged@?$_String_val@U?$_Simple_types@D@std@@@std@@QEBA_NXZ
    ?c_str@?$basic_string@DU?$char_traits@D@std@@V?$allocator@D@2@@std@@QEBAPEBDXZ
    ?size@?$basic_string@DU?$char_traits@D@std@@V?$allocator@D@2@@std@@QEBA_KXZ
    ?empty@?$basic_string@DU?$char_traits@D@std@@V?$allocator@D@2@@std@@QEBA_NXZ
    ?release_c_type@?$TypeTraits@Vustring@Glib@@@Container_Helpers@Glib@@SAXPEBD@Z
    ?convert_return_gchar_ptr_to_ustring@Glib@@YA?AVustring@1@PEAD@Z
    ??$make_unique_ptr_gfree@D@Glib@@YA?AV?$unique_ptr@$$BY0A@DP6AXPEAX@Z@std@@PEAD@Z
    ??1?$unique_ptr@$$BY0A@DP6AXPEAX@Z@std@@QEAA@XZ
    ?get_deleter@?$unique_ptr@$$BY0A@DP6AXPEAX@Z@std@@QEAAAEAP6AXPEAX@ZXZ
    ?get@?$unique_ptr@$$BY0A@DP6AXPEAX@Z@std@@QEBAPEADXZ
    ?release@?$unique_ptr@$$BY0A@DP6AXPEAX@Z@std@@QEAAPEADXZ
    ?_Get_first@?$_Compressed_pair@P6AXPEAX@ZPEAD$0A@@std@@QEAAAEAP6AXPEAX@ZXZ
    ?gobj@File@Gio@@QEBAPEBU_GFile@@XZ
    ?content_type_equals@Gio@@YA_NAEBVustring@Glib@@0@Z
    ?content_type_is_a@Gio@@YA_NAEBVustring@Glib@@0@Z
    ?content_type_is_unknown@Gio@@YA_NAEBVustring@Glib@@@Z
    ?content_type_get_description@Gio@@YA?AVustring@Glib@@AEBV23@@Z
    ?content_type_get_mime_type@Gio@@YA?AVustring@Glib@@AEBV23@@Z
    ?content_type_get_icon@Gio@@YA?AV?$RefPtr@VIcon@Gio@@@Glib@@AEBVustring@3@@Z
    ?content_type_can_be_executable@Gio@@YA_NAEBVustring@Glib@@@Z
    ?content_type_from_mime_type@Gio@@YA?AVustring@Glib@@AEBV23@@Z
    ?content_type_guess@Gio@@YA?AVustring@Glib@@AEBV?$basic_string@DU?$char_traits@D@std@@V?$allocator@D@2@@std@@PEBE_KAEA_N@Z
    ?content_type_guess@Gio@@YA?AVustring@Glib@@AEBV?$basic_string@DU?$char_traits@D@std@@V?$allocator@D@2@@std@@0AEA_N@Z
    ?content_type_guess_for_tree@Gio@@YA?AV?$ArrayHandle@Vustring@Glib@@U?$TypeTraits@Vustring@Glib@@@Container_Helpers@2@@Glib@@AEBV?$RefPtr@$$CBVFile@Gio@@@3@@Z
    ?content_types_get_registered@Gio@@YA?AV?$ListHandle@Vustring@Glib@@U?$TypeTraits@Vustring@Glib@@@Container_Helpers@2@@Glib@@XZ
    ??1?$RefPtr@VIcon@Gio@@@Glib@@QEAA@XZ
    ??0?$RefPtr@VIcon@Gio@@@Glib@@QEAA@$$QEAV01@@Z
    ??C?$RefPtr@VIcon@Gio@@@Glib@@QEBAPEAVIcon@Gio@@XZ
    ??B?$RefPtr@VIcon@Gio@@@Glib@@QEBA_NXZ
    ?content_type_guess@Gio@@YA?AVustring@Glib@@AEBV?$basic_string@DU?$char_traits@D@std@@V?$allocator@D@2@@std@@AEBV?$basic_string@EU?$char_traits@E@std@@V?$allocator@E@2@@5@AEA_N@Z
    ?_Myptr@?$_String_val@U?$_Simple_types@E@std@@@std@@QEBAPEBEXZ
    ?_Large_mode_engaged@?$_String_val@U?$_Simple_types@E@std@@@std@@QEBA_NXZ
    ?c_str@?$basic_string@EU?$char_traits@E@std@@V?$allocator@E@2@@std@@QEBAPEBEXZ
    ?size@?$basic_string@EU?$char_traits@E@std@@V?$allocator@E@2@@std@@QEBA_KXZ
    ??0?$ArrayHandle@Vustring@Glib@@U?$TypeTraits@Vustring@Glib@@@Container_Helpers@2@@Glib@@QEAA@PEBQEBDW4OwnershipType@1@@Z
    ??1?$ArrayHandle@Vustring@Glib@@U?$TypeTraits@Vustring@Glib@@@Container_Helpers@2@@Glib@@QEAA@XZ
    ??C?$RefPtr@$$CBVFile@Gio@@@Glib@@QEBAPEBVFile@Gio@@XZ
    ??0?$ListHandle@Vustring@Glib@@U?$TypeTraits@Vustring@Glib@@@Container_Helpers@2@@Glib@@QEAA@PEAU_GList@@W4OwnershipType@1@@Z
    ??1?$ListHandle@Vustring@Glib@@U?$TypeTraits@Vustring@Glib@@@Container_Helpers@2@@Glib@@QEAA@XZ
    ??$?0PEADP6AXPEAX@Z$0A@$0A@@?$unique_ptr@$$BY0A@DP6AXPEAX@Z@std@@QEAA@PEAD$$QEAP6AXPEAX@Z@Z
    ??$?0P6AXPEAX@Z$0A@@?$unique_ptr@$$BY0A@DP6AXPEAX@Z@std@@QEAA@$$QEAV01@@Z
    ??$compute_array_size@PEBD@Container_Helpers@Glib@@YA_KPEBQEBD@Z
    ??$move@AEAP6AXPEAX@Z@std@@YA$$QEAP6AXPEAX@ZAEAP6AX0@Z@Z
    ??$?0P6AXPEAX@ZAEAPEAD@?$_Compressed_pair@P6AXPEAX@ZPEAD$0A@@std@@QEAA@U_One_then_variadic_args_t@1@$$QEAP6AXPEAX@ZAEAPEAD@Z
    ??$forward@P6AXPEAX@Z@std@@YA$$QEAP6AXPEAX@ZAEAP6AX0@Z@Z
    ??$?0P6AXPEAX@ZPEAD@?$_Compressed_pair@P6AXPEAX@ZPEAD$0A@@std@@QEAA@U_One_then_variadic_args_t@1@$$QEAP6AXPEAX@Z$$QEAPEAD@Z
    ??$_Unfancy@D@std@@YAPEADPEAD@Z
    ??$_Unfancy@E@std@@YAPEAEPEAE@Z
    ??$forward@AEAPEAD@std@@YAAEAPEADAEAPEAD@Z
    ??$forward@PEAD@std@@YA$$QEAPEADAEAPEAD@Z
    ??$exchange@PEAD$$T@std@@YAPEADAEAPEAD$$QEA$$T@Z
    ?converter_class_@Converter@Gio@@0VConverter_Class@2@A
    ?__empty_global_delete@@YAXPEAX@Z
    ?__empty_global_delete@@YAXPEAX_K@Z
    ?name@type_info@@QEBAPEBDXZ
    ?get_type@Class@Glib@@QEBA_KXZ
    ?value_type@?$Value@W4ConverterResult@Gio@@@Glib@@SA_KXZ
    ?value_type@?$Value@W4ConverterFlags@Gio@@@Glib@@SA_KXZ
    ??0Converter@Gio@@IEAA@XZ
    ??0Converter@Gio@@IEAA@AEBVInterface_Class@Glib@@@Z
    ??0Converter@Gio@@QEAA@PEAU_GConverter@@@Z
    ??0Converter@Gio@@QEAA@$$QEAV01@@Z
    ??4Converter@Gio@@QEAAAEAV01@$$QEAV01@@Z
    ??1Converter@Gio@@UEAA@XZ
    ?add_interface@Converter@Gio@@SAX_K@Z
    ?get_type@Converter@Gio@@SA_KXZ
    ?get_base_type@Converter@Gio@@SA_KXZ
    ?gobj@Converter@Gio@@QEAAPEAU_GConverter@@XZ
    ?convert@Converter@Gio@@QEAA?AW4ConverterResult@2@PEBX_KPEAX1W4ConverterFlags@2@AEA_K4@Z
    ?reset@Converter@Gio@@QEAAXXZ
    ?convert_vfunc@Converter@Gio@@UEAA?AW4ConverterResult@2@PEBX_KPEAX1W4ConverterFlags@2@AEA_K4@Z
    ?reset_vfunc@Converter@Gio@@UEAAXXZ
    ??_DConverter@Gio@@QEAAXXZ
    ?wrap@Glib@@YA?AV?$RefPtr@VConverter@Gio@@@1@PEAU_GConverter@@_N@Z
    ?init@Converter_Class@Gio@@QEAAAEBVInterface_Class@Glib@@XZ
    ?iface_init_function@Converter_Class@Gio@@SAXPEAX0@Z
    ?wrap_new@Converter_Class@Gio@@SAPEAVObjectBase@Glib@@PEAU_GObject@@@Z
    ?convert_vfunc_callback@Converter_Class@Gio@@KA?AW4GConverterResult@@PEAU_GConverter@@PEBX_KPEAX2W4GConverterFlags@@PEA_K5PEAPEAU_GError@@@Z
    ?reset_vfunc_callback@Converter_Class@Gio@@KAXPEAU_GConverter@@@Z
    ??1?$RefPtr@VConverter@Gio@@@Glib@@QEAA@XZ
    ??0?$RefPtr@VConverter@Gio@@@Glib@@QEAA@PEAVConverter@Gio@@@Z
    ??$wrap_auto_interface@VConverter@Gio@@@Glib@@YAPEAVConverter@Gio@@PEAU_GObject@@_N@Z
    ??$move@AEAVConverter@Gio@@@std@@YA$$QEAVConverter@Gio@@AEAV12@@Z
    ??_7Converter@Gio@@6B01@@
    ??_7Converter@Gio@@6BInterface@Glib@@@
    ??_8Converter@Gio@@7BInterface@Glib@@@
    ??_8Converter@Gio@@7BObjectBase@Glib@@@
    ??_C@_0BB@DJDNGIAO@klass?5?$CB?$DN?5nullptr@
    ??_C@_0CK@BMFADCGE@Gio?3?3Converter_Class?3?3iface_ini@
    ??_C@_0BK@HDJICMDI@?4?4?2gio?2giomm?2converter?4cc@
    ??_R0?AVObjectBase@Glib@@@8
    ??_R0?AVConverter@Gio@@@8
    ??_R0?AVError@Glib@@@8
    ??_C@_0FM@MEPOJGMK@Glib?3?3wrap_auto_interface?$CI?$CJ?3?5Th@
    ??_R4Converter@Gio@@6B01@@
    ??_R3Converter@Gio@@8
    ??_R2Converter@Gio@@8
    ??_R1A@?0A@EA@Converter@Gio@@8
    ??_R17?0A@EA@Interface@Glib@@8
    ??_R0?AVInterface@Glib@@@8
    ??_R3Interface@Glib@@8
    ??_R2Interface@Glib@@8
    ??_R1A@?0A@EA@Interface@Glib@@8
    ??_R1A@A@7FA@ObjectBase@Glib@@8
    ??_R3ObjectBase@Glib@@8
    ??_R2ObjectBase@Glib@@8
    ??_R1A@?0A@EA@ObjectBase@Glib@@8
    ??_R1A@73FA@trackable@sigc@@8
    ??_R0?AUtrackable@sigc@@@8
    ??_R3trackable@sigc@@8
    ??_R2trackable@sigc@@8
    ??_R1A@?0A@EA@trackable@sigc@@8
    ??_R1A@A@3FA@trackable@sigc@@8
    ??_R1A@77FA@ObjectBase@Glib@@8
    ??_R4Converter@Gio@@6BInterface@Glib@@@
    ?converterinputstream_class_@ConverterInputStream@Gio@@0VConverterInputStream_Class@2@A
    ?__empty_global_delete@@YAXPEAX@Z
    ?__empty_global_delete@@YAXPEAX_K@Z
    ?get_type@Class@Glib@@QEBA_KXZ
    ?gobj@InputStream@Gio@@QEAAPEAU_GInputStream@@XZ
    ??0ConverterInputStream@Gio@@IEAA@AEBVConstructParams@Glib@@@Z
    ??0ConverterInputStream@Gio@@IEAA@PEAU_GConverterInputStream@@@Z
    ??0ConverterInputStream@Gio@@QEAA@$$QEAV01@@Z
    ??4ConverterInputStream@Gio@@QEAAAEAV01@$$QEAV01@@Z
    ??1ConverterInputStream@Gio@@UEAA@XZ
    ?get_type@ConverterInputStream@Gio@@SA_KXZ
    ?get_base_type@ConverterInputStream@Gio@@SA_KXZ
    ?gobj@ConverterInputStream@Gio@@QEAAPEAU_GConverterInputStream@@XZ
    ?gobj_copy@ConverterInputStream@Gio@@QEAAPEAU_GConverterInputStream@@XZ
    ??0ConverterInputStream@Gio@@IEAA@AEBV?$RefPtr@VInputStream@Gio@@@Glib@@AEBV?$RefPtr@VConverter@Gio@@@3@@Z
    ?create@ConverterInputStream@Gio@@SA?AV?$RefPtr@VConverterInputStream@Gio@@@Glib@@AEBV?$RefPtr@VInputStream@Gio@@@4@AEBV?$RefPtr@VConverter@Gio@@@4@@Z
    ?get_converter@ConverterInputStream@Gio@@QEAA?AV?$RefPtr@VConverter@Gio@@@Glib@@XZ
    ?get_converter@ConverterInputStream@Gio@@QEBA?AV?$RefPtr@$$CBVConverter@Gio@@@Glib@@XZ
    ?property_converter@ConverterInputStream@Gio@@QEBA?AV?$PropertyProxy_ReadOnly@V?$RefPtr@VConverter@Gio@@@Glib@@@Glib@@XZ
    ??_DConverterInputStream@Gio@@QEAAXXZ
    ?wrap@Glib@@YA?AV?$RefPtr@VConverterInputStream@Gio@@@1@PEAU_GConverterInputStream@@_N@Z
    ?init@ConverterInputStream_Class@Gio@@QEAAAEBVClass@Glib@@XZ
    ?class_init_function@ConverterInputStream_Class@Gio@@SAXPEAX0@Z
    ?wrap_new@ConverterInputStream_Class@Gio@@SAPEAVObjectBase@Glib@@PEAU_GObject@@@Z
    ?gobj@Converter@Gio@@QEAAPEAU_GConverter@@XZ
    ??1?$RefPtr@VConverterInputStream@Gio@@@Glib@@QEAA@XZ
    ??0?$RefPtr@VConverterInputStream@Gio@@@Glib@@QEAA@PEAVConverterInputStream@Gio@@@Z
    ??C?$RefPtr@VInputStream@Gio@@@Glib@@QEBAPEAVInputStream@Gio@@XZ
    ??B?$RefPtr@VInputStream@Gio@@@Glib@@QEBA_NXZ
    ??$move@AEAVConverterInputStream@Gio@@@std@@YA$$QEAVConverterInputStream@Gio@@AEAV12@@Z
    ??$unwrap@VInputStream@Gio@@@Glib@@YAPEAU_GInputStream@@AEBV?$RefPtr@VInputStream@Gio@@@0@@Z
    ??1?$RefPtr@VConverter@Gio@@@Glib@@QEAA@XZ
    ??0?$RefPtr@VConverter@Gio@@@Glib@@QEAA@$$QEAV01@@Z
    ??C?$RefPtr@VConverter@Gio@@@Glib@@QEBAPEAVConverter@Gio@@XZ
    ??B?$RefPtr@VConverter@Gio@@@Glib@@QEBA_NXZ
    ?release@?$RefPtr@VConverter@Gio@@@Glib@@QEAAPEAVConverter@Gio@@XZ
    ??$unwrap@VConverter@Gio@@@Glib@@YAPEAU_GConverter@@AEBV?$RefPtr@VConverter@Gio@@@0@@Z
    ??1?$RefPtr@$$CBVConverter@Gio@@@Glib@@QEAA@XZ
    ??$?0VConverter@Gio@@@?$RefPtr@$$CBVConverter@Gio@@@Glib@@QEAA@$$QEAV?$RefPtr@VConverter@Gio@@@1@@Z
    ??0?$PropertyProxy_ReadOnly@V?$RefPtr@VConverter@Gio@@@Glib@@@Glib@@QEAA@PEBVObjectBase@1@PEBD@Z
    ??_7ConverterInputStream@Gio@@6BPollableInputStream@1@@
    ??_7ConverterInputStream@Gio@@6B@
    ??_8ConverterInputStream@Gio@@7BObject@Glib@@@
    ??_8ConverterInputStream@Gio@@7BInterface@Glib@@@
    ??_8ConverterInputStream@Gio@@7BObjectBase@Glib@@@
    ??_R0?AVObjectBase@Glib@@@8
    ??_R0?AVConverterInputStream@Gio@@@8
    ??_C@_09IDMFDJCF@converter@
    ??_C@_0M@NAKBMOH@base_stream@
    ??_R4ConverterInputStream@Gio@@6BPollableInputStream@1@@
    ??_R3ConverterInputStream@Gio@@8
    ??_R2ConverterInputStream@Gio@@8
    ??_R1A@?0A@EA@ConverterInputStream@Gio@@8
    ??_R1BA@?0A@EA@FilterInputStream@Gio@@8
    ??_R0?AVFilterInputStream@Gio@@@8
    ??_R3FilterInputStream@Gio@@8
    ??_R2FilterInputStream@Gio@@8
    ??_R1A@?0A@EA@FilterInputStream@Gio@@8
    ??_R1A@?0A@EA@InputStream@Gio@@8
    ??_R0?AVInputStream@Gio@@@8
    ??_R3InputStream@Gio@@8
    ??_R2InputStream@Gio@@8
    ??_R1A@?0A@EA@Object@Glib@@8
    ??_R0?AVObject@Glib@@@8
    ??_R3Object@Glib@@8
    ??_R2Object@Glib@@8
    ??_R1A@A@7FA@ObjectBase@Glib@@8
    ??_R3ObjectBase@Glib@@8
    ??_R2ObjectBase@Glib@@8
    ??_R1A@?0A@EA@ObjectBase@Glib@@8
    ??_R1A@73FA@trackable@sigc@@8
    ??_R0?AUtrackable@sigc@@@8
    ??_R3trackable@sigc@@8
    ??_R2trackable@sigc@@8
    ??_R1A@?0A@EA@trackable@sigc@@8
    ??_R1A@A@3FA@trackable@sigc@@8
    ??_R1BA@?0A@EA@InputStream@Gio@@8
    ??_R1BA@?0A@EA@Object@Glib@@8
    ??_R1A@BA@7FA@ObjectBase@Glib@@8
    ??_R1A@BA@3FA@trackable@sigc@@8
    ??_R1A@?0A@EA@PollableInputStream@Gio@@8
    ??_R0?AVPollableInputStream@Gio@@@8
    ??_R3PollableInputStream@Gio@@8
    ??_R2PollableInputStream@Gio@@8
    ??_R17?0A@EA@Interface@Glib@@8
    ??_R0?AVInterface@Glib@@@8
    ??_R3Interface@Glib@@8
    ??_R2Interface@Glib@@8
    ??_R1A@?0A@EA@Interface@Glib@@8
    ??_R1A@77FA@ObjectBase@Glib@@8
    ??_R4ConverterInputStream@Gio@@6B@
    ?converteroutputstream_class_@ConverterOutputStream@Gio@@0VConverterOutputStream_Class@2@A
    ?__empty_global_delete@@YAXPEAX@Z
    ?__empty_global_delete@@YAXPEAX_K@Z
    ?get_type@Class@Glib@@QEBA_KXZ
    ?gobj@OutputStream@Gio@@QEAAPEAU_GOutputStream@@XZ
    ??0ConverterOutputStream@Gio@@IEAA@AEBVConstructParams@Glib@@@Z
    ??0ConverterOutputStream@Gio@@IEAA@PEAU_GConverterOutputStream@@@Z
    ??0ConverterOutputStream@Gio@@QEAA@$$QEAV01@@Z
    ??4ConverterOutputStream@Gio@@QEAAAEAV01@$$QEAV01@@Z
    ??1ConverterOutputStream@Gio@@UEAA@XZ
    ?get_type@ConverterOutputStream@Gio@@SA_KXZ
    ?get_base_type@ConverterOutputStream@Gio@@SA_KXZ
    ?gobj@ConverterOutputStream@Gio@@QEAAPEAU_GConverterOutputStream@@XZ
    ?gobj_copy@ConverterOutputStream@Gio@@QEAAPEAU_GConverterOutputStream@@XZ
    ??0ConverterOutputStream@Gio@@IEAA@AEBV?$RefPtr@VOutputStream@Gio@@@Glib@@AEBV?$RefPtr@VConverter@Gio@@@3@@Z
    ?create@ConverterOutputStream@Gio@@SA?AV?$RefPtr@VConverterOutputStream@Gio@@@Glib@@AEBV?$RefPtr@VOutputStream@Gio@@@4@AEBV?$RefPtr@VConverter@Gio@@@4@@Z
    ?get_converter@ConverterOutputStream@Gio@@QEAA?AV?$RefPtr@VConverter@Gio@@@Glib@@XZ
    ?get_converter@ConverterOutputStream@Gio@@QEBA?AV?$RefPtr@$$CBVConverter@Gio@@@Glib@@XZ
    ?property_converter@ConverterOutputStream@Gio@@QEBA?AV?$PropertyProxy_ReadOnly@V?$RefPtr@VConverter@Gio@@@Glib@@@Glib@@XZ
    ??_DConverterOutputStream@Gio@@QEAAXXZ
    ?wrap@Glib@@YA?AV?$RefPtr@VConverterOutputStream@Gio@@@1@PEAU_GConverterOutputStream@@_N@Z
    ?init@ConverterOutputStream_Class@Gio@@QEAAAEBVClass@Glib@@XZ
    ?class_init_function@ConverterOutputStream_Class@Gio@@SAXPEAX0@Z
    ?wrap_new@ConverterOutputStream_Class@Gio@@SAPEAVObjectBase@Glib@@PEAU_GObject@@@Z
    ?gobj@Converter@Gio@@QEAAPEAU_GConverter@@XZ
    ??1?$RefPtr@VConverterOutputStream@Gio@@@Glib@@QEAA@XZ
    ??0?$RefPtr@VConverterOutputStream@Gio@@@Glib@@QEAA@PEAVConverterOutputStream@Gio@@@Z
    ??C?$RefPtr@VOutputStream@Gio@@@Glib@@QEBAPEAVOutputStream@Gio@@XZ
    ??B?$RefPtr@VOutputStream@Gio@@@Glib@@QEBA_NXZ
    ??$move@AEAVConverterOutputStream@Gio@@@std@@YA$$QEAVConverterOutputStream@Gio@@AEAV12@@Z
    ??$unwrap@VOutputStream@Gio@@@Glib@@YAPEAU_GOutputStream@@AEBV?$RefPtr@VOutputStream@Gio@@@0@@Z
    ??1?$RefPtr@VConverter@Gio@@@Glib@@QEAA@XZ
    ??0?$RefPtr@VConverter@Gio@@@Glib@@QEAA@$$QEAV01@@Z
    ??C?$RefPtr@VConverter@Gio@@@Glib@@QEBAPEAVConverter@Gio@@XZ
    ??B?$RefPtr@VConverter@Gio@@@Glib@@QEBA_NXZ
    ?release@?$RefPtr@VConverter@Gio@@@Glib@@QEAAPEAVConverter@Gio@@XZ
    ??$unwrap@VConverter@Gio@@@Glib@@YAPEAU_GConverter@@AEBV?$RefPtr@VConverter@Gio@@@0@@Z
    ??1?$RefPtr@$$CBVConverter@Gio@@@Glib@@QEAA@XZ
    ??$?0VConverter@Gio@@@?$RefPtr@$$CBVConverter@Gio@@@Glib@@QEAA@$$QEAV?$RefPtr@VConverter@Gio@@@1@@Z
    ??0?$PropertyProxy_ReadOnly@V?$RefPtr@VConverter@Gio@@@Glib@@@Glib@@QEAA@PEBVObjectBase@1@PEBD@Z
    ??_7ConverterOutputStream@Gio@@6BPollableOutputStream@1@@
    ??_7ConverterOutputStream@Gio@@6B@
    ??_8ConverterOutputStream@Gio@@7BObject@Glib@@@
    ??_8ConverterOutputStream@Gio@@7BInterface@Glib@@@
    ??_8ConverterOutputStream@Gio@@7BObjectBase@Glib@@@
    ??_R0?AVObjectBase@Glib@@@8
    ??_R0?AVConverterOutputStream@Gio@@@8
    ??_C@_09IDMFDJCF@converter@
    ??_C@_0M@NAKBMOH@base_stream@
    ??_R4ConverterOutputStream@Gio@@6BPollableOutputStream@1@@
    ??_R3ConverterOutputStream@Gio@@8
    ??_R2ConverterOutputStream@Gio@@8
    ??_R1A@?0A@EA@ConverterOutputStream@Gio@@8
    ??_R1BA@?0A@EA@FilterOutputStream@Gio@@8
    ??_R0?AVFilterOutputStream@Gio@@@8
    ??_R3FilterOutputStream@Gio@@8
    ??_R2FilterOutputStream@Gio@@8
    ??_R1A@?0A@EA@FilterOutputStream@Gio@@8
    ??_R1A@?0A@EA@OutputStream@Gio@@8
    ??_R0?AVOutputStream@Gio@@@8
    ??_R3OutputStream@Gio@@8
    ??_R2OutputStream@Gio@@8
    ??_R1A@?0A@EA@Object@Glib@@8
    ??_R0?AVObject@Glib@@@8
    ??_R3Object@Glib@@8
    ??_R2Object@Glib@@8
    ??_R1A@A@7FA@ObjectBase@Glib@@8
    ??_R3ObjectBase@Glib@@8
    ??_R2ObjectBase@Glib@@8
    ??_R1A@?0A@EA@ObjectBase@Glib@@8
    ??_R1A@73FA@trackable@sigc@@8
    ??_R0?AUtrackable@sigc@@@8
    ??_R3trackable@sigc@@8
    ??_R2trackable@sigc@@8
    ??_R1A@?0A@EA@trackable@sigc@@8
    ??_R1A@A@3FA@trackable@sigc@@8
    ??_R1BA@?0A@EA@OutputStream@Gio@@8
    ??_R1BA@?0A@EA@Object@Glib@@8
    ??_R1A@BA@7FA@ObjectBase@Glib@@8
    ??_R1A@BA@3FA@trackable@sigc@@8
    ??_R1A@?0A@EA@PollableOutputStream@Gio@@8
    ??_R0?AVPollableOutputStream@Gio@@@8
    ??_R3PollableOutputStream@Gio@@8
    ??_R2PollableOutputStream@Gio@@8
    ??_R17?0A@EA@Interface@Glib@@8
    ??_R0?AVInterface@Glib@@@8
    ??_R3Interface@Glib@@8
    ??_R2Interface@Glib@@8
    ??_R1A@?0A@EA@Interface@Glib@@8
    ??_R1A@77FA@ObjectBase@Glib@@8
    ??_R4ConverterOutputStream@Gio@@6B@
    ?credentials_class_@Credentials@Gio@@0VCredentials_Class@2@A
    ?__empty_global_delete@@YAXPEAX@Z
    ?__empty_global_delete@@YAXPEAX_K@Z
    ?get_type@Class@Glib@@QEBA_KXZ
    ?convert_return_gchar_ptr_to_ustring@Glib@@YA?AVustring@1@PEAD@Z
    ??$make_unique_ptr_gfree@D@Glib@@YA?AV?$unique_ptr@$$BY0A@DP6AXPEAX@Z@std@@PEAD@Z
    ??1?$unique_ptr@$$BY0A@DP6AXPEAX@Z@std@@QEAA@XZ
    ?get_deleter@?$unique_ptr@$$BY0A@DP6AXPEAX@Z@std@@QEAAAEAP6AXPEAX@ZXZ
    ?get@?$unique_ptr@$$BY0A@DP6AXPEAX@Z@std@@QEBAPEADXZ
    ?release@?$unique_ptr@$$BY0A@DP6AXPEAX@Z@std@@QEAAPEADXZ
    ?_Get_first@?$_Compressed_pair@P6AXPEAX@ZPEAD$0A@@std@@QEAAAEAP6AXPEAX@ZXZ
    ??0Credentials@Gio@@IEAA@AEBVConstructParams@Glib@@@Z
    ??0Credentials@Gio@@IEAA@PEAU_GCredentials@@@Z
    ??0Credentials@Gio@@QEAA@$$QEAV01@@Z
    ??4Credentials@Gio@@QEAAAEAV01@$$QEAV01@@Z
    ??1Credentials@Gio@@UEAA@XZ
    ?get_type@Credentials@Gio@@SA_KXZ
    ?get_base_type@Credentials@Gio@@SA_KXZ
    ?gobj@Credentials@Gio@@QEAAPEAU_GCredentials@@XZ
    ?gobj@Credentials@Gio@@QEBAPEBU_GCredentials@@XZ
    ?gobj_copy@Credentials@Gio@@QEAAPEAU_GCredentials@@XZ
    ??0Credentials@Gio@@IEAA@XZ
    ?create@Credentials@Gio@@SA?AV?$RefPtr@VCredentials@Gio@@@Glib@@XZ
    ?to_string@Credentials@Gio@@QEBA?AVustring@Glib@@XZ
    ?get_native@Credentials@Gio@@QEAAPEAXW4CredentialsType@2@@Z
    ?set_native@Credentials@Gio@@QEAAXW4CredentialsType@2@PEAX@Z
    ?is_same_user@Credentials@Gio@@QEAA_NAEBV?$RefPtr@$$CBVCredentials@Gio@@@Glib@@@Z
    ??_DCredentials@Gio@@QEAAXXZ
    ?wrap@Glib@@YA?AV?$RefPtr@VCredentials@Gio@@@1@PEAU_GCredentials@@_N@Z
    ?init@Credentials_Class@Gio@@QEAAAEBVClass@Glib@@XZ
    ?class_init_function@Credentials_Class@Gio@@SAXPEAX0@Z
    ?wrap_new@Credentials_Class@Gio@@SAPEAVObjectBase@Glib@@PEAU_GObject@@@Z
    ??1?$RefPtr@VCredentials@Gio@@@Glib@@QEAA@XZ
    ??0?$RefPtr@VCredentials@Gio@@@Glib@@QEAA@PEAVCredentials@Gio@@@Z
    ??$move@AEAVCredentials@Gio@@@std@@YA$$QEAVCredentials@Gio@@AEAV12@@Z
    ??$unwrap@VCredentials@Gio@@@Glib@@YAPEBU_GCredentials@@AEBV?$RefPtr@$$CBVCredentials@Gio@@@0@@Z
    ??C?$RefPtr@$$CBVCredentials@Gio@@@Glib@@QEBAPEBVCredentials@Gio@@XZ
    ??B?$RefPtr@$$CBVCredentials@Gio@@@Glib@@QEBA_NXZ
    ??$?0PEADP6AXPEAX@Z$0A@$0A@@?$unique_ptr@$$BY0A@DP6AXPEAX@Z@std@@QEAA@PEAD$$QEAP6AXPEAX@Z@Z
    ??$?0P6AXPEAX@Z$0A@@?$unique_ptr@$$BY0A@DP6AXPEAX@Z@std@@QEAA@$$QEAV01@@Z
    ??$move@AEAP6AXPEAX@Z@std@@YA$$QEAP6AXPEAX@ZAEAP6AX0@Z@Z
    ??$?0P6AXPEAX@ZAEAPEAD@?$_Compressed_pair@P6AXPEAX@ZPEAD$0A@@std@@QEAA@U_One_then_variadic_args_t@1@$$QEAP6AXPEAX@ZAEAPEAD@Z
    ??$forward@P6AXPEAX@Z@std@@YA$$QEAP6AXPEAX@ZAEAP6AX0@Z@Z
    ??$?0P6AXPEAX@ZPEAD@?$_Compressed_pair@P6AXPEAX@ZPEAD$0A@@std@@QEAA@U_One_then_variadic_args_t@1@$$QEAP6AXPEAX@Z$$QEAPEAD@Z
    ??$forward@AEAPEAD@std@@YAAEAPEADAEAPEAD@Z
    ??$forward@PEAD@std@@YA$$QEAPEADAEAPEAD@Z
    ??$exchange@PEAD$$T@std@@YAPEADAEAPEAD$$QEA$$T@Z
    ??_7Credentials@Gio@@6B@
    ??_8Credentials@Gio@@7BObject@Glib@@@
    ??_8Credentials@Gio@@7BObjectBase@Glib@@@
    ??_R0?AVObjectBase@Glib@@@8
    ??_R0?AVCredentials@Gio@@@8
    ??_R4Credentials@Gio@@6B@
    ??_R3Credentials@Gio@@8
    ??_R2Credentials@Gio@@8
    ??_R1A@?0A@EA@Credentials@Gio@@8
    ??_R1A@?0A@EA@Object@Glib@@8
    ??_R0?AVObject@Glib@@@8
    ??_R3Object@Glib@@8
    ??_R2Object@Glib@@8
    ??_R1A@A@7FA@ObjectBase@Glib@@8
    ??_R3ObjectBase@Glib@@8
    ??_R2ObjectBase@Glib@@8
    ??_R1A@?0A@EA@ObjectBase@Glib@@8
    ??_R1A@73FA@trackable@sigc@@8
    ??_R0?AUtrackable@sigc@@@8
    ??_R3trackable@sigc@@8
    ??_R2trackable@sigc@@8
    ??_R1A@?0A@EA@trackable@sigc@@8
    ??_R1A@A@3FA@trackable@sigc@@8
    ?datainputstream_class_@DataInputStream@Gio@@0VDataInputStream_Class@2@A
    ?__empty_global_delete@@YAXPEAX@Z
    ?__empty_global_delete@@YAXPEAX_K@Z
    ??2@YAPEAX_KPEAX@Z
    ??0exception@std@@QEAA@QEBDH@Z
    ??0exception@std@@QEAA@AEBV01@@Z
    ??1exception@std@@UEAA@XZ
    ?what@exception@std@@UEBAPEBDXZ
    ??0bad_alloc@std@@AEAA@QEBD@Z
    ??1bad_alloc@std@@UEAA@XZ
    ??0bad_alloc@std@@QEAA@AEBV01@@Z
    ??0bad_array_new_length@std@@QEAA@XZ
    ??1bad_array_new_length@std@@UEAA@XZ
    ??0bad_array_new_length@std@@QEAA@AEBV01@@Z
    ?copy@?$_Char_traits@DH@std@@SAPEADQEADQEBD_K@Z
    ?move@?$_Char_traits@DH@std@@SAPEADQEADQEBD_K@Z
    ?length@?$_Narrow_char_traits@DH@std@@SA_KQEBD@Z
    ?assign@?$_Narrow_char_traits@DH@std@@SAXAEADAEBD@Z
    ?_Throw_bad_array_new_length@std@@YAXXZ
    ?_Allocate@_Default_allocate_traits@std@@SAPEAX_K@Z
    ?_Adjust_manually_vector_aligned@std@@YAXAEAPEAXAEA_K@Z
    ?_Orphan_all@_Container_base0@std@@QEAAXXZ
    ?_Swap_proxy_and_iterators@_Container_base0@std@@QEAAXAEAU12@@Z
    ?_Alloc_proxy@_Container_base0@std@@QEAAXAEBU_Fake_allocator@2@@Z
    ??0_Fake_proxy_ptr_impl@std@@QEAA@AEBU_Fake_allocator@1@AEBU_Container_base0@1@@Z
    ?_Release@_Fake_proxy_ptr_impl@std@@QEAAXXZ
    ?_Xlen_string@std@@YAXXZ
    ??0?$allocator@D@std@@QEAA@XZ
    ?deallocate@?$allocator@D@std@@QEAAXQEAD_K@Z
    ?allocate@?$allocator@D@std@@QEAAPEAD_K@Z
    ?max_size@?$_Default_allocator_traits@V?$allocator@D@std@@@std@@SA_KAEBV?$allocator@D@2@@Z
    ??0?$_String_val@U?$_Simple_types@D@std@@@std@@QEAA@XZ
    ?_Myptr@?$_String_val@U?$_Simple_types@D@std@@@std@@QEAAPEADXZ
    ?_Myptr@?$_String_val@U?$_Simple_types@D@std@@@std@@QEBAPEBDXZ
    ?_Large_mode_engaged@?$_String_val@U?$_Simple_types@D@std@@@std@@QEBA_NXZ
    ?_Activate_SSO_buffer@?$_String_val@U?$_Simple_types@D@std@@@std@@QEAAXXZ
    ??0_Bxty@?$_String_val@U?$_Simple_types@D@std@@@std@@QEAA@XZ
    ??1_Bxty@?$_String_val@U?$_Simple_types@D@std@@@std@@QEAA@XZ
    ?_Switch_to_buf@_Bxty@?$_String_val@U?$_Simple_types@D@std@@@std@@QEAAXXZ
    ??1?$_String_val@U?$_Simple_types@D@std@@@std@@QEAA@XZ
    ??0?$basic_string@DU?$char_traits@D@std@@V?$allocator@D@2@@std@@QEAA@XZ
    ??0?$basic_string@DU?$char_traits@D@std@@V?$allocator@D@2@@std@@QEAA@QEBD_K@Z
    ??0?$basic_string@DU?$char_traits@D@std@@V?$allocator@D@2@@std@@QEAA@QEBD@Z
    ?_Deallocate_for_capacity@?$basic_string@DU?$char_traits@D@std@@V?$allocator@D@2@@std@@CAXAEAV?$allocator@D@2@QEAD_K@Z
    ?_Construct_empty@?$basic_string@DU?$char_traits@D@std@@V?$allocator@D@2@@std@@AEAAXXZ
    ??0?$basic_string@DU?$char_traits@D@std@@V?$allocator@D@2@@std@@QEAA@$$QEAV01@@Z
    ??4?$basic_string@DU?$char_traits@D@std@@V?$allocator@D@2@@std@@QEAAAEAV01@$$QEAV01@@Z
    ?_Take_contents@?$basic_string@DU?$char_traits@D@std@@V?$allocator@D@2@@std@@AEAAXAEAV12@@Z
    ??1?$basic_string@DU?$char_traits@D@std@@V?$allocator@D@2@@std@@QEAA@XZ
    ??4?$basic_string@DU?$char_traits@D@std@@V?$allocator@D@2@@std@@QEAAAEAV01@QEBD@Z
    ?assign@?$basic_string@DU?$char_traits@D@std@@V?$allocator@D@2@@std@@QEAAAEAV12@QEBD_K@Z
    ?assign@?$basic_string@DU?$char_traits@D@std@@V?$allocator@D@2@@std@@QEAAAEAV12@QEBD@Z
    ?c_str@?$basic_string@DU?$char_traits@D@std@@V?$allocator@D@2@@std@@QEBAPEBDXZ
    ?max_size@?$basic_string@DU?$char_traits@D@std@@V?$allocator@D@2@@std@@QEBA_KXZ
    ?_Calculate_growth@?$basic_string@DU?$char_traits@D@std@@V?$allocator@D@2@@std@@CA_K_K00@Z
    ?_Calculate_growth@?$basic_string@DU?$char_traits@D@std@@V?$allocator@D@2@@std@@AEBA_K_K@Z
    ?_Tidy_deallocate@?$basic_string@DU?$char_traits@D@std@@V?$allocator@D@2@@std@@AEAAXXZ
    ?_Swap_proxy_and_iterators@?$basic_string@DU?$char_traits@D@std@@V?$allocator@D@2@@std@@AEAAXAEAV12@@Z
    ?_Getal@?$basic_string@DU?$char_traits@D@std@@V?$allocator@D@2@@std@@AEAAAEAV?$allocator@D@2@XZ
    ?_Getal@?$basic_string@DU?$char_traits@D@std@@V?$allocator@D@2@@std@@AEBAAEBV?$allocator@D@2@XZ
    ?_Get_first@?$_Compressed_pair@V?$allocator@D@std@@V?$_String_val@U?$_Simple_types@D@std@@@2@$00@std@@QEAAAEAV?$allocator@D@2@XZ
    ?_Get_first@?$_Compressed_pair@V?$allocator@D@std@@V?$_String_val@U?$_Simple_types@D@std@@@2@$00@std@@QEBAAEBV?$allocator@D@2@XZ
    ??1?$_Compressed_pair@V?$allocator@D@std@@V?$_String_val@U?$_Simple_types@D@std@@@2@$00@std@@QEAA@XZ
    ?get_type@Class@Glib@@QEBA_KXZ
    ??$make_unique_ptr_gfree@D@Glib@@YA?AV?$unique_ptr@$$BY0A@DP6AXPEAX@Z@std@@PEAD@Z
    ??1?$unique_ptr@$$BY0A@DP6AXPEAX@Z@std@@QEAA@XZ
    ?get_deleter@?$unique_ptr@$$BY0A@DP6AXPEAX@Z@std@@QEAAAEAP6AXPEAX@ZXZ
    ?get@?$unique_ptr@$$BY0A@DP6AXPEAX@Z@std@@QEBAPEADXZ
    ?release@?$unique_ptr@$$BY0A@DP6AXPEAX@Z@std@@QEAAPEADXZ
    ?_Get_first@?$_Compressed_pair@P6AXPEAX@ZPEAD$0A@@std@@QEAAAEAP6AXPEAX@ZXZ
    ?convert_return_gchar_ptr_to_stdstring@Glib@@YA?AV?$basic_string@DU?$char_traits@D@std@@V?$allocator@D@2@@std@@PEAD@Z
    ?gobj@AsyncResult@Gio@@QEAAPEAU_GAsyncResult@@XZ
    ?gobj@Cancellable@Gio@@QEAAPEAU_GCancellable@@XZ
    ?gobj@InputStream@Gio@@QEAAPEAU_GInputStream@@XZ
    ??0DataInputStream@Gio@@IEAA@AEBVConstructParams@Glib@@@Z
    ??0DataInputStream@Gio@@IEAA@PEAU_GDataInputStream@@@Z
    ??0DataInputStream@Gio@@QEAA@$$QEAV01@@Z
    ??4DataInputStream@Gio@@QEAAAEAV01@$$QEAV01@@Z
    ??1DataInputStream@Gio@@UEAA@XZ
    ?get_type@DataInputStream@Gio@@SA_KXZ
    ?get_base_type@DataInputStream@Gio@@SA_KXZ
    ?gobj@DataInputStream@Gio@@QEAAPEAU_GDataInputStream@@XZ
    ?gobj@DataInputStream@Gio@@QEBAPEBU_GDataInputStream@@XZ
    ?gobj_copy@DataInputStream@Gio@@QEAAPEAU_GDataInputStream@@XZ
    ??0DataInputStream@Gio@@IEAA@AEBV?$RefPtr@VInputStream@Gio@@@Glib@@@Z
    ?create@DataInputStream@Gio@@SA?AV?$RefPtr@VDataInputStream@Gio@@@Glib@@AEBV?$RefPtr@VInputStream@Gio@@@4@@Z
    ?set_byte_order@DataInputStream@Gio@@QEAAXW4DataStreamByteOrder@2@@Z
    ?get_byte_order@DataInputStream@Gio@@QEBA?AW4DataStreamByteOrder@2@XZ
    ?set_newline_type@DataInputStream@Gio@@QEAAXW4DataStreamNewlineType@2@@Z
    ?get_newline_type@DataInputStream@Gio@@QEBA?AW4DataStreamNewlineType@2@XZ
    ?read_byte@DataInputStream@Gio@@QEAAEAEBV?$RefPtr@VCancellable@Gio@@@Glib@@@Z
    ?read_byte@DataInputStream@Gio@@QEAAEXZ
    ?read_int16@DataInputStream@Gio@@QEAAFAEBV?$RefPtr@VCancellable@Gio@@@Glib@@@Z
    ?read_int16@DataInputStream@Gio@@QEAAFXZ
    ?read_uint16@DataInputStream@Gio@@QEAAGAEBV?$RefPtr@VCancellable@Gio@@@Glib@@@Z
    ?read_uint16@DataInputStream@Gio@@QEAAGXZ
    ?read_int32@DataInputStream@Gio@@QEAAHAEBV?$RefPtr@VCancellable@Gio@@@Glib@@@Z
    ?read_int32@DataInputStream@Gio@@QEAAHXZ
    ?read_uint32@DataInputStream@Gio@@QEAAIAEBV?$RefPtr@VCancellable@Gio@@@Glib@@@Z
    ?read_uint32@DataInputStream@Gio@@QEAAIXZ
    ?read_int64@DataInputStream@Gio@@QEAA_JAEBV?$RefPtr@VCancellable@Gio@@@Glib@@@Z
    ?read_int64@DataInputStream@Gio@@QEAA_JXZ
    ?read_uint64@DataInputStream@Gio@@QEAA_KAEBV?$RefPtr@VCancellable@Gio@@@Glib@@@Z
    ?read_uint64@DataInputStream@Gio@@QEAA_KXZ
    ?read_line@DataInputStream@Gio@@QEAA_NAEAV?$basic_string@DU?$char_traits@D@std@@V?$allocator@D@2@@std@@AEBV?$RefPtr@VCancellable@Gio@@@Glib@@@Z
    ?read_line@DataInputStream@Gio@@QEAA_NAEAV?$basic_string@DU?$char_traits@D@std@@V?$allocator@D@2@@std@@@Z
    ?read_line_utf8@DataInputStream@Gio@@QEAAXAEAV?$basic_string@DU?$char_traits@D@std@@V?$allocator@D@2@@std@@AEBV?$RefPtr@VCancellable@Gio@@@Glib@@AEA_K@Z
    ?read_line_utf8@DataInputStream@Gio@@QEAAXAEAV?$basic_string@DU?$char_traits@D@std@@V?$allocator@D@2@@std@@AEBV?$RefPtr@VCancellable@Gio@@@Glib@@@Z
    ?read_line_utf8@DataInputStream@Gio@@QEAAXAEAV?$basic_string@DU?$char_traits@D@std@@V?$allocator@D@2@@std@@AEA_K@Z
    ?read_line_utf8@DataInputStream@Gio@@QEAAXAEAV?$basic_string@DU?$char_traits@D@std@@V?$allocator@D@2@@std@@@Z
    ?read_line_async@DataInputStream@Gio@@QEAAXAEBV?$slot@XAEAV?$RefPtr@VAsyncResult@Gio@@@Glib@@Unil@sigc@@U34@U34@U34@U34@U34@@sigc@@AEBV?$RefPtr@VCancellable@Gio@@@Glib@@H@Z
    ?read_line_finish@DataInputStream@Gio@@QEAA_NAEBV?$RefPtr@VAsyncResult@Gio@@@Glib@@AEAV?$basic_string@DU?$char_traits@D@std@@V?$allocator@D@2@@std@@@Z
    ?read_line_finish_utf8@DataInputStream@Gio@@QEAAXAEBV?$RefPtr@VAsyncResult@Gio@@@Glib@@AEAV?$basic_string@DU?$char_traits@D@std@@V?$allocator@D@2@@std@@AEA_K@Z
    ?read_line_finish_utf8@DataInputStream@Gio@@QEAAXAEBV?$RefPtr@VAsyncResult@Gio@@@Glib@@AEAV?$basic_string@DU?$char_traits@D@std@@V?$allocator@D@2@@std@@@Z
    ?read_until@DataInputStream@Gio@@QEAA_NAEAV?$basic_string@DU?$char_traits@D@std@@V?$allocator@D@2@@std@@AEBV34@AEBV?$RefPtr@VCancellable@Gio@@@Glib@@@Z
    ?read_until@DataInputStream@Gio@@QEAA_NAEAV?$basic_string@DU?$char_traits@D@std@@V?$allocator@D@2@@std@@AEBV34@@Z
    ?read_until_async@DataInputStream@Gio@@QEAAXAEBV?$basic_string@DU?$char_traits@D@std@@V?$allocator@D@2@@std@@AEBV?$slot@XAEAV?$RefPtr@VAsyncResult@Gio@@@Glib@@Unil@sigc@@U34@U34@U34@U34@U34@@sigc@@AEBV?$RefPtr@VCancellable@Gio@@@Glib@@H@Z
    ?read_until_finish@DataInputStream@Gio@@QEAA_NAEBV?$RefPtr@VAsyncResult@Gio@@@Glib@@AEAV?$basic_string@DU?$char_traits@D@std@@V?$allocator@D@2@@std@@@Z
    ?read_upto@DataInputStream@Gio@@QEAA_NAEAV?$basic_string@DU?$char_traits@D@std@@V?$allocator@D@2@@std@@AEBV34@AEBV?$RefPtr@VCancellable@Gio@@@Glib@@@Z
    ?read_upto@DataInputStream@Gio@@QEAA_NAEAV?$basic_string@DU?$char_traits@D@std@@V?$allocator@D@2@@std@@AEBV34@@Z
    ?read_upto_async@DataInputStream@Gio@@QEAAXAEBV?$basic_string@DU?$char_traits@D@std@@V?$allocator@D@2@@std@@AEBV?$slot@XAEAV?$RefPtr@VAsyncResult@Gio@@@Glib@@Unil@sigc@@U34@U34@U34@U34@U34@@sigc@@AEBV?$RefPtr@VCancellable@Gio@@@Glib@@H@Z
    ?read_upto_finish@DataInputStream@Gio@@QEAA_NAEBV?$RefPtr@VAsyncResult@Gio@@@Glib@@AEAV?$basic_string@DU?$char_traits@D@std@@V?$allocator@D@2@@std@@@Z
    ?property_byte_order@DataInputStream@Gio@@QEAA?AV?$PropertyProxy@W4DataStreamByteOrder@Gio@@@Glib@@XZ
    ?property_byte_order@DataInputStream@Gio@@QEBA?AV?$PropertyProxy_ReadOnly@W4DataStreamByteOrder@Gio@@@Glib@@XZ
    ?property_newline_type@DataInputStream@Gio@@QEAA?AV?$PropertyProxy@W4DataStreamNewlineType@Gio@@@Glib@@XZ
    ?property_newline_type@DataInputStream@Gio@@QEBA?AV?$PropertyProxy_ReadOnly@W4DataStreamNewlineType@Gio@@@Glib@@XZ
    ??_DDataInputStream@Gio@@QEAAXXZ
    ?wrap@Glib@@YA?AV?$RefPtr@VDataInputStream@Gio@@@1@PEAU_GDataInputStream@@_N@Z
    ?init@DataInputStream_Class@Gio@@QEAAAEBVClass@Glib@@XZ
    ?class_init_function@DataInputStream_Class@Gio@@SAXPEAX0@Z
    ?wrap_new@DataInputStream_Class@Gio@@SAPEAVObjectBase@Glib@@PEAU_GObject@@@Z
    ??C?$RefPtr@VCancellable@Gio@@@Glib@@QEBAPEAVCancellable@Gio@@XZ
    ??B?$RefPtr@VCancellable@Gio@@@Glib@@QEBA_NXZ
    ??$unwrap@VCancellable@Gio@@@Glib@@YAPEAU_GCancellable@@AEBV?$RefPtr@VCancellable@Gio@@@0@@Z
    ??0?$slot1@XAEAV?$RefPtr@VAsyncResult@Gio@@@Glib@@@sigc@@QEAA@AEBV01@@Z
    ??1?$slot1@XAEAV?$RefPtr@VAsyncResult@Gio@@@Glib@@@sigc@@QEAA@XZ
    ??0?$slot@XAEAV?$RefPtr@VAsyncResult@Gio@@@Glib@@Unil@sigc@@U34@U34@U34@U34@U34@@sigc@@QEAA@AEBV01@@Z
    ??C?$RefPtr@VAsyncResult@Gio@@@Glib@@QEBAPEAVAsyncResult@Gio@@XZ
    ??B?$RefPtr@VAsyncResult@Gio@@@Glib@@QEBA_NXZ
    ??$unwrap@VAsyncResult@Gio@@@Glib@@YAPEAU_GAsyncResult@@AEBV?$RefPtr@VAsyncResult@Gio@@@0@@Z
    ??1?$RefPtr@VDataInputStream@Gio@@@Glib@@QEAA@XZ
    ??0?$RefPtr@VDataInputStream@Gio@@@Glib@@QEAA@PEAVDataInputStream@Gio@@@Z
    ??C?$RefPtr@VInputStream@Gio@@@Glib@@QEBAPEAVInputStream@Gio@@XZ
    ??B?$RefPtr@VInputStream@Gio@@@Glib@@QEBA_NXZ
    ??$move@AEAVDataInputStream@Gio@@@std@@YA$$QEAVDataInputStream@Gio@@AEAV12@@Z
    ??$unwrap@VInputStream@Gio@@@Glib@@YAPEAU_GInputStream@@AEBV?$RefPtr@VInputStream@Gio@@@0@@Z
    ??0?$PropertyProxy@W4DataStreamByteOrder@Gio@@@Glib@@QEAA@PEAVObjectBase@1@PEBD@Z
    ??0?$PropertyProxy_ReadOnly@W4DataStreamByteOrder@Gio@@@Glib@@QEAA@PEBVObjectBase@1@PEBD@Z
    ??0?$PropertyProxy@W4DataStreamNewlineType@Gio@@@Glib@@QEAA@PEAVObjectBase@1@PEBD@Z
    ??0?$PropertyProxy_ReadOnly@W4DataStreamNewlineType@Gio@@@Glib@@QEAA@PEBVObjectBase@1@PEBD@Z
    ??$min@_K@std@@YAAEB_KAEB_K0@Z
    ??$?0PEADP6AXPEAX@Z$0A@$0A@@?$unique_ptr@$$BY0A@DP6AXPEAX@Z@std@@QEAA@PEAD$$QEAP6AXPEAX@Z@Z
    ??$?0P6AXPEAX@Z$0A@@?$unique_ptr@$$BY0A@DP6AXPEAX@Z@std@@QEAA@$$QEAV01@@Z
    ??$_Convert_size@_K_K@std@@YA_K_K@Z
    ??$addressof@V?$basic_string@DU?$char_traits@D@std@@V?$allocator@D@2@@std@@@std@@YAPEAV?$basic_string@DU?$char_traits@D@std@@V?$allocator@D@2@@0@AEAV10@@Z
    ??$_Pocma@V?$allocator@D@std@@@std@@YAXAEAV?$allocator@D@0@0@Z
    ??$move@AEAV?$allocator@D@std@@@std@@YA$$QEAV?$allocator@D@0@AEAV10@@Z
    ??$?0V?$allocator@D@std@@$$V@?$_Compressed_pair@V?$allocator@D@std@@V?$_String_val@U?$_Simple_types@D@std@@@2@$00@std@@QEAA@U_One_then_variadic_args_t@1@$$QEAV?$allocator@D@1@@Z
    ??$?0$$V@?$_Compressed_pair@V?$allocator@D@std@@V?$_String_val@U?$_Simple_types@D@std@@@2@$00@std@@QEAA@U_Zero_then_variadic_args_t@1@@Z
    ??$_Construct@$00PEBD@?$basic_string@DU?$char_traits@D@std@@V?$allocator@D@2@@std@@AEAAXQEBD_K@Z
    ??$move@AEAP6AXPEAX@Z@std@@YA$$QEAP6AXPEAX@ZAEAP6AX0@Z@Z
    ??$?0P6AXPEAX@ZAEAPEAD@?$_Compressed_pair@P6AXPEAX@ZPEAD$0A@@std@@QEAA@U_One_then_variadic_args_t@1@$$QEAP6AXPEAX@ZAEAPEAD@Z
    ??$forward@P6AXPEAX@Z@std@@YA$$QEAP6AXPEAX@ZAEAP6AX0@Z@Z
    ??$?0P6AXPEAX@ZPEAD@?$_Compressed_pair@P6AXPEAX@ZPEAD$0A@@std@@QEAA@U_One_then_variadic_args_t@1@$$QEAP6AXPEAX@Z$$QEAPEAD@Z
    ??$forward@V?$allocator@D@std@@@std@@YA$$QEAV?$allocator@D@0@AEAV10@@Z
    ??$_Allocate_for_capacity@$0A@@?$basic_string@DU?$char_traits@D@std@@V?$allocator@D@2@@std@@CAPEADAEAV?$allocator@D@1@AEA_K@Z
    ??$_Construct_in_place@PEADAEBQEAD@std@@YAXAEAPEADAEBQEAD@Z
    ??$_Unfancy@D@std@@YAPEADPEAD@Z
    ??$addressof@V?$_String_val@U?$_Simple_types@D@std@@@std@@@std@@YAPEAV?$_String_val@U?$_Simple_types@D@std@@@0@AEAV10@@Z
    ??$_Construct_in_place@PEADAEAPEAD@std@@YAXAEAPEAD0@Z
    ??$max@_K@std@@YAAEB_KAEB_K0@Z
    ??$_Deallocate@$0BA@@std@@YAXPEAX_K@Z
    ??$forward@AEAPEAD@std@@YAAEAPEADAEAPEAD@Z
    ??$forward@PEAD@std@@YA$$QEAPEADAEAPEAD@Z
    ??$_Allocate_at_least_helper@V?$allocator@D@std@@@std@@YAPEADAEAV?$allocator@D@0@AEA_K@Z
    ??$addressof@PEAD@std@@YAPEAPEADAEAPEAD@Z
    ??$forward@AEBQEAD@std@@YAAEBQEADAEBQEAD@Z
    ??$exchange@PEAD$$T@std@@YAPEADAEAPEAD$$QEA$$T@Z
    ??$_Allocate@$0BA@U_Default_allocate_traits@std@@@std@@YAPEAX_K@Z
    ??$_Destroy_in_place@PEAD@std@@YAXAEAPEAD@Z
    ??$_Max_limit@_J@std@@YA_JXZ
    ??R<lambda_66f57f934f28d61049862f64df852ff0>@@QEBA@QEAD_KQEBD@Z
    ??$_Reallocate_for@V<lambda_66f57f934f28d61049862f64df852ff0>@@PEBD@?$basic_string@DU?$char_traits@D@std@@V?$allocator@D@2@@std@@AEAAAEAV01@_KV<lambda_66f57f934f28d61049862f64df852ff0>@@PEBD@Z
    ??$_Allocate_manually_vector_aligned@U_Default_allocate_traits@std@@@std@@YAPEAX_K@Z
    ??$_Get_size_of_n@$00@std@@YA_K_K@Z
    ??_7exception@std@@6B@
    ??_C@_0BC@EOODALEL@Unknown?5exception@
    ??_7bad_alloc@std@@6B@
    ??_7bad_array_new_length@std@@6B@
    ??_C@_0BF@KINCDENJ@bad?5array?5new?5length@
    ??_R0?AVexception@std@@@8
    _CT??_R0?AVexception@std@@@8??0exception@std@@QEAA@AEBV01@@Z24
    _TI3?AVbad_array_new_length@std@@
    _CTA3?AVbad_array_new_length@std@@
    ??_R0?AVbad_array_new_length@std@@@8
    _CT??_R0?AVbad_array_new_length@std@@@8??0bad_array_new_length@std@@QEAA@AEBV01@@Z24
    ??_R0?AVbad_alloc@std@@@8
    _CT??_R0?AVbad_alloc@std@@@8??0bad_alloc@std@@QEAA@AEBV01@@Z24
    ??_C@_0BA@JFNIOLAK@string?5too?5long@
    ??_7DataInputStream@Gio@@6B@
    ??_8DataInputStream@Gio@@7BObject@Glib@@@
    ??_8DataInputStream@Gio@@7BObjectBase@Glib@@@
    ??_R0?AVObjectBase@Glib@@@8
    ??_R0?AVDataInputStream@Gio@@@8
    ??_C@_0M@NAKBMOH@base_stream@
    ??_C@_0L@JAFDNHCJ@byte?9order@
    ??_C@_0N@KJKOHJHC@newline?9type@
    ??_R4exception@std@@6B@
    ??_R3exception@std@@8
    ??_R2exception@std@@8
    ??_R1A@?0A@EA@exception@std@@8
    ??_R4bad_array_new_length@std@@6B@
    ??_R3bad_array_new_length@std@@8
    ??_R2bad_array_new_length@std@@8
    ??_R1A@?0A@EA@bad_array_new_length@std@@8
    ??_R1A@?0A@EA@bad_alloc@std@@8
    ??_R3bad_alloc@std@@8
    ??_R2bad_alloc@std@@8
    ??_R4bad_alloc@std@@6B@
    ??_R4DataInputStream@Gio@@6B@
    ??_R3DataInputStream@Gio@@8
    ??_R2DataInputStream@Gio@@8
    ??_R1A@?0A@EA@DataInputStream@Gio@@8
    ??_R1A@?0A@EA@BufferedInputStream@Gio@@8
    ??_R0?AVBufferedInputStream@Gio@@@8
    ??_R3BufferedInputStream@Gio@@8
    ??_R2BufferedInputStream@Gio@@8
    ??_R1A@?0A@EA@FilterInputStream@Gio@@8
    ??_R0?AVFilterInputStream@Gio@@@8
    ??_R3FilterInputStream@Gio@@8
    ??_R2FilterInputStream@Gio@@8
    ??_R1A@?0A@EA@InputStream@Gio@@8
    ??_R0?AVInputStream@Gio@@@8
    ??_R3InputStream@Gio@@8
    ??_R2InputStream@Gio@@8
    ??_R1A@?0A@EA@Object@Glib@@8
    ??_R0?AVObject@Glib@@@8
    ??_R3Object@Glib@@8
    ??_R2Object@Glib@@8
    ??_R1A@A@7FA@ObjectBase@Glib@@8
    ??_R3ObjectBase@Glib@@8
    ??_R2ObjectBase@Glib@@8
    ??_R1A@?0A@EA@ObjectBase@Glib@@8
    ??_R1A@73FA@trackable@sigc@@8
    ??_R0?AUtrackable@sigc@@@8
    ??_R3trackable@sigc@@8
    ??_R2trackable@sigc@@8
    ??_R1A@?0A@EA@trackable@sigc@@8
    ??_R1A@A@3FA@trackable@sigc@@8
    ?dataoutputstream_class_@DataOutputStream@Gio@@0VDataOutputStream_Class@2@A
    ?__empty_global_delete@@YAXPEAX@Z
    ?__empty_global_delete@@YAXPEAX_K@Z
    ?assign@?$_Narrow_char_traits@DH@std@@SAXAEADAEBD@Z
    ?_Adjust_manually_vector_aligned@std@@YAXAEAPEAXAEA_K@Z
    ?_Orphan_all@_Container_base0@std@@QEAAXXZ
    ?deallocate@?$allocator@D@std@@QEAAXQEAD_K@Z
    ?_Myptr@?$_String_val@U?$_Simple_types@D@std@@@std@@QEBAPEBDXZ
    ?_Large_mode_engaged@?$_String_val@U?$_Simple_types@D@std@@@std@@QEBA_NXZ
    ??1_Bxty@?$_String_val@U?$_Simple_types@D@std@@@std@@QEAA@XZ
    ?_Switch_to_buf@_Bxty@?$_String_val@U?$_Simple_types@D@std@@@std@@QEAAXXZ
    ??1?$_String_val@U?$_Simple_types@D@std@@@std@@QEAA@XZ
    ?_Deallocate_for_capacity@?$basic_string@DU?$char_traits@D@std@@V?$allocator@D@2@@std@@CAXAEAV?$allocator@D@2@QEAD_K@Z
    ??1?$basic_string@DU?$char_traits@D@std@@V?$allocator@D@2@@std@@QEAA@XZ
    ?c_str@?$basic_string@DU?$char_traits@D@std@@V?$allocator@D@2@@std@@QEBAPEBDXZ
    ?_Tidy_deallocate@?$basic_string@DU?$char_traits@D@std@@V?$allocator@D@2@@std@@AEAAXXZ
    ?_Getal@?$basic_string@DU?$char_traits@D@std@@V?$allocator@D@2@@std@@AEAAAEAV?$allocator@D@2@XZ
    ?_Get_first@?$_Compressed_pair@V?$allocator@D@std@@V?$_String_val@U?$_Simple_types@D@std@@@2@$00@std@@QEAAAEAV?$allocator@D@2@XZ
    ??1?$_Compressed_pair@V?$allocator@D@std@@V?$_String_val@U?$_Simple_types@D@std@@@2@$00@std@@QEAA@XZ
    ?get_type@Class@Glib@@QEBA_KXZ
    ?gobj@Cancellable@Gio@@QEAAPEAU_GCancellable@@XZ
    ?gobj@OutputStream@Gio@@QEAAPEAU_GOutputStream@@XZ
    ??0DataOutputStream@Gio@@IEAA@AEBVConstructParams@Glib@@@Z
    ??0DataOutputStream@Gio@@IEAA@PEAU_GDataOutputStream@@@Z
    ??0DataOutputStream@Gio@@QEAA@$$QEAV01@@Z
    ??4DataOutputStream@Gio@@QEAAAEAV01@$$QEAV01@@Z
    ??1DataOutputStream@Gio@@UEAA@XZ
    ?get_type@DataOutputStream@Gio@@SA_KXZ
    ?get_base_type@DataOutputStream@Gio@@SA_KXZ
    ?gobj@DataOutputStream@Gio@@QEAAPEAU_GDataOutputStream@@XZ
    ?gobj@DataOutputStream@Gio@@QEBAPEBU_GDataOutputStream@@XZ
    ?gobj_copy@DataOutputStream@Gio@@QEAAPEAU_GDataOutputStream@@XZ
    ??0DataOutputStream@Gio@@IEAA@AEBV?$RefPtr@VOutputStream@Gio@@@Glib@@@Z
    ?create@DataOutputStream@Gio@@SA?AV?$RefPtr@VDataOutputStream@Gio@@@Glib@@AEBV?$RefPtr@VOutputStream@Gio@@@4@@Z
    ?set_byte_order@DataOutputStream@Gio@@QEAAXW4DataStreamByteOrder@2@@Z
    ?get_byte_order@DataOutputStream@Gio@@QEBA?AW4DataStreamByteOrder@2@XZ
    ?put_byte@DataOutputStream@Gio@@QEAA_NEAEBV?$RefPtr@VCancellable@Gio@@@Glib@@@Z
    ?put_byte@DataOutputStream@Gio@@QEAA_NE@Z
    ?put_int16@DataOutputStream@Gio@@QEAA_NFAEBV?$RefPtr@VCancellable@Gio@@@Glib@@@Z
    ?put_int16@DataOutputStream@Gio@@QEAA_NF@Z
    ?put_uint16@DataOutputStream@Gio@@QEAA_NGAEBV?$RefPtr@VCancellable@Gio@@@Glib@@@Z
    ?put_uint16@DataOutputStream@Gio@@QEAA_NG@Z
    ?put_int32@DataOutputStream@Gio@@QEAA_NHAEBV?$RefPtr@VCancellable@Gio@@@Glib@@@Z
    ?put_int32@DataOutputStream@Gio@@QEAA_NH@Z
    ?put_uint32@DataOutputStream@Gio@@QEAA_NIAEBV?$RefPtr@VCancellable@Gio@@@Glib@@@Z
    ?put_uint32@DataOutputStream@Gio@@QEAA_NI@Z
    ?put_int64@DataOutputStream@Gio@@QEAA_N_JAEBV?$RefPtr@VCancellable@Gio@@@Glib@@@Z
    ?put_int64@DataOutputStream@Gio@@QEAA_N_J@Z
    ?put_uint64@DataOutputStream@Gio@@QEAA_N_KAEBV?$RefPtr@VCancellable@Gio@@@Glib@@@Z
    ?put_uint64@DataOutputStream@Gio@@QEAA_N_K@Z
    ?put_string@DataOutputStream@Gio@@QEAA_NV?$basic_string@DU?$char_traits@D@std@@V?$allocator@D@2@@std@@AEBV?$RefPtr@VCancellable@Gio@@@Glib@@@Z
    ?put_string@DataOutputStream@Gio@@QEAA_NV?$basic_string@DU?$char_traits@D@std@@V?$allocator@D@2@@std@@@Z
    ?property_byte_order@DataOutputStream@Gio@@QEAA?AV?$PropertyProxy@W4DataStreamByteOrder@Gio@@@Glib@@XZ
    ?property_byte_order@DataOutputStream@Gio@@QEBA?AV?$PropertyProxy_ReadOnly@W4DataStreamByteOrder@Gio@@@Glib@@XZ
    ??_DDataOutputStream@Gio@@QEAAXXZ
    ?wrap@Glib@@YA?AV?$RefPtr@VDataOutputStream@Gio@@@1@PEAU_GDataOutputStream@@_N@Z
    ?init@DataOutputStream_Class@Gio@@QEAAAEBVClass@Glib@@XZ
    ?class_init_function@DataOutputStream_Class@Gio@@SAXPEAX0@Z
    ?wrap_new@DataOutputStream_Class@Gio@@SAPEAVObjectBase@Glib@@PEAU_GObject@@@Z
    ??1?$RefPtr@VDataOutputStream@Gio@@@Glib@@QEAA@XZ
    ??0?$RefPtr@VDataOutputStream@Gio@@@Glib@@QEAA@PEAVDataOutputStream@Gio@@@Z
    ??C?$RefPtr@VOutputStream@Gio@@@Glib@@QEBAPEAVOutputStream@Gio@@XZ
    ??B?$RefPtr@VOutputStream@Gio@@@Glib@@QEBA_NXZ
    ??$move@AEAVDataOutputStream@Gio@@@std@@YA$$QEAVDataOutputStream@Gio@@AEAV12@@Z
    ??$unwrap@VOutputStream@Gio@@@Glib@@YAPEAU_GOutputStream@@AEBV?$RefPtr@VOutputStream@Gio@@@0@@Z
    ??C?$RefPtr@VCancellable@Gio@@@Glib@@QEBAPEAVCancellable@Gio@@XZ
    ??B?$RefPtr@VCancellable@Gio@@@Glib@@QEBA_NXZ
    ??$unwrap@VCancellable@Gio@@@Glib@@YAPEAU_GCancellable@@AEBV?$RefPtr@VCancellable@Gio@@@0@@Z
    ??0?$PropertyProxy@W4DataStreamByteOrder@Gio@@@Glib@@QEAA@PEAVObjectBase@1@PEBD@Z
    ??0?$PropertyProxy_ReadOnly@W4DataStreamByteOrder@Gio@@@Glib@@QEAA@PEBVObjectBase@1@PEBD@Z
    ??$_Unfancy@D@std@@YAPEADPEAD@Z
    ??$_Deallocate@$0BA@@std@@YAXPEAX_K@Z
    ??$_Destroy_in_place@PEAD@std@@YAXAEAPEAD@Z
    ??_7DataOutputStream@Gio@@6B@
    ??_8DataOutputStream@Gio@@7BObject@Glib@@@
    ??_8DataOutputStream@Gio@@7BObjectBase@Glib@@@
    ??_R0?AVObjectBase@Glib@@@8
    ??_R0?AVDataOutputStream@Gio@@@8
    ??_C@_0M@NAKBMOH@base_stream@
    ??_C@_0L@JAFDNHCJ@byte?9order@
    ??_R4DataOutputStream@Gio@@6B@
    ??_R3DataOutputStream@Gio@@8
    ??_R2DataOutputStream@Gio@@8
    ??_R1A@?0A@EA@DataOutputStream@Gio@@8
    ??_R1A@?0A@EA@BufferedOutputStream@Gio@@8
    ??_R0?AVBufferedOutputStream@Gio@@@8
    ??_R3BufferedOutputStream@Gio@@8
    ??_R2BufferedOutputStream@Gio@@8
    ??_R1A@?0A@EA@FilterOutputStream@Gio@@8
    ??_R0?AVFilterOutputStream@Gio@@@8
    ??_R3FilterOutputStream@Gio@@8
    ??_R2FilterOutputStream@Gio@@8
    ??_R1A@?0A@EA@OutputStream@Gio@@8
    ??_R0?AVOutputStream@Gio@@@8
    ??_R3OutputStream@Gio@@8
    ??_R2OutputStream@Gio@@8
    ??_R1A@?0A@EA@Object@Glib@@8
    ??_R0?AVObject@Glib@@@8
    ??_R3Object@Glib@@8
    ??_R2Object@Glib@@8
    ??_R1A@A@7FA@ObjectBase@Glib@@8
    ??_R3ObjectBase@Glib@@8
    ??_R2ObjectBase@Glib@@8
    ??_R1A@?0A@EA@ObjectBase@Glib@@8
    ??_R1A@73FA@trackable@sigc@@8
    ??_R0?AUtrackable@sigc@@@8
    ??_R3trackable@sigc@@8
    ??_R2trackable@sigc@@8
    ??_R1A@?0A@EA@trackable@sigc@@8
    ??_R1A@A@3FA@trackable@sigc@@8
    ?actiongroup_class_@ActionGroup@DBus@Gio@@0VActionGroup_Class@23@A
    ?__empty_global_delete@@YAXPEAX@Z
    ?__empty_global_delete@@YAXPEAX_K@Z
    ?get_type@Class@Glib@@QEBA_KXZ
    ??0ActionGroup@DBus@Gio@@IEAA@AEBVConstructParams@Glib@@@Z
    ??0ActionGroup@DBus@Gio@@IEAA@PEAU_GDBusActionGroup@@@Z
    ??0ActionGroup@DBus@Gio@@QEAA@$$QEAV012@@Z
    ??4ActionGroup@DBus@Gio@@QEAAAEAV012@$$QEAV012@@Z
    ??1ActionGroup@DBus@Gio@@UEAA@XZ
    ?get_type@ActionGroup@DBus@Gio@@SA_KXZ
    ?get_base_type@ActionGroup@DBus@Gio@@SA_KXZ
    ?gobj@ActionGroup@DBus@Gio@@QEAAPEAU_GDBusActionGroup@@XZ
    ?gobj_copy@ActionGroup@DBus@Gio@@QEAAPEAU_GDBusActionGroup@@XZ
    ??0ActionGroup@DBus@Gio@@IEAA@XZ
    ?get@ActionGroup@DBus@Gio@@SA?AV?$RefPtr@VActionGroup@DBus@Gio@@@Glib@@AEBV?$RefPtr@VConnection@DBus@Gio@@@5@AEBVustring@5@1@Z
    ??_DActionGroup@DBus@Gio@@QEAAXXZ
    ?wrap@Glib@@YA?AV?$RefPtr@VActionGroup@DBus@Gio@@@1@PEAU_GDBusActionGroup@@_N@Z
    ?init@ActionGroup_Class@DBus@Gio@@QEAAAEBVClass@Glib@@XZ
    ?class_init_function@ActionGroup_Class@DBus@Gio@@SAXPEAX0@Z
    ?wrap_new@ActionGroup_Class@DBus@Gio@@SAPEAVObjectBase@Glib@@PEAU_GObject@@@Z
    ?gobj@Connection@DBus@Gio@@QEAAPEAU_GDBusConnection@@XZ
    ??1?$RefPtr@VActionGroup@DBus@Gio@@@Glib@@QEAA@XZ
    ??0?$RefPtr@VActionGroup@DBus@Gio@@@Glib@@QEAA@PEAVActionGroup@DBus@Gio@@@Z
    ??$move@AEAVActionGroup@DBus@Gio@@@std@@YA$$QEAVActionGroup@DBus@Gio@@AEAV123@@Z
    ??C?$RefPtr@VConnection@DBus@Gio@@@Glib@@QEBAPEAVConnection@DBus@Gio@@XZ
    ??B?$RefPtr@VConnection@DBus@Gio@@@Glib@@QEBA_NXZ
    ??$unwrap@VConnection@DBus@Gio@@@Glib@@YAPEAU_GDBusConnection@@AEBV?$RefPtr@VConnection@DBus@Gio@@@0@@Z
    ??_7ActionGroup@DBus@Gio@@6B02@@
    ??_7ActionGroup@DBus@Gio@@6BRemoteActionGroup@2@@
    ??_7ActionGroup@DBus@Gio@@6B@
    ??_8ActionGroup@DBus@Gio@@7BObject@Glib@@@
    ??_8ActionGroup@DBus@Gio@@7BInterface@Glib@@02@@
    ??_8ActionGroup@DBus@Gio@@7BInterface@Glib@@RemoteActionGroup@2@@
    ??_8ActionGroup@DBus@Gio@@7BObjectBase@Glib@@@
    ??_R0?AVObjectBase@Glib@@@8
    ??_R0?AVActionGroup@DBus@Gio@@@8
    ??_R4ActionGroup@DBus@Gio@@6B02@@
    ??_R3ActionGroup@DBus@Gio@@8
    ??_R2ActionGroup@DBus@Gio@@8
    ??_R1A@?0A@EA@ActionGroup@DBus@Gio@@8
    ??_R1CA@?0A@EA@Object@Glib@@8
    ??_R0?AVObject@Glib@@@8
    ??_R3Object@Glib@@8
    ??_R2Object@Glib@@8
    ??_R1A@?0A@EA@Object@Glib@@8
    ??_R1A@A@7FA@ObjectBase@Glib@@8
    ??_R3ObjectBase@Glib@@8
    ??_R2ObjectBase@Glib@@8
    ??_R1A@?0A@EA@ObjectBase@Glib@@8
    ??_R1A@73FA@trackable@sigc@@8
    ??_R0?AUtrackable@sigc@@@8
    ??_R3trackable@sigc@@8
    ??_R2trackable@sigc@@8
    ??_R1A@?0A@EA@trackable@sigc@@8
    ??_R1A@A@3FA@trackable@sigc@@8
    ??_R1A@CA@7FA@ObjectBase@Glib@@8
    ??_R1A@CA@3FA@trackable@sigc@@8
    ??_R1A@?0A@EA@ActionGroup@Gio@@8
    ??_R0?AVActionGroup@Gio@@@8
    ??_R3ActionGroup@Gio@@8
    ??_R2ActionGroup@Gio@@8
    ??_R17?0A@EA@Interface@Glib@@8
    ??_R0?AVInterface@Glib@@@8
    ??_R3Interface@Glib@@8
    ??_R2Interface@Glib@@8
    ??_R1A@?0A@EA@Interface@Glib@@8
    ??_R1A@77FA@ObjectBase@Glib@@8
    ??_R17?0A@EC@Interface@Glib@@8
    ??_R1BA@?0A@EA@RemoteActionGroup@Gio@@8
    ??_R0?AVRemoteActionGroup@Gio@@@8
    ??_R3RemoteActionGroup@Gio@@8
    ??_R2RemoteActionGroup@Gio@@8
    ??_R1A@?0A@EA@RemoteActionGroup@Gio@@8
    ??_R1BI@?0A@EC@Interface@Glib@@8
    ??_R4ActionGroup@DBus@Gio@@6BRemoteActionGroup@2@@
    ??_R4ActionGroup@DBus@Gio@@6B@
    ?__empty_global_delete@@YAXPEAX@Z
    ?__empty_global_delete@@YAXPEAX_K@Z
    ??2@YAPEAX_KPEAX@Z
    ??0exception@std@@QEAA@QEBDH@Z
    ??0exception@std@@QEAA@AEBV01@@Z
    ??1exception@std@@UEAA@XZ
    ?what@exception@std@@UEBAPEBDXZ
    ??0bad_alloc@std@@AEAA@QEBD@Z
    ??1bad_alloc@std@@UEAA@XZ
    ??0bad_alloc@std@@QEAA@AEBV01@@Z
    ??0bad_array_new_length@std@@QEAA@XZ
    ??1bad_array_new_length@std@@UEAA@XZ
    ??0bad_array_new_length@std@@QEAA@AEBV01@@Z
    ?copy@?$_Char_traits@DH@std@@SAPEADQEADQEBD_K@Z
    ?move@?$_Char_traits@DH@std@@SAPEADQEADQEBD_K@Z
    ?length@?$_Narrow_char_traits@DH@std@@SA_KQEBD@Z
    ?assign@?$_Narrow_char_traits@DH@std@@SAXAEADAEBD@Z
    ?_Throw_bad_array_new_length@std@@YAXXZ
    ?_Allocate@_Default_allocate_traits@std@@SAPEAX_K@Z
    ?_Adjust_manually_vector_aligned@std@@YAXAEAPEAXAEA_K@Z
    ?_Orphan_all@_Container_base0@std@@QEAAXXZ
    ?_Swap_proxy_and_iterators@_Container_base0@std@@QEAAXAEAU12@@Z
    ?_Alloc_proxy@_Container_base0@std@@QEAAXAEBU_Fake_allocator@2@@Z
    ??0_Fake_proxy_ptr_impl@std@@QEAA@AEBU_Fake_allocator@1@AEBU_Container_base0@1@@Z
    ?_Release@_Fake_proxy_ptr_impl@std@@QEAAXXZ
    ?_Xlen_string@std@@YAXXZ
    ??0?$allocator@D@std@@QEAA@XZ
    ?deallocate@?$allocator@D@std@@QEAAXQEAD_K@Z
    ?allocate@?$allocator@D@std@@QEAAPEAD_K@Z
    ?max_size@?$_Default_allocator_traits@V?$allocator@D@std@@@std@@SA_KAEBV?$allocator@D@2@@Z
    ??0?$_String_val@U?$_Simple_types@D@std@@@std@@QEAA@XZ
    ?_Myptr@?$_String_val@U?$_Simple_types@D@std@@@std@@QEAAPEADXZ
    ?_Myptr@?$_String_val@U?$_Simple_types@D@std@@@std@@QEBAPEBDXZ
    ?_Large_mode_engaged@?$_String_val@U?$_Simple_types@D@std@@@std@@QEBA_NXZ
    ?_Activate_SSO_buffer@?$_String_val@U?$_Simple_types@D@std@@@std@@QEAAXXZ
    ??0_Bxty@?$_String_val@U?$_Simple_types@D@std@@@std@@QEAA@XZ
    ??1_Bxty@?$_String_val@U?$_Simple_types@D@std@@@std@@QEAA@XZ
    ?_Switch_to_buf@_Bxty@?$_String_val@U?$_Simple_types@D@std@@@std@@QEAAXXZ
    ??1?$_String_val@U?$_Simple_types@D@std@@@std@@QEAA@XZ
    ??0?$basic_string@DU?$char_traits@D@std@@V?$allocator@D@2@@std@@QEAA@QEBD@Z
    ?_Deallocate_for_capacity@?$basic_string@DU?$char_traits@D@std@@V?$allocator@D@2@@std@@CAXAEAV?$allocator@D@2@QEAD_K@Z
    ??0?$basic_string@DU?$char_traits@D@std@@V?$allocator@D@2@@std@@QEAA@$$QEAV01@@Z
    ?_Take_contents@?$basic_string@DU?$char_traits@D@std@@V?$allocator@D@2@@std@@AEAAXAEAV12@@Z
    ??1?$basic_string@DU?$char_traits@D@std@@V?$allocator@D@2@@std@@QEAA@XZ
    ??4?$basic_string@DU?$char_traits@D@std@@V?$allocator@D@2@@std@@QEAAAEAV01@QEBD@Z
    ?assign@?$basic_string@DU?$char_traits@D@std@@V?$allocator@D@2@@std@@QEAAAEAV12@QEBD_K@Z
    ?assign@?$basic_string@DU?$char_traits@D@std@@V?$allocator@D@2@@std@@QEAAAEAV12@QEBD@Z
    ?c_str@?$basic_string@DU?$char_traits@D@std@@V?$allocator@D@2@@std@@QEBAPEBDXZ
    ?max_size@?$basic_string@DU?$char_traits@D@std@@V?$allocator@D@2@@std@@QEBA_KXZ
    ?_Calculate_growth@?$basic_string@DU?$char_traits@D@std@@V?$allocator@D@2@@std@@CA_K_K00@Z
    ?_Calculate_growth@?$basic_string@DU?$char_traits@D@std@@V?$allocator@D@2@@std@@AEBA_K_K@Z
    ?_Tidy_deallocate@?$basic_string@DU?$char_traits@D@std@@V?$allocator@D@2@@std@@AEAAXXZ
    ?_Swap_proxy_and_iterators@?$basic_string@DU?$char_traits@D@std@@V?$allocator@D@2@@std@@AEAAXAEAV12@@Z
    ?_Getal@?$basic_string@DU?$char_traits@D@std@@V?$allocator@D@2@@std@@AEAAAEAV?$allocator@D@2@XZ
    ?_Getal@?$basic_string@DU?$char_traits@D@std@@V?$allocator@D@2@@std@@AEBAAEBV?$allocator@D@2@XZ
    ?_Get_first@?$_Compressed_pair@V?$allocator@D@std@@V?$_String_val@U?$_Simple_types@D@std@@@2@$00@std@@QEAAAEAV?$allocator@D@2@XZ
    ?_Get_first@?$_Compressed_pair@V?$allocator@D@std@@V?$_String_val@U?$_Simple_types@D@std@@@2@$00@std@@QEBAAEBV?$allocator@D@2@XZ
    ??1?$_Compressed_pair@V?$allocator@D@std@@V?$_String_val@U?$_Simple_types@D@std@@@2@$00@std@@QEAA@XZ
    ?gobj@Cancellable@Gio@@QEAAPEAU_GCancellable@@XZ
    ?gobj@AsyncResult@Gio@@QEAAPEAU_GAsyncResult@@XZ
    ?is_address@Address@DBus@Gio@@YA_NAEBV?$basic_string@DU?$char_traits@D@std@@V?$allocator@D@2@@std@@@Z
    ?is_supported@Address@DBus@Gio@@YA_NAEBV?$basic_string@DU?$char_traits@D@std@@V?$allocator@D@2@@std@@@Z
    ?get_stream@Address@DBus@Gio@@YAXAEBV?$basic_string@DU?$char_traits@D@std@@V?$allocator@D@2@@std@@V?$slot@XAEAV?$RefPtr@VAsyncResult@Gio@@@Glib@@Unil@sigc@@U34@U34@U34@U34@U34@@sigc@@AEBV?$RefPtr@VCancellable@Gio@@@Glib@@@Z
    ?get_stream@Address@DBus@Gio@@YAXAEBV?$basic_string@DU?$char_traits@D@std@@V?$allocator@D@2@@std@@V?$slot@XAEAV?$RefPtr@VAsyncResult@Gio@@@Glib@@Unil@sigc@@U34@U34@U34@U34@U34@@sigc@@@Z
    ?get_stream_finish@Address@DBus@Gio@@YA?AV?$RefPtr@VIOStream@Gio@@@Glib@@AEBV?$RefPtr@VAsyncResult@Gio@@@5@AEAV?$basic_string@DU?$char_traits@D@std@@V?$allocator@D@2@@std@@@Z
    ?get_stream_finish@Address@DBus@Gio@@YA?AV?$RefPtr@VIOStream@Gio@@@Glib@@AEBV?$RefPtr@VAsyncResult@Gio@@@5@@Z
    ?get_stream_sync@Address@DBus@Gio@@YA?AV?$RefPtr@VIOStream@Gio@@@Glib@@AEBV?$basic_string@DU?$char_traits@D@std@@V?$allocator@D@2@@std@@AEBV?$RefPtr@VCancellable@Gio@@@5@AEAV67@@Z
    ?get_stream_sync@Address@DBus@Gio@@YA?AV?$RefPtr@VIOStream@Gio@@@Glib@@AEBV?$basic_string@DU?$char_traits@D@std@@V?$allocator@D@2@@std@@AEAV67@@Z
    ?get_stream_sync@Address@DBus@Gio@@YA?AV?$RefPtr@VIOStream@Gio@@@Glib@@AEBV?$basic_string@DU?$char_traits@D@std@@V?$allocator@D@2@@std@@AEBV?$RefPtr@VCancellable@Gio@@@5@@Z
    ?get_stream_sync@Address@DBus@Gio@@YA?AV?$RefPtr@VIOStream@Gio@@@Glib@@AEBV?$basic_string@DU?$char_traits@D@std@@V?$allocator@D@2@@std@@@Z
    ?get_for_bus_sync@Address@DBus@Gio@@YA?AV?$basic_string@DU?$char_traits@D@std@@V?$allocator@D@2@@std@@W4BusType@23@AEBV?$RefPtr@VCancellable@Gio@@@Glib@@@Z
    ?get_for_bus_sync@Address@DBus@Gio@@YA?AV?$basic_string@DU?$char_traits@D@std@@V?$allocator@D@2@@std@@W4BusType@23@@Z
    ??0?$slot1@XAEAV?$RefPtr@VAsyncResult@Gio@@@Glib@@@sigc@@QEAA@AEBV01@@Z
    ??1?$slot1@XAEAV?$RefPtr@VAsyncResult@Gio@@@Glib@@@sigc@@QEAA@XZ
    ??0?$slot@XAEAV?$RefPtr@VAsyncResult@Gio@@@Glib@@Unil@sigc@@U34@U34@U34@U34@U34@@sigc@@QEAA@AEBV01@@Z
    ??1?$slot@XAEAV?$RefPtr@VAsyncResult@Gio@@@Glib@@Unil@sigc@@U34@U34@U34@U34@U34@@sigc@@QEAA@XZ
    ??C?$RefPtr@VCancellable@Gio@@@Glib@@QEBAPEAVCancellable@Gio@@XZ
    ??B?$RefPtr@VCancellable@Gio@@@Glib@@QEBA_NXZ
    ??$unwrap@VCancellable@Gio@@@Glib@@YAPEAU_GCancellable@@AEBV?$RefPtr@VCancellable@Gio@@@0@@Z
    ??C?$RefPtr@VAsyncResult@Gio@@@Glib@@QEBAPEAVAsyncResult@Gio@@XZ
    ??B?$RefPtr@VAsyncResult@Gio@@@Glib@@QEBA_NXZ
    ??1?$RefPtr@VIOStream@Gio@@@Glib@@QEAA@XZ
    ??0?$RefPtr@VIOStream@Gio@@@Glib@@QEAA@$$QEAV01@@Z
    ??$unwrap@VAsyncResult@Gio@@@Glib@@YAPEAU_GAsyncResult@@AEBV?$RefPtr@VAsyncResult@Gio@@@0@@Z
    ??$min@_K@std@@YAAEB_KAEB_K0@Z
    ??$_Convert_size@_K_K@std@@YA_K_K@Z
    ??$move@AEAV?$allocator@D@std@@@std@@YA$$QEAV?$allocator@D@0@AEAV10@@Z
    ??$?0V?$allocator@D@std@@$$V@?$_Compressed_pair@V?$allocator@D@std@@V?$_String_val@U?$_Simple_types@D@std@@@2@$00@std@@QEAA@U_One_then_variadic_args_t@1@$$QEAV?$allocator@D@1@@Z
    ??$?0$$V@?$_Compressed_pair@V?$allocator@D@std@@V?$_String_val@U?$_Simple_types@D@std@@@2@$00@std@@QEAA@U_Zero_then_variadic_args_t@1@@Z
    ??$_Construct@$00PEBD@?$basic_string@DU?$char_traits@D@std@@V?$allocator@D@2@@std@@AEAAXQEBD_K@Z
    ??$forward@V?$allocator@D@std@@@std@@YA$$QEAV?$allocator@D@0@AEAV10@@Z
    ??$_Allocate_for_capacity@$0A@@?$basic_string@DU?$char_traits@D@std@@V?$allocator@D@2@@std@@CAPEADAEAV?$allocator@D@1@AEA_K@Z
    ??$_Construct_in_place@PEADAEBQEAD@std@@YAXAEAPEADAEBQEAD@Z
    ??$_Unfancy@D@std@@YAPEADPEAD@Z
    ??$addressof@V?$_String_val@U?$_Simple_types@D@std@@@std@@@std@@YAPEAV?$_String_val@U?$_Simple_types@D@std@@@0@AEAV10@@Z
    ??$_Construct_in_place@PEADAEAPEAD@std@@YAXAEAPEAD0@Z
    ??$max@_K@std@@YAAEB_KAEB_K0@Z
    ??$_Deallocate@$0BA@@std@@YAXPEAX_K@Z
    ??$forward@AEAPEAD@std@@YAAEAPEADAEAPEAD@Z
    ??$_Allocate_at_least_helper@V?$allocator@D@std@@@std@@YAPEADAEAV?$allocator@D@0@AEA_K@Z
    ??$addressof@PEAD@std@@YAPEAPEADAEAPEAD@Z
    ??$forward@AEBQEAD@std@@YAAEBQEADAEBQEAD@Z
    ??$_Allocate@$0BA@U_Default_allocate_traits@std@@@std@@YAPEAX_K@Z
    ??$_Destroy_in_place@PEAD@std@@YAXAEAPEAD@Z
    ??$_Max_limit@_J@std@@YA_JXZ
    ??R<lambda_66f57f934f28d61049862f64df852ff0>@@QEBA@QEAD_KQEBD@Z
    ??$_Reallocate_for@V<lambda_66f57f934f28d61049862f64df852ff0>@@PEBD@?$basic_string@DU?$char_traits@D@std@@V?$allocator@D@2@@std@@AEAAAEAV01@_KV<lambda_66f57f934f28d61049862f64df852ff0>@@PEBD@Z
    ??$_Allocate_manually_vector_aligned@U_Default_allocate_traits@std@@@std@@YAPEAX_K@Z
    ??$_Get_size_of_n@$00@std@@YA_K_K@Z
    ??_7exception@std@@6B@
    ??_C@_0BC@EOODALEL@Unknown?5exception@
    ??_7bad_alloc@std@@6B@
    ??_7bad_array_new_length@std@@6B@
    ??_C@_0BF@KINCDENJ@bad?5array?5new?5length@
    ??_R0?AVexception@std@@@8
    _CT??_R0?AVexception@std@@@8??0exception@std@@QEAA@AEBV01@@Z24
    _TI3?AVbad_array_new_length@std@@
    _CTA3?AVbad_array_new_length@std@@
    ??_R0?AVbad_array_new_length@std@@@8
    _CT??_R0?AVbad_array_new_length@std@@@8??0bad_array_new_length@std@@QEAA@AEBV01@@Z24
    ??_R0?AVbad_alloc@std@@@8
    _CT??_R0?AVbad_alloc@std@@@8??0bad_alloc@std@@QEAA@AEBV01@@Z24
    ??_C@_0BA@JFNIOLAK@string?5too?5long@
    ??_R4exception@std@@6B@
    ??_R3exception@std@@8
    ??_R2exception@std@@8
    ??_R1A@?0A@EA@exception@std@@8
    ??_R4bad_array_new_length@std@@6B@
    ??_R3bad_array_new_length@std@@8
    ??_R2bad_array_new_length@std@@8
    ??_R1A@?0A@EA@bad_array_new_length@std@@8
    ??_R1A@?0A@EA@bad_alloc@std@@8
    ??_R3bad_alloc@std@@8
    ??_R2bad_alloc@std@@8
    ??_R4bad_alloc@std@@6B@
    ?authobserver_class_@AuthObserver@DBus@Gio@@0VAuthObserver_Class@23@A
    ??_C@_0BN@OPNEHLJA@authorize?9authenticated?9peer@
    ??_C@_0BA@EGCJJEAF@allow_mechanism@
    ?__empty_global_delete@@YAXPEAX@Z
    ?__empty_global_delete@@YAXPEAX_K@Z
    ??2@YAPEAX_KPEAX@Z
    ??0exception@std@@QEAA@QEBDH@Z
    ??0exception@std@@QEAA@AEBV01@@Z
    ??1exception@std@@UEAA@XZ
    ?what@exception@std@@UEBAPEBDXZ
    ??0bad_alloc@std@@AEAA@QEBD@Z
    ??1bad_alloc@std@@UEAA@XZ
    ??0bad_alloc@std@@QEAA@AEBV01@@Z
    ??0bad_array_new_length@std@@QEAA@XZ
    ??1bad_array_new_length@std@@UEAA@XZ
    ??0bad_array_new_length@std@@QEAA@AEBV01@@Z
    ?copy@?$_Char_traits@DH@std@@SAPEADQEADQEBD_K@Z
    ?length@?$_Narrow_char_traits@DH@std@@SA_KQEBD@Z
    ?assign@?$_Narrow_char_traits@DH@std@@SAXAEADAEBD@Z
    ?_Throw_bad_array_new_length@std@@YAXXZ
    ?_Allocate@_Default_allocate_traits@std@@SAPEAX_K@Z
    ?_Adjust_manually_vector_aligned@std@@YAXAEAPEAXAEA_K@Z
    ?_Orphan_all@_Container_base0@std@@QEAAXXZ
    ?_Swap_proxy_and_iterators@_Container_base0@std@@QEAAXAEAU12@@Z
    ?_Alloc_proxy@_Container_base0@std@@QEAAXAEBU_Fake_allocator@2@@Z
    ??0_Fake_proxy_ptr_impl@std@@QEAA@AEBU_Fake_allocator@1@AEBU_Container_base0@1@@Z
    ?_Release@_Fake_proxy_ptr_impl@std@@QEAAXXZ
    ?_Xlen_string@std@@YAXXZ
    ??0?$allocator@D@std@@QEAA@XZ
    ?deallocate@?$allocator@D@std@@QEAAXQEAD_K@Z
    ?allocate@?$allocator@D@std@@QEAAPEAD_K@Z
    ?max_size@?$_Default_allocator_traits@V?$allocator@D@std@@@std@@SA_KAEBV?$allocator@D@2@@Z
    ??0?$_String_val@U?$_Simple_types@D@std@@@std@@QEAA@XZ
    ?_Myptr@?$_String_val@U?$_Simple_types@D@std@@@std@@QEBAPEBDXZ
    ?_Large_mode_engaged@?$_String_val@U?$_Simple_types@D@std@@@std@@QEBA_NXZ
    ?_Activate_SSO_buffer@?$_String_val@U?$_Simple_types@D@std@@@std@@QEAAXXZ
    ??0_Bxty@?$_String_val@U?$_Simple_types@D@std@@@std@@QEAA@XZ
    ??1_Bxty@?$_String_val@U?$_Simple_types@D@std@@@std@@QEAA@XZ
    ?_Switch_to_buf@_Bxty@?$_String_val@U?$_Simple_types@D@std@@@std@@QEAAXXZ
    ??1?$_String_val@U?$_Simple_types@D@std@@@std@@QEAA@XZ
    ??0?$basic_string@DU?$char_traits@D@std@@V?$allocator@D@2@@std@@QEAA@XZ
    ??0?$basic_string@DU?$char_traits@D@std@@V?$allocator@D@2@@std@@QEAA@QEBD@Z
    ?_Deallocate_for_capacity@?$basic_string@DU?$char_traits@D@std@@V?$allocator@D@2@@std@@CAXAEAV?$allocator@D@2@QEAD_K@Z
    ?_Construct_empty@?$basic_string@DU?$char_traits@D@std@@V?$allocator@D@2@@std@@AEAAXXZ
    ??0?$basic_string@DU?$char_traits@D@std@@V?$allocator@D@2@@std@@QEAA@$$QEAV01@@Z
    ?_Take_contents@?$basic_string@DU?$char_traits@D@std@@V?$allocator@D@2@@std@@AEAAXAEAV12@@Z
    ??1?$basic_string@DU?$char_traits@D@std@@V?$allocator@D@2@@std@@QEAA@XZ
    ?c_str@?$basic_string@DU?$char_traits@D@std@@V?$allocator@D@2@@std@@QEBAPEBDXZ
    ?max_size@?$basic_string@DU?$char_traits@D@std@@V?$allocator@D@2@@std@@QEBA_KXZ
    ?_Calculate_growth@?$basic_string@DU?$char_traits@D@std@@V?$allocator@D@2@@std@@CA_K_K00@Z
    ?_Tidy_deallocate@?$basic_string@DU?$char_traits@D@std@@V?$allocator@D@2@@std@@AEAAXXZ
    ?_Swap_proxy_and_iterators@?$basic_string@DU?$char_traits@D@std@@V?$allocator@D@2@@std@@AEAAXAEAV12@@Z
    ?_Getal@?$basic_string@DU?$char_traits@D@std@@V?$allocator@D@2@@std@@AEAAAEAV?$allocator@D@2@XZ
    ?_Getal@?$basic_string@DU?$char_traits@D@std@@V?$allocator@D@2@@std@@AEBAAEBV?$allocator@D@2@XZ
    ?_Get_first@?$_Compressed_pair@V?$allocator@D@std@@V?$_String_val@U?$_Simple_types@D@std@@@2@$00@std@@QEAAAEAV?$allocator@D@2@XZ
    ?_Get_first@?$_Compressed_pair@V?$allocator@D@std@@V?$_String_val@U?$_Simple_types@D@std@@@2@$00@std@@QEBAAEBV?$allocator@D@2@XZ
    ??1?$_Compressed_pair@V?$allocator@D@std@@V?$_String_val@U?$_Simple_types@D@std@@@2@$00@std@@QEAA@XZ
    ?get_type@Class@Glib@@QEBA_KXZ
    ?data_to_slot@SignalProxyBase@Glib@@SAPEAVslot_base@sigc@@PEAX@Z
    ?convert_const_gchar_ptr_to_stdstring@Glib@@YA?AV?$basic_string@DU?$char_traits@D@std@@V?$allocator@D@2@@std@@PEBD@Z
    ?gobj@Credentials@Gio@@QEBAPEBU_GCredentials@@XZ
    ?gobj@IOStream@Gio@@QEBAPEBU_GIOStream@@XZ
    ??0AuthObserver@DBus@Gio@@IEAA@AEBVConstructParams@Glib@@@Z
    ??0AuthObserver@DBus@Gio@@IEAA@PEAU_GDBusAuthObserver@@@Z
    ??0AuthObserver@DBus@Gio@@QEAA@$$QEAV012@@Z
    ??4AuthObserver@DBus@Gio@@QEAAAEAV012@$$QEAV012@@Z
    ??1AuthObserver@DBus@Gio@@UEAA@XZ
    ?get_type@AuthObserver@DBus@Gio@@SA_KXZ
    ?get_base_type@AuthObserver@DBus@Gio@@SA_KXZ
    ?gobj@AuthObserver@DBus@Gio@@QEAAPEAU_GDBusAuthObserver@@XZ
    ?gobj_copy@AuthObserver@DBus@Gio@@QEAAPEAU_GDBusAuthObserver@@XZ
    ??0AuthObserver@DBus@Gio@@IEAA@XZ
    ?create@AuthObserver@DBus@Gio@@SA?AV?$RefPtr@VAuthObserver@DBus@Gio@@@Glib@@XZ
    ?authorize_authenticated_peer@AuthObserver@DBus@Gio@@QEAA_NAEBV?$RefPtr@$$CBVIOStream@Gio@@@Glib@@AEBV?$RefPtr@$$CBVCredentials@Gio@@@5@@Z
    ?allow_mechanism@AuthObserver@DBus@Gio@@QEAA_NAEBV?$basic_string@DU?$char_traits@D@std@@V?$allocator@D@2@@std@@@Z
    ?signal_authorize_authenticated_peer@AuthObserver@DBus@Gio@@QEAA?AV?$SignalProxy@_NAEBV?$RefPtr@$$CBVIOStream@Gio@@@Glib@@AEBV?$RefPtr@$$CBVCredentials@Gio@@@2@@Glib@@XZ
    ?signal_allow_mechanism@AuthObserver@DBus@Gio@@QEAA?AV?$SignalProxy@_NAEBV?$basic_string@DU?$char_traits@D@std@@V?$allocator@D@2@@std@@@Glib@@XZ
    ??_DAuthObserver@DBus@Gio@@QEAAXXZ
    ?wrap@Glib@@YA?AV?$RefPtr@VAuthObserver@DBus@Gio@@@1@PEAU_GDBusAuthObserver@@_N@Z
    ?init@AuthObserver_Class@DBus@Gio@@QEAAAEBVClass@Glib@@XZ
    ?class_init_function@AuthObserver_Class@DBus@Gio@@SAXPEAX0@Z
    ?wrap_new@AuthObserver_Class@DBus@Gio@@SAPEAVObjectBase@Glib@@PEAU_GObject@@@Z
    ??R?$slot2@_NAEBV?$RefPtr@$$CBVIOStream@Gio@@@Glib@@AEBV?$RefPtr@$$CBVCredentials@Gio@@@2@@sigc@@QEBA_NAEBV?$RefPtr@$$CBVIOStream@Gio@@@Glib@@AEBV?$RefPtr@$$CBVCredentials@Gio@@@3@@Z
    ??1?$RefPtr@VIOStream@Gio@@@Glib@@QEAA@XZ
    ?release@?$RefPtr@VIOStream@Gio@@@Glib@@QEAAPEAVIOStream@Gio@@XZ
    ??1?$RefPtr@VCredentials@Gio@@@Glib@@QEAA@XZ
    ?release@?$RefPtr@VCredentials@Gio@@@Glib@@QEAAPEAVCredentials@Gio@@XZ
    ??1?$RefPtr@$$CBVIOStream@Gio@@@Glib@@QEAA@XZ
    ??C?$RefPtr@$$CBVIOStream@Gio@@@Glib@@QEBAPEBVIOStream@Gio@@XZ
    ??B?$RefPtr@$$CBVIOStream@Gio@@@Glib@@QEBA_NXZ
    ??$?0VIOStream@Gio@@@?$RefPtr@$$CBVIOStream@Gio@@@Glib@@QEAA@$$QEAV?$RefPtr@VIOStream@Gio@@@1@@Z
    ??1?$RefPtr@$$CBVCredentials@Gio@@@Glib@@QEAA@XZ
    ??C?$RefPtr@$$CBVCredentials@Gio@@@Glib@@QEBAPEBVCredentials@Gio@@XZ
    ??B?$RefPtr@$$CBVCredentials@Gio@@@Glib@@QEBA_NXZ
    ??$?0VCredentials@Gio@@@?$RefPtr@$$CBVCredentials@Gio@@@Glib@@QEAA@$$QEAV?$RefPtr@VCredentials@Gio@@@1@@Z
    ??R?$slot2@XAEBV?$RefPtr@$$CBVIOStream@Gio@@@Glib@@AEBV?$RefPtr@$$CBVCredentials@Gio@@@2@@sigc@@QEBAXAEBV?$RefPtr@$$CBVIOStream@Gio@@@Glib@@AEBV?$RefPtr@$$CBVCredentials@Gio@@@3@@Z
    ??R?$slot1@_NAEBV?$basic_string@DU?$char_traits@D@std@@V?$allocator@D@2@@std@@@sigc@@QEBA_NAEBV?$basic_string@DU?$char_traits@D@std@@V?$allocator@D@2@@std@@@Z
    ??R?$slot1@XAEBV?$basic_string@DU?$char_traits@D@std@@V?$allocator@D@2@@std@@@sigc@@QEBAXAEBV?$basic_string@DU?$char_traits@D@std@@V?$allocator@D@2@@std@@@Z
    ??1?$RefPtr@VAuthObserver@DBus@Gio@@@Glib@@QEAA@XZ
    ??0?$RefPtr@VAuthObserver@DBus@Gio@@@Glib@@QEAA@PEAVAuthObserver@DBus@Gio@@@Z
    ??$move@AEAVAuthObserver@DBus@Gio@@@std@@YA$$QEAVAuthObserver@DBus@Gio@@AEAV123@@Z
    ??$unwrap@VIOStream@Gio@@@Glib@@YAPEBU_GIOStream@@AEBV?$RefPtr@$$CBVIOStream@Gio@@@0@@Z
    ??$unwrap@VCredentials@Gio@@@Glib@@YAPEBU_GCredentials@@AEBV?$RefPtr@$$CBVCredentials@Gio@@@0@@Z
    ??0?$SignalProxy@_NAEBV?$RefPtr@$$CBVIOStream@Gio@@@Glib@@AEBV?$RefPtr@$$CBVCredentials@Gio@@@2@@Glib@@QEAA@PEAVObjectBase@1@PEBUSignalProxyInfo@1@@Z
    ??1?$SignalProxy@_NAEBV?$RefPtr@$$CBVIOStream@Gio@@@Glib@@AEBV?$RefPtr@$$CBVCredentials@Gio@@@2@@Glib@@QEAA@XZ
    ??0?$SignalProxy@_NAEBV?$basic_string@DU?$char_traits@D@std@@V?$allocator@D@2@@std@@@Glib@@QEAA@PEAVObjectBase@1@PEBUSignalProxyInfo@1@@Z
    ??1?$SignalProxy@_NAEBV?$basic_string@DU?$char_traits@D@std@@V?$allocator@D@2@@std@@@Glib@@QEAA@XZ
    ??$min@_K@std@@YAAEB_KAEB_K0@Z
    ??$function_pointer_cast@P6AXPEAUslot_rep@internal@sigc@@AEBV?$basic_string@DU?$char_traits@D@std@@V?$allocator@D@2@@std@@@ZP6APEAXPEAX@Z@internal@sigc@@YAP6AXPEAUslot_rep@01@AEBV?$basic_string@DU?$char_traits@D@std@@V?$allocator@D@2@@std@@@ZP6APEAXPEAX@Z@Z
    ??$function_pointer_cast@P6A_NPEAUslot_rep@internal@sigc@@AEBV?$basic_string@DU?$char_traits@D@std@@V?$allocator@D@2@@std@@@ZP6APEAXPEAX@Z@internal@sigc@@YAP6A_NPEAUslot_rep@01@AEBV?$basic_string@DU?$char_traits@D@std@@V?$allocator@D@2@@std@@@ZP6APEAXPEAX@Z@Z
    ??$function_pointer_cast@P6AXPEAUslot_rep@internal@sigc@@AEBV?$RefPtr@$$CBVIOStream@Gio@@@Glib@@AEBV?$RefPtr@$$CBVCredentials@Gio@@@5@@ZP6APEAXPEAX@Z@internal@sigc@@YAP6AXPEAUslot_rep@01@AEBV?$RefPtr@$$CBVIOStream@Gio@@@Glib@@AEBV?$RefPtr@$$CBVCredentials@Gio@@@4@@ZP6APEAXPEAX@Z@Z
    ??$function_pointer_cast@P6A_NPEAUslot_rep@internal@sigc@@AEBV?$RefPtr@$$CBVIOStream@Gio@@@Glib@@AEBV?$RefPtr@$$CBVCredentials@Gio@@@5@@ZP6APEAXPEAX@Z@internal@sigc@@YAP6A_NPEAUslot_rep@01@AEBV?$RefPtr@$$CBVIOStream@Gio@@@Glib@@AEBV?$RefPtr@$$CBVCredentials@Gio@@@4@@ZP6APEAXPEAX@Z@Z
    ??$_Convert_size@_K_K@std@@YA_K_K@Z
    ??$move@AEAV?$allocator@D@std@@@std@@YA$$QEAV?$allocator@D@0@AEAV10@@Z
    ??$?0V?$allocator@D@std@@$$V@?$_Compressed_pair@V?$allocator@D@std@@V?$_String_val@U?$_Simple_types@D@std@@@2@$00@std@@QEAA@U_One_then_variadic_args_t@1@$$QEAV?$allocator@D@1@@Z
    ??$?0$$V@?$_Compressed_pair@V?$allocator@D@std@@V?$_String_val@U?$_Simple_types@D@std@@@2@$00@std@@QEAA@U_Zero_then_variadic_args_t@1@@Z
    ??$_Construct@$00PEBD@?$basic_string@DU?$char_traits@D@std@@V?$allocator@D@2@@std@@AEAAXQEBD_K@Z
    ??$forward@V?$allocator@D@std@@@std@@YA$$QEAV?$allocator@D@0@AEAV10@@Z
    ??$_Allocate_for_capacity@$0A@@?$basic_string@DU?$char_traits@D@std@@V?$allocator@D@2@@std@@CAPEADAEAV?$allocator@D@1@AEA_K@Z
    ??$_Construct_in_place@PEADAEBQEAD@std@@YAXAEAPEADAEBQEAD@Z
    ??$_Unfancy@D@std@@YAPEADPEAD@Z
    ??$addressof@V?$_String_val@U?$_Simple_types@D@std@@@std@@@std@@YAPEAV?$_String_val@U?$_Simple_types@D@std@@@0@AEAV10@@Z
    ??$_Construct_in_place@PEADAEAPEAD@std@@YAXAEAPEAD0@Z
    ??$max@_K@std@@YAAEB_KAEB_K0@Z
    ??$_Deallocate@$0BA@@std@@YAXPEAX_K@Z
    ??$forward@AEAPEAD@std@@YAAEAPEADAEAPEAD@Z
    ??$_Allocate_at_least_helper@V?$allocator@D@std@@@std@@YAPEADAEAV?$allocator@D@0@AEA_K@Z
    ??$addressof@PEAD@std@@YAPEAPEADAEAPEAD@Z
    ??$forward@AEBQEAD@std@@YAAEBQEADAEBQEAD@Z
    ??$_Allocate@$0BA@U_Default_allocate_traits@std@@@std@@YAPEAX_K@Z
    ??$_Destroy_in_place@PEAD@std@@YAXAEAPEAD@Z
    ??$_Max_limit@_J@std@@YA_JXZ
    ??$_Allocate_manually_vector_aligned@U_Default_allocate_traits@std@@@std@@YAPEAX_K@Z
    ??$_Get_size_of_n@$00@std@@YA_K_K@Z
    ??_7exception@std@@6B@
    ??_C@_0BC@EOODALEL@Unknown?5exception@
    ??_7bad_alloc@std@@6B@
    ??_7bad_array_new_length@std@@6B@
    ??_C@_0BF@KINCDENJ@bad?5array?5new?5length@
    ??_R0?AVexception@std@@@8
    _CT??_R0?AVexception@std@@@8??0exception@std@@QEAA@AEBV01@@Z24
    _TI3?AVbad_array_new_length@std@@
    _CTA3?AVbad_array_new_length@std@@
    ??_R0?AVbad_array_new_length@std@@@8
    _CT??_R0?AVbad_array_new_length@std@@@8??0bad_array_new_length@std@@QEAA@AEBV01@@Z24
    ??_R0?AVbad_alloc@std@@@8
    _CT??_R0?AVbad_alloc@std@@@8??0bad_alloc@std@@QEAA@AEBV01@@Z24
    ??_C@_0BA@JFNIOLAK@string?5too?5long@
    ??_7AuthObserver@DBus@Gio@@6B@
    ??_8AuthObserver@DBus@Gio@@7BObject@Glib@@@
    ??_8AuthObserver@DBus@Gio@@7BObjectBase@Glib@@@
    ??_R0?AVObjectBase@Glib@@@8
    ??_R0?AVAuthObserver@DBus@Gio@@@8
    ??_R4exception@std@@6B@
    ??_R3exception@std@@8
    ??_R2exception@std@@8
    ??_R1A@?0A@EA@exception@std@@8
    ??_R4bad_array_new_length@std@@6B@
    ??_R3bad_array_new_length@std@@8
    ??_R2bad_array_new_length@std@@8
    ??_R1A@?0A@EA@bad_array_new_length@std@@8
    ??_R1A@?0A@EA@bad_alloc@std@@8
    ??_R3bad_alloc@std@@8
    ??_R2bad_alloc@std@@8
    ??_R4bad_alloc@std@@6B@
    ??_R4AuthObserver@DBus@Gio@@6B@
    ??_R3AuthObserver@DBus@Gio@@8
    ??_R2AuthObserver@DBus@Gio@@8
    ??_R1A@?0A@EA@AuthObserver@DBus@Gio@@8
    ??_R1A@?0A@EA@Object@Glib@@8
    ??_R0?AVObject@Glib@@@8
    ??_R3Object@Glib@@8
    ??_R2Object@Glib@@8
    ??_R1A@A@7FA@ObjectBase@Glib@@8
    ??_R3ObjectBase@Glib@@8
    ??_R2ObjectBase@Glib@@8
    ??_R1A@?0A@EA@ObjectBase@Glib@@8
    ??_R1A@73FA@trackable@sigc@@8
    ??_R0?AUtrackable@sigc@@@8
    ??_R3trackable@sigc@@8
    ??_R2trackable@sigc@@8
    ??_R1A@?0A@EA@trackable@sigc@@8
    ??_R1A@A@3FA@trackable@sigc@@8
    ?connection_class_@Connection@DBus@Gio@@0VConnection_Class@23@A
    ??_C@_06IKJOPBFO@closed@
    ?__empty_global_delete@@YAXPEAX@Z
    ?__empty_global_delete@@YAXPEAX_K@Z
    ??2@YAPEAX_KPEAX@Z
    ??0exception@std@@QEAA@QEBDH@Z
    ??0exception@std@@QEAA@AEBV01@@Z
    ??1exception@std@@UEAA@XZ
    ?what@exception@std@@UEBAPEBDXZ
    ??0bad_alloc@std@@AEAA@QEBD@Z
    ??1bad_alloc@std@@UEAA@XZ
    ??0bad_alloc@std@@QEAA@AEBV01@@Z
    ??0bad_array_new_length@std@@QEAA@XZ
    ??1bad_array_new_length@std@@UEAA@XZ
    ??0bad_array_new_length@std@@QEAA@AEBV01@@Z
    ?copy@?$_Char_traits@DH@std@@SAPEADQEADQEBD_K@Z
    ?length@?$_Narrow_char_traits@DH@std@@SA_KQEBD@Z
    ?assign@?$_Narrow_char_traits@DH@std@@SAXAEADAEBD@Z
    ?_Throw_bad_array_new_length@std@@YAXXZ
    ?_Allocate@_Default_allocate_traits@std@@SAPEAX_K@Z
    ?_Adjust_manually_vector_aligned@std@@YAXAEAPEAXAEA_K@Z
    ?_Orphan_all@_Container_base0@std@@QEAAXXZ
    ?_Swap_proxy_and_iterators@_Container_base0@std@@QEAAXAEAU12@@Z
    ?_Alloc_proxy@_Container_base0@std@@QEAAXAEBU_Fake_allocator@2@@Z
    ??0_Fake_proxy_ptr_impl@std@@QEAA@AEBU_Fake_allocator@1@AEBU_Container_base0@1@@Z
    ?_Release@_Fake_proxy_ptr_impl@std@@QEAAXXZ
    ?_Xlen_string@std@@YAXXZ
    ??0?$allocator@D@std@@QEAA@XZ
    ?deallocate@?$allocator@D@std@@QEAAXQEAD_K@Z
    ?allocate@?$allocator@D@std@@QEAAPEAD_K@Z
    ?max_size@?$_Default_allocator_traits@V?$allocator@D@std@@@std@@SA_KAEBV?$allocator@D@2@@Z
    ??0?$_String_val@U?$_Simple_types@D@std@@@std@@QEAA@XZ
    ?_Myptr@?$_String_val@U?$_Simple_types@D@std@@@std@@QEBAPEBDXZ
    ?_Large_mode_engaged@?$_String_val@U?$_Simple_types@D@std@@@std@@QEBA_NXZ
    ?_Activate_SSO_buffer@?$_String_val@U?$_Simple_types@D@std@@@std@@QEAAXXZ
    ??0_Bxty@?$_String_val@U?$_Simple_types@D@std@@@std@@QEAA@XZ
    ??1_Bxty@?$_String_val@U?$_Simple_types@D@std@@@std@@QEAA@XZ
    ?_Switch_to_buf@_Bxty@?$_String_val@U?$_Simple_types@D@std@@@std@@QEAAXXZ
    ??1?$_String_val@U?$_Simple_types@D@std@@@std@@QEAA@XZ
    ??0?$basic_string@DU?$char_traits@D@std@@V?$allocator@D@2@@std@@QEAA@XZ
    ??0?$basic_string@DU?$char_traits@D@std@@V?$allocator@D@2@@std@@QEAA@QEBD@Z
    ?_Deallocate_for_capacity@?$basic_string@DU?$char_traits@D@std@@V?$allocator@D@2@@std@@CAXAEAV?$allocator@D@2@QEAD_K@Z
    ?_Construct_empty@?$basic_string@DU?$char_traits@D@std@@V?$allocator@D@2@@std@@AEAAXXZ
    ??0?$basic_string@DU?$char_traits@D@std@@V?$allocator@D@2@@std@@QEAA@$$QEAV01@@Z
    ?_Take_contents@?$basic_string@DU?$char_traits@D@std@@V?$allocator@D@2@@std@@AEAAXAEAV12@@Z
    ??1?$basic_string@DU?$char_traits@D@std@@V?$allocator@D@2@@std@@QEAA@XZ
    ?c_str@?$basic_string@DU?$char_traits@D@std@@V?$allocator@D@2@@std@@QEBAPEBDXZ
    ?max_size@?$basic_string@DU?$char_traits@D@std@@V?$allocator@D@2@@std@@QEBA_KXZ
    ?empty@?$basic_string@DU?$char_traits@D@std@@V?$allocator@D@2@@std@@QEBA_NXZ
    ?_Calculate_growth@?$basic_string@DU?$char_traits@D@std@@V?$allocator@D@2@@std@@CA_K_K00@Z
    ?_Tidy_deallocate@?$basic_string@DU?$char_traits@D@std@@V?$allocator@D@2@@std@@AEAAXXZ
    ?_Swap_proxy_and_iterators@?$basic_string@DU?$char_traits@D@std@@V?$allocator@D@2@@std@@AEAAXAEAV12@@Z
    ?_Getal@?$basic_string@DU?$char_traits@D@std@@V?$allocator@D@2@@std@@AEAAAEAV?$allocator@D@2@XZ
    ?_Getal@?$basic_string@DU?$char_traits@D@std@@V?$allocator@D@2@@std@@AEBAAEBV?$allocator@D@2@XZ
    ?_Get_first@?$_Compressed_pair@V?$allocator@D@std@@V?$_String_val@U?$_Simple_types@D@std@@@2@$00@std@@QEAAAEAV?$allocator@D@2@XZ
    ?_Get_first@?$_Compressed_pair@V?$allocator@D@std@@V?$_String_val@U?$_Simple_types@D@std@@@2@$00@std@@QEBAAEBV?$allocator@D@2@XZ
    ??1?$_Compressed_pair@V?$allocator@D@std@@V?$_String_val@U?$_Simple_types@D@std@@@2@$00@std@@QEAA@XZ
    ?gobj@VariantType@Glib@@QEBAPEBU_GVariantType@@XZ
    ?gobj@VariantBase@Glib@@QEBAPEBU_GVariant@@XZ
    ??1VariantContainerBase@Glib@@QEAA@XZ
    ??0VariantContainerBase@Glib@@QEAA@$$QEAV01@@Z
    ?get_type@Class@Glib@@QEBA_KXZ
    ?data_to_slot@SignalProxyBase@Glib@@SAPEAVslot_base@sigc@@PEAX@Z
    ?convert_const_gchar_ptr_to_ustring@Glib@@YA?AVustring@1@PEBD@Z
    ?convert_const_gchar_ptr_to_stdstring@Glib@@YA?AV?$basic_string@DU?$char_traits@D@std@@V?$allocator@D@2@@std@@PEBD@Z
    ?gobj@Cancellable@Gio@@QEAAPEAU_GCancellable@@XZ
    ?gobj@AsyncResult@Gio@@QEAAPEAU_GAsyncResult@@XZ
    ?gobj@IOStream@Gio@@QEAAPEAU_GIOStream@@XZ
    ?gobj@AuthObserver@DBus@Gio@@QEAAPEAU_GDBusAuthObserver@@XZ
    ?gobj@Message@DBus@Gio@@QEAAPEAU_GDBusMessage@@XZ
    ??C?$RefPtr@VInterfaceInfo@DBus@Gio@@@Glib@@QEBAPEAVInterfaceInfo@DBus@Gio@@XZ
    ??B?$RefPtr@VInterfaceInfo@DBus@Gio@@@Glib@@QEBA_NXZ
    ?gobj@InterfaceVTable@DBus@Gio@@QEBAPEBU_GDBusInterfaceVTable@@XZ
    ?gobj@SubtreeVTable@DBus@Gio@@QEBAPEBU_GDBusSubtreeVTable@@XZ
    ?value_type@?$Value@W4BusType@DBus@Gio@@@Glib@@SA_KXZ
    ?value_type@?$Value@W4ConnectionFlags@DBus@Gio@@@Glib@@SA_KXZ
    ??0Connection@DBus@Gio@@IEAA@AEBVConstructParams@Glib@@@Z
    ??0Connection@DBus@Gio@@IEAA@PEAU_GDBusConnection@@@Z
    ??0Connection@DBus@Gio@@QEAA@$$QEAV012@@Z
    ??4Connection@DBus@Gio@@QEAAAEAV012@$$QEAV012@@Z
    ??1Connection@DBus@Gio@@UEAA@XZ
    ?get_type@Connection@DBus@Gio@@SA_KXZ
    ?get_base_type@Connection@DBus@Gio@@SA_KXZ
    ?gobj@Connection@DBus@Gio@@QEAAPEAU_GDBusConnection@@XZ
    ?gobj@Connection@DBus@Gio@@QEBAPEBU_GDBusConnection@@XZ
    ?gobj_copy@Connection@DBus@Gio@@QEAAPEAU_GDBusConnection@@XZ
    ??0Connection@DBus@Gio@@IEAA@AEBV?$RefPtr@VIOStream@Gio@@@Glib@@AEBV?$basic_string@DU?$char_traits@D@std@@V?$allocator@D@2@@std@@AEBV?$RefPtr@VAuthObserver@DBus@Gio@@@4@AEBV?$slot@XAEAV?$RefPtr@VAsyncResult@Gio@@@Glib@@Unil@sigc@@U34@U34@U34@U34@U34@@sigc@@AEBV?$RefPtr@VCancellable@Gio@@@4@W4ConnectionFlags@12@@Z
    ??0Connection@DBus@Gio@@IEAA@AEBV?$RefPtr@VIOStream@Gio@@@Glib@@AEBV?$basic_string@DU?$char_traits@D@std@@V?$allocator@D@2@@std@@AEBV?$slot@XAEAV?$RefPtr@VAsyncResult@Gio@@@Glib@@Unil@sigc@@U34@U34@U34@U34@U34@@sigc@@AEBV?$RefPtr@VCancellable@Gio@@@4@W4ConnectionFlags@12@@Z
    ??0Connection@DBus@Gio@@IEAA@AEBV?$RefPtr@VIOStream@Gio@@@Glib@@AEBV?$basic_string@DU?$char_traits@D@std@@V?$allocator@D@2@@std@@AEBV?$RefPtr@VAuthObserver@DBus@Gio@@@4@AEBV?$slot@XAEAV?$RefPtr@VAsyncResult@Gio@@@Glib@@Unil@sigc@@U34@U34@U34@U34@U34@@sigc@@W4ConnectionFlags@12@@Z
    ??0Connection@DBus@Gio@@IEAA@AEBV?$RefPtr@VIOStream@Gio@@@Glib@@AEBV?$basic_string@DU?$char_traits@D@std@@V?$allocator@D@2@@std@@AEBV?$slot@XAEAV?$RefPtr@VAsyncResult@Gio@@@Glib@@Unil@sigc@@U34@U34@U34@U34@U34@@sigc@@W4ConnectionFlags@12@@Z
    ??0Connection@DBus@Gio@@IEAA@AEBV?$RefPtr@VIOStream@Gio@@@Glib@@AEBV?$basic_string@DU?$char_traits@D@std@@V?$allocator@D@2@@std@@AEBV?$RefPtr@VAuthObserver@DBus@Gio@@@4@AEBV?$RefPtr@VCancellable@Gio@@@4@W4ConnectionFlags@12@@Z
    ??0Connection@DBus@Gio@@IEAA@AEBV?$RefPtr@VIOStream@Gio@@@Glib@@AEBV?$basic_string@DU?$char_traits@D@std@@V?$allocator@D@2@@std@@AEBV?$RefPtr@VCancellable@Gio@@@4@W4ConnectionFlags@12@@Z
    ??0Connection@DBus@Gio@@IEAA@AEBV?$RefPtr@VIOStream@Gio@@@Glib@@AEBV?$basic_string@DU?$char_traits@D@std@@V?$allocator@D@2@@std@@AEBV?$RefPtr@VAuthObserver@DBus@Gio@@@4@W4ConnectionFlags@12@@Z
    ??0Connection@DBus@Gio@@IEAA@AEBV?$RefPtr@VIOStream@Gio@@@Glib@@AEBV?$basic_string@DU?$char_traits@D@std@@V?$allocator@D@2@@std@@W4ConnectionFlags@12@@Z
    ??0Connection@DBus@Gio@@IEAA@AEBV?$basic_string@DU?$char_traits@D@std@@V?$allocator@D@2@@std@@AEBV?$RefPtr@VAuthObserver@DBus@Gio@@@Glib@@AEBV?$slot@XAEAV?$RefPtr@VAsyncResult@Gio@@@Glib@@Unil@sigc@@U34@U34@U34@U34@U34@@sigc@@AEBV?$RefPtr@VCancellable@Gio@@@6@W4ConnectionFlags@12@@Z
    ??0Connection@DBus@Gio@@IEAA@AEBV?$basic_string@DU?$char_traits@D@std@@V?$allocator@D@2@@std@@AEBV?$slot@XAEAV?$RefPtr@VAsyncResult@Gio@@@Glib@@Unil@sigc@@U34@U34@U34@U34@U34@@sigc@@AEBV?$RefPtr@VCancellable@Gio@@@Glib@@W4ConnectionFlags@12@@Z
    ??0Connection@DBus@Gio@@IEAA@AEBV?$basic_string@DU?$char_traits@D@std@@V?$allocator@D@2@@std@@AEBV?$RefPtr@VAuthObserver@DBus@Gio@@@Glib@@AEBV?$slot@XAEAV?$RefPtr@VAsyncResult@Gio@@@Glib@@Unil@sigc@@U34@U34@U34@U34@U34@@sigc@@W4ConnectionFlags@12@@Z
    ??0Connection@DBus@Gio@@IEAA@AEBV?$basic_string@DU?$char_traits@D@std@@V?$allocator@D@2@@std@@AEBV?$slot@XAEAV?$RefPtr@VAsyncResult@Gio@@@Glib@@Unil@sigc@@U34@U34@U34@U34@U34@@sigc@@W4ConnectionFlags@12@@Z
    ??0Connection@DBus@Gio@@IEAA@AEBV?$basic_string@DU?$char_traits@D@std@@V?$allocator@D@2@@std@@AEBV?$RefPtr@VAuthObserver@DBus@Gio@@@Glib@@AEBV?$RefPtr@VCancellable@Gio@@@6@W4ConnectionFlags@12@@Z
    ??0Connection@DBus@Gio@@IEAA@AEBV?$basic_string@DU?$char_traits@D@std@@V?$allocator@D@2@@std@@AEBV?$RefPtr@VCancellable@Gio@@@Glib@@W4ConnectionFlags@12@@Z
    ??0Connection@DBus@Gio@@IEAA@AEBV?$basic_string@DU?$char_traits@D@std@@V?$allocator@D@2@@std@@AEBV?$RefPtr@VAuthObserver@DBus@Gio@@@Glib@@W4ConnectionFlags@12@@Z
    ??0Connection@DBus@Gio@@IEAA@AEBV?$basic_string@DU?$char_traits@D@std@@V?$allocator@D@2@@std@@W4ConnectionFlags@12@@Z
    ?get@Connection@DBus@Gio@@SAXW4BusType@23@AEBV?$slot@XAEAV?$RefPtr@VAsyncResult@Gio@@@Glib@@Unil@sigc@@U34@U34@U34@U34@U34@@sigc@@AEBV?$RefPtr@VCancellable@Gio@@@Glib@@@Z
    ?get@Connection@DBus@Gio@@SAXW4BusType@23@AEBV?$slot@XAEAV?$RefPtr@VAsyncResult@Gio@@@Glib@@Unil@sigc@@U34@U34@U34@U34@U34@@sigc@@@Z
    ?get_finish@Connection@DBus@Gio@@SA?AV?$RefPtr@VConnection@DBus@Gio@@@Glib@@AEBV?$RefPtr@VAsyncResult@Gio@@@5@@Z
    ?get_sync@Connection@DBus@Gio@@SA?AV?$RefPtr@VConnection@DBus@Gio@@@Glib@@W4BusType@23@AEBV?$RefPtr@VCancellable@Gio@@@5@@Z
    ?get_sync@Connection@DBus@Gio@@SA?AV?$RefPtr@VConnection@DBus@Gio@@@Glib@@W4BusType@23@@Z
    ?create@Connection@DBus@Gio@@SAXAEBV?$RefPtr@VIOStream@Gio@@@Glib@@AEBV?$basic_string@DU?$char_traits@D@std@@V?$allocator@D@2@@std@@AEBV?$RefPtr@VAuthObserver@DBus@Gio@@@5@AEBV?$slot@XAEAV?$RefPtr@VAsyncResult@Gio@@@Glib@@Unil@sigc@@U34@U34@U34@U34@U34@@sigc@@AEBV?$RefPtr@VCancellable@Gio@@@5@W4ConnectionFlags@23@@Z
    ?create@Connection@DBus@Gio@@SAXAEBV?$RefPtr@VIOStream@Gio@@@Glib@@AEBV?$basic_string@DU?$char_traits@D@std@@V?$allocator@D@2@@std@@AEBV?$slot@XAEAV?$RefPtr@VAsyncResult@Gio@@@Glib@@Unil@sigc@@U34@U34@U34@U34@U34@@sigc@@AEBV?$RefPtr@VCancellable@Gio@@@5@W4ConnectionFlags@23@@Z
    ?create@Connection@DBus@Gio@@SAXAEBV?$RefPtr@VIOStream@Gio@@@Glib@@AEBV?$basic_string@DU?$char_traits@D@std@@V?$allocator@D@2@@std@@AEBV?$RefPtr@VAuthObserver@DBus@Gio@@@5@AEBV?$slot@XAEAV?$RefPtr@VAsyncResult@Gio@@@Glib@@Unil@sigc@@U34@U34@U34@U34@U34@@sigc@@W4ConnectionFlags@23@@Z
    ?create@Connection@DBus@Gio@@SAXAEBV?$RefPtr@VIOStream@Gio@@@Glib@@AEBV?$basic_string@DU?$char_traits@D@std@@V?$allocator@D@2@@std@@AEBV?$slot@XAEAV?$RefPtr@VAsyncResult@Gio@@@Glib@@Unil@sigc@@U34@U34@U34@U34@U34@@sigc@@W4ConnectionFlags@23@@Z
    ?create_finish@Connection@DBus@Gio@@SA?AV?$RefPtr@VConnection@DBus@Gio@@@Glib@@AEBV?$RefPtr@VAsyncResult@Gio@@@5@@Z
    ?create_for_address@Connection@DBus@Gio@@SAXAEBV?$basic_string@DU?$char_traits@D@std@@V?$allocator@D@2@@std@@AEBV?$RefPtr@VAuthObserver@DBus@Gio@@@Glib@@AEBV?$slot@XAEAV?$RefPtr@VAsyncResult@Gio@@@Glib@@Unil@sigc@@U34@U34@U34@U34@U34@@sigc@@AEBV?$RefPtr@VCancellable@Gio@@@7@W4ConnectionFlags@23@@Z
    ?create_for_address@Connection@DBus@Gio@@SAXAEBV?$basic_string@DU?$char_traits@D@std@@V?$allocator@D@2@@std@@AEBV?$slot@XAEAV?$RefPtr@VAsyncResult@Gio@@@Glib@@Unil@sigc@@U34@U34@U34@U34@U34@@sigc@@AEBV?$RefPtr@VCancellable@Gio@@@Glib@@W4ConnectionFlags@23@@Z
    ?create_for_address@Connection@DBus@Gio@@SAXAEBV?$basic_string@DU?$char_traits@D@std@@V?$allocator@D@2@@std@@AEBV?$RefPtr@VAuthObserver@DBus@Gio@@@Glib@@AEBV?$slot@XAEAV?$RefPtr@VAsyncResult@Gio@@@Glib@@Unil@sigc@@U34@U34@U34@U34@U34@@sigc@@W4ConnectionFlags@23@@Z
    ?create_for_address@Connection@DBus@Gio@@SAXAEBV?$basic_string@DU?$char_traits@D@std@@V?$allocator@D@2@@std@@AEBV?$slot@XAEAV?$RefPtr@VAsyncResult@Gio@@@Glib@@Unil@sigc@@U34@U34@U34@U34@U34@@sigc@@W4ConnectionFlags@23@@Z
    ?create_for_address_finish@Connection@DBus@Gio@@SA?AV?$RefPtr@VConnection@DBus@Gio@@@Glib@@AEBV?$RefPtr@VAsyncResult@Gio@@@5@@Z
    ?create_sync@Connection@DBus@Gio@@SA?AV?$RefPtr@VConnection@DBus@Gio@@@Glib@@AEBV?$RefPtr@VIOStream@Gio@@@5@AEBV?$basic_string@DU?$char_traits@D@std@@V?$allocator@D@2@@std@@AEBV?$RefPtr@VAuthObserver@DBus@Gio@@@5@AEBV?$RefPtr@VCancellable@Gio@@@5@W4ConnectionFlags@23@@Z
    ?create_sync@Connection@DBus@Gio@@SA?AV?$RefPtr@VConnection@DBus@Gio@@@Glib@@AEBV?$RefPtr@VIOStream@Gio@@@5@AEBV?$basic_string@DU?$char_traits@D@std@@V?$allocator@D@2@@std@@AEBV?$RefPtr@VCancellable@Gio@@@5@W4ConnectionFlags@23@@Z
    ?create_sync@Connection@DBus@Gio@@SA?AV?$RefPtr@VConnection@DBus@Gio@@@Glib@@AEBV?$RefPtr@VIOStream@Gio@@@5@AEBV?$basic_string@DU?$char_traits@D@std@@V?$allocator@D@2@@std@@AEBV?$RefPtr@VAuthObserver@DBus@Gio@@@5@W4ConnectionFlags@23@@Z
    ?create_sync@Connection@DBus@Gio@@SA?AV?$RefPtr@VConnection@DBus@Gio@@@Glib@@AEBV?$RefPtr@VIOStream@Gio@@@5@AEBV?$basic_string@DU?$char_traits@D@std@@V?$allocator@D@2@@std@@W4ConnectionFlags@23@@Z
    ?create_for_address_sync@Connection@DBus@Gio@@SA?AV?$RefPtr@VConnection@DBus@Gio@@@Glib@@AEBV?$basic_string@DU?$char_traits@D@std@@V?$allocator@D@2@@std@@AEBV?$RefPtr@VAuthObserver@DBus@Gio@@@5@AEBV?$RefPtr@VCancellable@Gio@@@5@W4ConnectionFlags@23@@Z
    ?create_for_address_sync@Connection@DBus@Gio@@SA?AV?$RefPtr@VConnection@DBus@Gio@@@Glib@@AEBV?$basic_string@DU?$char_traits@D@std@@V?$allocator@D@2@@std@@AEBV?$RefPtr@VCancellable@Gio@@@5@W4ConnectionFlags@23@@Z
    ?create_for_address_sync@Connection@DBus@Gio@@SA?AV?$RefPtr@VConnection@DBus@Gio@@@Glib@@AEBV?$basic_string@DU?$char_traits@D@std@@V?$allocator@D@2@@std@@AEBV?$RefPtr@VAuthObserver@DBus@Gio@@@5@W4ConnectionFlags@23@@Z
    ?create_for_address_sync@Connection@DBus@Gio@@SA?AV?$RefPtr@VConnection@DBus@Gio@@@Glib@@AEBV?$basic_string@DU?$char_traits@D@std@@V?$allocator@D@2@@std@@W4ConnectionFlags@23@@Z
    ?close@Connection@DBus@Gio@@QEAAXXZ
    ?close@Connection@DBus@Gio@@QEAAXAEBV?$slot@XAEAV?$RefPtr@VAsyncResult@Gio@@@Glib@@Unil@sigc@@U34@U34@U34@U34@U34@@sigc@@AEBV?$RefPtr@VCancellable@Gio@@@Glib@@@Z
    ?close@Connection@DBus@Gio@@QEAAXAEBV?$slot@XAEAV?$RefPtr@VAsyncResult@Gio@@@Glib@@Unil@sigc@@U34@U34@U34@U34@U34@@sigc@@@Z
    ?close_finish@Connection@DBus@Gio@@QEAA_NAEBV?$RefPtr@VAsyncResult@Gio@@@Glib@@@Z
    ?close_sync@Connection@DBus@Gio@@QEAAXAEBV?$RefPtr@VCancellable@Gio@@@Glib@@@Z
    ?close_sync@Connection@DBus@Gio@@QEAAXXZ
    ?flush@Connection@DBus@Gio@@QEAAXXZ
    ?flush@Connection@DBus@Gio@@QEAAXAEBV?$slot@XAEAV?$RefPtr@VAsyncResult@Gio@@@Glib@@Unil@sigc@@U34@U34@U34@U34@U34@@sigc@@AEBV?$RefPtr@VCancellable@Gio@@@Glib@@@Z
    ?flush@Connection@DBus@Gio@@QEAAXAEBV?$slot@XAEAV?$RefPtr@VAsyncResult@Gio@@@Glib@@Unil@sigc@@U34@U34@U34@U34@U34@@sigc@@@Z
    ?flush_finish@Connection@DBus@Gio@@QEAA_NAEBV?$RefPtr@VAsyncResult@Gio@@@Glib@@@Z
    ?flush_sync@Connection@DBus@Gio@@QEAAXAEBV?$RefPtr@VCancellable@Gio@@@Glib@@@Z
    ?flush_sync@Connection@DBus@Gio@@QEAAXXZ
    ?get_exit_on_close@Connection@DBus@Gio@@QEBA_NXZ
    ?set_exit_on_close@Connection@DBus@Gio@@QEAAX_N@Z
    ?send_message@Connection@DBus@Gio@@QEAA_NAEBV?$RefPtr@VMessage@DBus@Gio@@@Glib@@W4SendMessageFlags@23@AEAI@Z
    ?send_message@Connection@DBus@Gio@@QEAA_NAEBV?$RefPtr@VMessage@DBus@Gio@@@Glib@@W4SendMessageFlags@23@@Z
    ?send_message_with_reply@Connection@DBus@Gio@@QEAAXAEBV?$RefPtr@VMessage@DBus@Gio@@@Glib@@HAEBV?$slot@XAEAV?$RefPtr@VAsyncResult@Gio@@@Glib@@Unil@sigc@@U34@U34@U34@U34@U34@@sigc@@AEBV?$RefPtr@VCancellable@Gio@@@5@@Z
    ?send_message_with_reply@Connection@DBus@Gio@@QEAAXAEBV?$RefPtr@VMessage@DBus@Gio@@@Glib@@HAEBV?$slot@XAEAV?$RefPtr@VAsyncResult@Gio@@@Glib@@Unil@sigc@@U34@U34@U34@U34@U34@@sigc@@@Z
    ?send_message_with_reply_finish@Connection@DBus@Gio@@QEAA?AV?$RefPtr@VMessage@DBus@Gio@@@Glib@@AEBV?$RefPtr@VAsyncResult@Gio@@@5@@Z
    ?send_message_with_reply_sync@Connection@DBus@Gio@@QEAA?AV?$RefPtr@VMessage@DBus@Gio@@@Glib@@AEBV45@AEBV?$RefPtr@VCancellable@Gio@@@5@H@Z
    ?send_message_with_reply_sync@Connection@DBus@Gio@@QEAA?AV?$RefPtr@VMessage@DBus@Gio@@@Glib@@AEBV45@H@Z
    ?start_message_processing@Connection@DBus@Gio@@QEAAXXZ
    ?is_closed@Connection@DBus@Gio@@QEBA_NXZ
    ?get_stream@Connection@DBus@Gio@@QEAA?AV?$RefPtr@VIOStream@Gio@@@Glib@@XZ
    ?get_stream@Connection@DBus@Gio@@QEBA?AV?$RefPtr@$$CBVIOStream@Gio@@@Glib@@XZ
    ?get_guid@Connection@DBus@Gio@@QEBA?AV?$basic_string@DU?$char_traits@D@std@@V?$allocator@D@2@@std@@XZ
    ?get_unique_name@Connection@DBus@Gio@@QEBA?AVustring@Glib@@XZ
    ?get_capabilities@Connection@DBus@Gio@@QEBA?AW4CapabilityFlags@23@XZ
    ?get_flags@Connection@DBus@Gio@@QEBA?AW4ConnectionFlags@23@XZ
    ?get_peer_credentials@Connection@DBus@Gio@@QEAA?AV?$RefPtr@VCredentials@Gio@@@Glib@@XZ
    ?get_peer_credentials@Connection@DBus@Gio@@QEBA?AV?$RefPtr@$$CBVCredentials@Gio@@@Glib@@XZ
    ?get_last_serial@Connection@DBus@Gio@@QEBAIXZ
    ?call@Connection@DBus@Gio@@QEAAXAEBVustring@Glib@@00AEBVVariantContainerBase@5@AEBV?$slot@XAEAV?$RefPtr@VAsyncResult@Gio@@@Glib@@Unil@sigc@@U34@U34@U34@U34@U34@@sigc@@AEBV?$RefPtr@VCancellable@Gio@@@5@0HW4CallFlags@23@AEBVVariantType@5@@Z
    ?call@Connection@DBus@Gio@@QEAAXAEBVustring@Glib@@00AEBVVariantContainerBase@5@AEBV?$slot@XAEAV?$RefPtr@VAsyncResult@Gio@@@Glib@@Unil@sigc@@U34@U34@U34@U34@U34@@sigc@@0HW4CallFlags@23@AEBVVariantType@5@@Z
    ?call_finish@Connection@DBus@Gio@@QEAA?AVVariantContainerBase@Glib@@AEBV?$RefPtr@VAsyncResult@Gio@@@5@@Z
    ?call_sync@Connection@DBus@Gio@@QEAA?AVVariantContainerBase@Glib@@AEBVustring@5@00AEBV45@AEBV?$RefPtr@VCancellable@Gio@@@5@0HW4CallFlags@23@AEBVVariantType@5@@Z
    ?call_sync@Connection@DBus@Gio@@QEAA?AVVariantContainerBase@Glib@@AEBVustring@5@00AEBV45@0HW4CallFlags@23@AEBVVariantType@5@@Z
    ?emit_signal@Connection@DBus@Gio@@QEAAXAEBVustring@Glib@@000AEBVVariantContainerBase@5@@Z
    ?signal_subscribe@Connection@DBus@Gio@@QEAAIAEBV?$slot@XAEBV?$RefPtr@VConnection@DBus@Gio@@@Glib@@AEBVustring@2@AEBV32@AEBV32@AEBV32@AEBVVariantContainerBase@2@Unil@sigc@@@sigc@@AEBVustring@Glib@@1111W4SignalFlags@23@@Z
    ?signal_unsubscribe@Connection@DBus@Gio@@QEAAXI@Z
    ?add_filter@Connection@DBus@Gio@@QEAAIAEBV?$slot@V?$RefPtr@VMessage@DBus@Gio@@@Glib@@AEBV?$RefPtr@VConnection@DBus@Gio@@@2@AEBV12@_NUnil@sigc@@U45@U45@U45@@sigc@@@Z
    ?remove_filter@Connection@DBus@Gio@@QEAAXI@Z
    ?register_object@Connection@DBus@Gio@@QEAAIAEBVustring@Glib@@AEBV?$RefPtr@VInterfaceInfo@DBus@Gio@@@5@AEBVInterfaceVTable@23@@Z
    ?register_object@Connection@DBus@Gio@@QEAAIAEBVustring@Glib@@AEBV?$RefPtr@VInterfaceInfo@DBus@Gio@@@5@@Z
    ?unregister_object@Connection@DBus@Gio@@QEAA_NI@Z
    ?register_subtree@Connection@DBus@Gio@@QEAAIAEBVustring@Glib@@AEBVSubtreeVTable@23@W4SubtreeFlags@23@@Z
    ?unregister_subtree@Connection@DBus@Gio@@QEAA_NI@Z
    ?export_action_group@Connection@DBus@Gio@@QEAAIAEBVustring@Glib@@AEBV?$RefPtr@VActionGroup@Gio@@@5@@Z
    ?unexport_action_group@Connection@DBus@Gio@@QEAAXI@Z
    ?export_menu_model@Connection@DBus@Gio@@QEAAIAEBVustring@Glib@@AEBV?$RefPtr@VMenuModel@Gio@@@5@@Z
    ?unexport_menu_model@Connection@DBus@Gio@@QEAAXI@Z
    ?property_capabilities@Connection@DBus@Gio@@QEBA?AV?$PropertyProxy_ReadOnly@W4CapabilityFlags@DBus@Gio@@@Glib@@XZ
    ?property_closed@Connection@DBus@Gio@@QEBA?AV?$PropertyProxy_ReadOnly@_N@Glib@@XZ
    ?property_exit_on_close@Connection@DBus@Gio@@QEAA?AV?$PropertyProxy@_N@Glib@@XZ
    ?property_exit_on_close@Connection@DBus@Gio@@QEBA?AV?$PropertyProxy_ReadOnly@_N@Glib@@XZ
    ?property_flags@Connection@DBus@Gio@@QEBA?AV?$PropertyProxy_ReadOnly@W4ConnectionFlags@DBus@Gio@@@Glib@@XZ
    ?property_guid@Connection@DBus@Gio@@QEBA?AV?$PropertyProxy_ReadOnly@V?$basic_string@DU?$char_traits@D@std@@V?$allocator@D@2@@std@@@Glib@@XZ
    ?property_stream@Connection@DBus@Gio@@QEBA?AV?$PropertyProxy_ReadOnly@V?$RefPtr@VIOStream@Gio@@@Glib@@@Glib@@XZ
    ?property_unique_name@Connection@DBus@Gio@@QEBA?AV?$PropertyProxy_ReadOnly@Vustring@Glib@@@Glib@@XZ
    ?signal_closed@Connection@DBus@Gio@@QEAA?AV?$SignalProxy@X_NAEBVError@Glib@@@Glib@@XZ
    ??_DConnection@DBus@Gio@@QEAAXXZ
    ?wrap@Glib@@YA?AV?$RefPtr@VConnection@DBus@Gio@@@1@PEAU_GDBusConnection@@_N@Z
    ?init@Connection_Class@DBus@Gio@@QEAAAEBVClass@Glib@@XZ
    ?class_init_function@Connection_Class@DBus@Gio@@SAXPEAX0@Z
    ?wrap_new@Connection_Class@DBus@Gio@@SAPEAVObjectBase@Glib@@PEAU_GObject@@@Z
    ?gobj@ActionGroup@Gio@@QEAAPEAU_GActionGroup@@XZ
    ?gobj@MenuModel@Gio@@QEAAPEAU_GMenuModel@@XZ
    ??1?$RefPtr@VConnection@DBus@Gio@@@Glib@@QEAA@XZ
    ??0?$RefPtr@VConnection@DBus@Gio@@@Glib@@QEAA@PEAVConnection@DBus@Gio@@@Z
    ??0?$RefPtr@VConnection@DBus@Gio@@@Glib@@QEAA@$$QEAV01@@Z
    ??R?$slot6@XAEBV?$RefPtr@VConnection@DBus@Gio@@@Glib@@AEBVustring@2@AEBV32@AEBV32@AEBV32@AEBVVariantContainerBase@2@@sigc@@QEBAXAEBV?$RefPtr@VConnection@DBus@Gio@@@Glib@@AEBVustring@3@111AEBVVariantContainerBase@3@@Z
    ??0?$slot6@XAEBV?$RefPtr@VConnection@DBus@Gio@@@Glib@@AEBVustring@2@AEBV32@AEBV32@AEBV32@AEBVVariantContainerBase@2@@sigc@@QEAA@AEBV01@@Z
    ??1?$slot6@XAEBV?$RefPtr@VConnection@DBus@Gio@@@Glib@@AEBVustring@2@AEBV32@AEBV32@AEBV32@AEBVVariantContainerBase@2@@sigc@@QEAA@XZ
    ??0?$slot@XAEBV?$RefPtr@VConnection@DBus@Gio@@@Glib@@AEBVustring@2@AEBV32@AEBV32@AEBV32@AEBVVariantContainerBase@2@Unil@sigc@@@sigc@@QEAA@AEBV01@@Z
    ??1?$slot@XAEBV?$RefPtr@VConnection@DBus@Gio@@@Glib@@AEBVustring@2@AEBV32@AEBV32@AEBV32@AEBVVariantContainerBase@2@Unil@sigc@@@sigc@@QEAA@XZ
    ??0?$RefPtr@VMessage@DBus@Gio@@@Glib@@QEAA@XZ
    ??1?$RefPtr@VMessage@DBus@Gio@@@Glib@@QEAA@XZ
    ??0?$RefPtr@VMessage@DBus@Gio@@@Glib@@QEAA@$$QEAV01@@Z
    ??C?$RefPtr@VMessage@DBus@Gio@@@Glib@@QEBAPEAVMessage@DBus@Gio@@XZ
    ??B?$RefPtr@VMessage@DBus@Gio@@@Glib@@QEBA_NXZ
    ??R?$slot3@V?$RefPtr@VMessage@DBus@Gio@@@Glib@@AEBV?$RefPtr@VConnection@DBus@Gio@@@2@AEBV12@_N@sigc@@QEBA?AV?$RefPtr@VMessage@DBus@Gio@@@Glib@@AEBV?$RefPtr@VConnection@DBus@Gio@@@3@AEBV23@AEB_N@Z
    ??0?$slot3@V?$RefPtr@VMessage@DBus@Gio@@@Glib@@AEBV?$RefPtr@VConnection@DBus@Gio@@@2@AEBV12@_N@sigc@@QEAA@AEBV01@@Z
    ??1?$slot3@V?$RefPtr@VMessage@DBus@Gio@@@Glib@@AEBV?$RefPtr@VConnection@DBus@Gio@@@2@AEBV12@_N@sigc@@QEAA@XZ
    ??0?$slot@V?$RefPtr@VMessage@DBus@Gio@@@Glib@@AEBV?$RefPtr@VConnection@DBus@Gio@@@2@AEBV12@_NUnil@sigc@@U45@U45@U45@@sigc@@QEAA@AEBV01@@Z
    ??1?$slot@V?$RefPtr@VMessage@DBus@Gio@@@Glib@@AEBV?$RefPtr@VConnection@DBus@Gio@@@2@AEBV12@_NUnil@sigc@@U45@U45@U45@@sigc@@QEAA@XZ
    ??1?$RefPtr@VIOStream@Gio@@@Glib@@QEAA@XZ
    ??0?$RefPtr@VIOStream@Gio@@@Glib@@QEAA@$$QEAV01@@Z
    ??C?$RefPtr@VIOStream@Gio@@@Glib@@QEBAPEAVIOStream@Gio@@XZ
    ??B?$RefPtr@VIOStream@Gio@@@Glib@@QEBA_NXZ
    ?release@?$RefPtr@VIOStream@Gio@@@Glib@@QEAAPEAVIOStream@Gio@@XZ
    ??$unwrap@VIOStream@Gio@@@Glib@@YAPEAU_GIOStream@@AEBV?$RefPtr@VIOStream@Gio@@@0@@Z
    ??$c_str_or_nullptr@V?$basic_string@DU?$char_traits@D@std@@V?$allocator@D@2@@std@@@Glib@@YAPEBDAEBV?$basic_string@DU?$char_traits@D@std@@V?$allocator@D@2@@std@@@Z
    ??C?$RefPtr@VAuthObserver@DBus@Gio@@@Glib@@QEBAPEAVAuthObserver@DBus@Gio@@XZ
    ??B?$RefPtr@VAuthObserver@DBus@Gio@@@Glib@@QEBA_NXZ
    ??$unwrap@VAuthObserver@DBus@Gio@@@Glib@@YAPEAU_GDBusAuthObserver@@AEBV?$RefPtr@VAuthObserver@DBus@Gio@@@0@@Z
    ??C?$RefPtr@VCancellable@Gio@@@Glib@@QEBAPEAVCancellable@Gio@@XZ
    ??B?$RefPtr@VCancellable@Gio@@@Glib@@QEBA_NXZ
    ??0?$slot1@XAEAV?$RefPtr@VAsyncResult@Gio@@@Glib@@@sigc@@QEAA@AEBV01@@Z
    ??1?$slot1@XAEAV?$RefPtr@VAsyncResult@Gio@@@Glib@@@sigc@@QEAA@XZ
    ??0?$slot@XAEAV?$RefPtr@VAsyncResult@Gio@@@Glib@@Unil@sigc@@U34@U34@U34@U34@U34@@sigc@@QEAA@AEBV01@@Z
    ??$unwrap@VCancellable@Gio@@@Glib@@YAPEAU_GCancellable@@AEBV?$RefPtr@VCancellable@Gio@@@0@@Z
    ??C?$RefPtr@VAsyncResult@Gio@@@Glib@@QEBAPEAVAsyncResult@Gio@@XZ
    ??B?$RefPtr@VAsyncResult@Gio@@@Glib@@QEBA_NXZ
    ??$unwrap@VMessage@DBus@Gio@@@Glib@@YAPEAU_GDBusMessage@@AEBV?$RefPtr@VMessage@DBus@Gio@@@0@@Z
    ??$c_str_or_nullptr@Vustring@Glib@@@Glib@@YAPEBDAEBVustring@0@@Z
    ??$unwrap@VInterfaceInfo@DBus@Gio@@@Glib@@YAPEAU_GDBusInterfaceInfo@@AEBV?$RefPtr@VInterfaceInfo@DBus@Gio@@@0@@Z
    ??R?$slot2@X_NAEBVError@Glib@@@sigc@@QEBAXAEB_NAEBVError@Glib@@@Z
    ??$move@AEAVConnection@DBus@Gio@@@std@@YA$$QEAVConnection@DBus@Gio@@AEAV123@@Z
    ??$unwrap@VAsyncResult@Gio@@@Glib@@YAPEAU_GAsyncResult@@AEBV?$RefPtr@VAsyncResult@Gio@@@0@@Z
    ??1?$RefPtr@$$CBVIOStream@Gio@@@Glib@@QEAA@XZ
    ??$?0VIOStream@Gio@@@?$RefPtr@$$CBVIOStream@Gio@@@Glib@@QEAA@$$QEAV?$RefPtr@VIOStream@Gio@@@1@@Z
    ??1?$RefPtr@VCredentials@Gio@@@Glib@@QEAA@XZ
    ??0?$RefPtr@VCredentials@Gio@@@Glib@@QEAA@$$QEAV01@@Z
    ??C?$RefPtr@VCredentials@Gio@@@Glib@@QEBAPEAVCredentials@Gio@@XZ
    ??B?$RefPtr@VCredentials@Gio@@@Glib@@QEBA_NXZ
    ?release@?$RefPtr@VCredentials@Gio@@@Glib@@QEAAPEAVCredentials@Gio@@XZ
    ??1?$RefPtr@$$CBVCredentials@Gio@@@Glib@@QEAA@XZ
    ??$?0VCredentials@Gio@@@?$RefPtr@$$CBVCredentials@Gio@@@Glib@@QEAA@$$QEAV?$RefPtr@VCredentials@Gio@@@1@@Z
    ??C?$RefPtr@VActionGroup@Gio@@@Glib@@QEBAPEAVActionGroup@Gio@@XZ
    ??B?$RefPtr@VActionGroup@Gio@@@Glib@@QEBA_NXZ
    ??$unwrap@VActionGroup@Gio@@@Glib@@YAPEAU_GActionGroup@@AEBV?$RefPtr@VActionGroup@Gio@@@0@@Z
    ??C?$RefPtr@VMenuModel@Gio@@@Glib@@QEBAPEAVMenuModel@Gio@@XZ
    ??B?$RefPtr@VMenuModel@Gio@@@Glib@@QEBA_NXZ
    ??$unwrap@VMenuModel@Gio@@@Glib@@YAPEAU_GMenuModel@@AEBV?$RefPtr@VMenuModel@Gio@@@0@@Z
    ??0?$SignalProxy@X_NAEBVError@Glib@@@Glib@@QEAA@PEAVObjectBase@1@PEBUSignalProxyInfo@1@@Z
    ??1?$SignalProxy@X_NAEBVError@Glib@@@Glib@@QEAA@XZ
    ??0?$PropertyProxy_ReadOnly@W4CapabilityFlags@DBus@Gio@@@Glib@@QEAA@PEBVObjectBase@1@PEBD@Z
    ??0?$PropertyProxy_ReadOnly@_N@Glib@@QEAA@PEBVObjectBase@1@PEBD@Z
    ??0?$PropertyProxy@_N@Glib@@QEAA@PEAVObjectBase@1@PEBD@Z
    ??0?$PropertyProxy_ReadOnly@W4ConnectionFlags@DBus@Gio@@@Glib@@QEAA@PEBVObjectBase@1@PEBD@Z
    ??0?$PropertyProxy_ReadOnly@V?$basic_string@DU?$char_traits@D@std@@V?$allocator@D@2@@std@@@Glib@@QEAA@PEBVObjectBase@1@PEBD@Z
    ??0?$PropertyProxy_ReadOnly@V?$RefPtr@VIOStream@Gio@@@Glib@@@Glib@@QEAA@PEBVObjectBase@1@PEBD@Z
    ??0?$PropertyProxy_ReadOnly@Vustring@Glib@@@Glib@@QEAA@PEBVObjectBase@1@PEBD@Z
    ??$min@_K@std@@YAAEB_KAEB_K0@Z
    ??$function_pointer_cast@P6AXPEAUslot_rep@internal@sigc@@AEB_NAEBVError@Glib@@@ZP6APEAXPEAX@Z@internal@sigc@@YAP6AXPEAUslot_rep@01@AEB_NAEBVError@Glib@@@ZP6APEAXPEAX@Z@Z
    ??$function_pointer_cast@P6A?AV?$RefPtr@VMessage@DBus@Gio@@@Glib@@PEAUslot_rep@internal@sigc@@AEBV?$RefPtr@VConnection@DBus@Gio@@@2@AEBV12@AEB_N@ZP6APEAXPEAX@Z@internal@sigc@@YAP6A?AV?$RefPtr@VMessage@DBus@Gio@@@Glib@@PEAUslot_rep@01@AEBV?$RefPtr@VConnection@DBus@Gio@@@3@AEBV23@AEB_N@ZP6APEAXPEAX@Z@Z
    ??$function_pointer_cast@P6AXPEAUslot_rep@internal@sigc@@AEBV?$RefPtr@VConnection@DBus@Gio@@@Glib@@AEBVustring@5@222AEBVVariantContainerBase@5@@ZP6APEAXPEAX@Z@internal@sigc@@YAP6AXPEAUslot_rep@01@AEBV?$RefPtr@VConnection@DBus@Gio@@@Glib@@AEBVustring@4@222AEBVVariantContainerBase@4@@ZP6APEAXPEAX@Z@Z
    ??$_Convert_size@_K_K@std@@YA_K_K@Z
    ??$move@AEAV?$allocator@D@std@@@std@@YA$$QEAV?$allocator@D@0@AEAV10@@Z
    ??$?0V?$allocator@D@std@@$$V@?$_Compressed_pair@V?$allocator@D@std@@V?$_String_val@U?$_Simple_types@D@std@@@2@$00@std@@QEAA@U_One_then_variadic_args_t@1@$$QEAV?$allocator@D@1@@Z
    ??$?0$$V@?$_Compressed_pair@V?$allocator@D@std@@V?$_String_val@U?$_Simple_types@D@std@@@2@$00@std@@QEAA@U_Zero_then_variadic_args_t@1@@Z
    ??$_Construct@$00PEBD@?$basic_string@DU?$char_traits@D@std@@V?$allocator@D@2@@std@@AEAAXQEBD_K@Z
    ??$forward@V?$allocator@D@std@@@std@@YA$$QEAV?$allocator@D@0@AEAV10@@Z
    ??$_Allocate_for_capacity@$0A@@?$basic_string@DU?$char_traits@D@std@@V?$allocator@D@2@@std@@CAPEADAEAV?$allocator@D@1@AEA_K@Z
    ??$_Construct_in_place@PEADAEBQEAD@std@@YAXAEAPEADAEBQEAD@Z
    ??$_Unfancy@D@std@@YAPEADPEAD@Z
    ??$addressof@V?$_String_val@U?$_Simple_types@D@std@@@std@@@std@@YAPEAV?$_String_val@U?$_Simple_types@D@std@@@0@AEAV10@@Z
    ??$_Construct_in_place@PEADAEAPEAD@std@@YAXAEAPEAD0@Z
    ??$max@_K@std@@YAAEB_KAEB_K0@Z
    ??$_Deallocate@$0BA@@std@@YAXPEAX_K@Z
    ??$forward@AEAPEAD@std@@YAAEAPEADAEAPEAD@Z
    ??$_Allocate_at_least_helper@V?$allocator@D@std@@@std@@YAPEADAEAV?$allocator@D@0@AEA_K@Z
    ??$addressof@PEAD@std@@YAPEAPEADAEAPEAD@Z
    ??$forward@AEBQEAD@std@@YAAEBQEADAEBQEAD@Z
    ??$_Allocate@$0BA@U_Default_allocate_traits@std@@@std@@YAPEAX_K@Z
    ??$_Destroy_in_place@PEAD@std@@YAXAEAPEAD@Z
    ??$_Max_limit@_J@std@@YA_JXZ
    ??$_Allocate_manually_vector_aligned@U_Default_allocate_traits@std@@@std@@YAPEAX_K@Z
    ??$_Get_size_of_n@$00@std@@YA_K_K@Z
    ??_7exception@std@@6B@
    ??_C@_0BC@EOODALEL@Unknown?5exception@
    ??_7bad_alloc@std@@6B@
    ??_7bad_array_new_length@std@@6B@
    ??_C@_0BF@KINCDENJ@bad?5array?5new?5length@
    ??_R0?AVexception@std@@@8
    _CT??_R0?AVexception@std@@@8??0exception@std@@QEAA@AEBV01@@Z24
    _TI3?AVbad_array_new_length@std@@
    _CTA3?AVbad_array_new_length@std@@
    ??_R0?AVbad_array_new_length@std@@@8
    _CT??_R0?AVbad_array_new_length@std@@@8??0bad_array_new_length@std@@QEAA@AEBV01@@Z24
    ??_R0?AVbad_alloc@std@@@8
    _CT??_R0?AVbad_alloc@std@@@8??0bad_alloc@std@@QEAA@AEBV01@@Z24
    ??_C@_0BA@JFNIOLAK@string?5too?5long@
    ??_C@_00CNPNBAHC@@
    ??_7Connection@DBus@Gio@@6BInitable@2@@
    ??_7Connection@DBus@Gio@@6BAsyncInitable@2@@
    ??_7Connection@DBus@Gio@@6B@
    ??_8Connection@DBus@Gio@@7BObject@Glib@@@
    ??_8Connection@DBus@Gio@@7BInterface@Glib@@Initable@2@@
    ??_8Connection@DBus@Gio@@7BInterface@Glib@@AsyncInitable@2@@
    ??_8Connection@DBus@Gio@@7BObjectBase@Glib@@@
    ??_C@_0BI@DLADNHLG@authentication?9observer@
    ??_C@_05GECEPKB@flags@
    ??_C@_04ILJKNBN@guid@
    ??_C@_06DJAMKFID@stream@
    ??_C@_07LHEPONKL@address@
    ??_R0?AVObjectBase@Glib@@@8
    ??_R0?AVConnection@DBus@Gio@@@8
    ??_C@_0N@OOOMKFPO@capabilities@
    ??_C@_0O@JAGFNKLL@exit?9on?9close@
    ??_C@_0M@ILFKPOOD@unique?9name@
    ??_R4exception@std@@6B@
    ??_R3exception@std@@8
    ??_R2exception@std@@8
    ??_R1A@?0A@EA@exception@std@@8
    ??_R4bad_array_new_length@std@@6B@
    ??_R3bad_array_new_length@std@@8
    ??_R2bad_array_new_length@std@@8
    ??_R1A@?0A@EA@bad_array_new_length@std@@8
    ??_R1A@?0A@EA@bad_alloc@std@@8
    ??_R3bad_alloc@std@@8
    ??_R2bad_alloc@std@@8
    ??_R4bad_alloc@std@@6B@
    ??_R4Connection@DBus@Gio@@6BInitable@2@@
    ??_R3Connection@DBus@Gio@@8
    ??_R2Connection@DBus@Gio@@8
    ??_R1A@?0A@EA@Connection@DBus@Gio@@8
    ??_R1CA@?0A@EA@Object@Glib@@8
    ??_R0?AVObject@Glib@@@8
    ??_R3Object@Glib@@8
    ??_R2Object@Glib@@8
    ??_R1A@?0A@EA@Object@Glib@@8
    ??_R1A@A@7FA@ObjectBase@Glib@@8
    ??_R3ObjectBase@Glib@@8
    ??_R2ObjectBase@Glib@@8
    ??_R1A@?0A@EA@ObjectBase@Glib@@8
    ??_R1A@73FA@trackable@sigc@@8
    ??_R0?AUtrackable@sigc@@@8
    ??_R3trackable@sigc@@8
    ??_R2trackable@sigc@@8
    ??_R1A@?0A@EA@trackable@sigc@@8
    ??_R1A@A@3FA@trackable@sigc@@8
    ??_R1A@CA@7FA@ObjectBase@Glib@@8
    ??_R1A@CA@3FA@trackable@sigc@@8
    ??_R1A@?0A@EA@Initable@Gio@@8
    ??_R0?AVInitable@Gio@@@8
    ??_R3Initable@Gio@@8
    ??_R2Initable@Gio@@8
    ??_R17?0A@EA@Interface@Glib@@8
    ??_R0?AVInterface@Glib@@@8
    ??_R3Interface@Glib@@8
    ??_R2Interface@Glib@@8
    ??_R1A@?0A@EA@Interface@Glib@@8
    ??_R1A@77FA@ObjectBase@Glib@@8
    ??_R17?0A@EC@Interface@Glib@@8
    ??_R1BA@?0A@EA@AsyncInitable@Gio@@8
    ??_R0?AVAsyncInitable@Gio@@@8
    ??_R3AsyncInitable@Gio@@8
    ??_R2AsyncInitable@Gio@@8
    ??_R1A@?0A@EA@AsyncInitable@Gio@@8
    ??_R1BI@?0A@EC@Interface@Glib@@8
    ??_R4Connection@DBus@Gio@@6BAsyncInitable@2@@
    ??_R4Connection@DBus@Gio@@6B@
    ?__empty_global_delete@@YAXPEAX@Z
    ?__empty_global_delete@@YAXPEAX_K@Z
    ??0Exception@Glib@@QEAA@AEBV01@@Z
    ??0Error@DBus@Gio@@QEAA@W4Code@012@AEBVustring@Glib@@@Z
    ??0Error@DBus@Gio@@QEAA@PEAU_GError@@@Z
    ?code@Error@DBus@Gio@@QEBA?AW4Code@123@XZ
    ?throw_func@Error@DBus@Gio@@CAXPEAU_GError@@@Z
    ??1Error@DBus@Gio@@UEAA@XZ
    ??0Error@DBus@Gio@@QEAA@AEBV012@@Z
    ??_7Exception@Glib@@6B@
    ??_7Error@DBus@Gio@@6B@
    _TI3?AVError@DBus@Gio@@
    _CTA3?AVError@DBus@Gio@@
    ??_R0?AVError@DBus@Gio@@@8
    _CT??_R0?AVError@DBus@Gio@@@8??0Error@DBus@Gio@@QEAA@AEBV012@@Z16
    ??_R0?AVError@Glib@@@8
    _CT??_R0?AVError@Glib@@@8??0Error@Glib@@QEAA@AEBV01@@Z16
    ??_R0?AVException@Glib@@@8
    _CT??_R0?AVException@Glib@@@8??0Exception@Glib@@QEAA@AEBV01@@Z8
    ??_R4Exception@Glib@@6B@
    ??_R3Exception@Glib@@8
    ??_R2Exception@Glib@@8
    ??_R1A@?0A@EA@Exception@Glib@@8
    ??_R4Error@DBus@Gio@@6B@
    ??_R3Error@DBus@Gio@@8
    ??_R2Error@DBus@Gio@@8
    ??_R1A@?0A@EA@Error@DBus@Gio@@8
    ??_R1A@?0A@EA@Error@Glib@@8
    ??_R3Error@Glib@@8
    ??_R2Error@Glib@@8
    ?__empty_global_delete@@YAXPEAX@Z
    ?__empty_global_delete@@YAXPEAX_K@Z
    ?convert_const_gchar_ptr_to_ustring@Glib@@YA?AVustring@1@PEBD@Z
    ?is_remote_error@ErrorUtils@DBus@Gio@@YA_NAEBVError@Glib@@@Z
    ?get_remote_error@ErrorUtils@DBus@Gio@@YA?AVustring@Glib@@AEBVError@5@@Z
    ?strip_remote_error@ErrorUtils@DBus@Gio@@YA_NAEAVError@Glib@@@Z
    ?interface_class_@Interface@DBus@Gio@@0VInterface_Class@23@A
    ?__empty_global_delete@@YAXPEAX@Z
    ?__empty_global_delete@@YAXPEAX_K@Z
    ?name@type_info@@QEBAPEBDXZ
    ?get_type@Class@Glib@@QEBA_KXZ
    ??0Interface@DBus@Gio@@IEAA@XZ
    ??0Interface@DBus@Gio@@IEAA@AEBVInterface_Class@Glib@@@Z
    ??0Interface@DBus@Gio@@QEAA@PEAU_GDBusInterface@@@Z
    ??0Interface@DBus@Gio@@QEAA@$$QEAV012@@Z
    ??4Interface@DBus@Gio@@QEAAAEAV012@$$QEAV012@@Z
    ??1Interface@DBus@Gio@@UEAA@XZ
    ?add_interface@Interface@DBus@Gio@@SAX_K@Z
    ?get_type@Interface@DBus@Gio@@SA_KXZ
    ?get_base_type@Interface@DBus@Gio@@SA_KXZ
    ?gobj@Interface@DBus@Gio@@QEAAPEAU_GDBusInterface@@XZ
    ?gobj@Interface@DBus@Gio@@QEBAPEBU_GDBusInterface@@XZ
    ?get_info@Interface@DBus@Gio@@QEAA?AV?$RefPtr@VInterfaceInfo@DBus@Gio@@@Glib@@XZ
    ?get_info@Interface@DBus@Gio@@QEBA?AV?$RefPtr@$$CBVInterfaceInfo@DBus@Gio@@@Glib@@XZ
    ?get_object@Interface@DBus@Gio@@QEAA?AV?$RefPtr@VObject@DBus@Gio@@@Glib@@XZ
    ?get_object@Interface@DBus@Gio@@QEBA?AV?$RefPtr@$$CBVObject@DBus@Gio@@@Glib@@XZ
    ?dup_object@Interface@DBus@Gio@@QEAA?AV?$RefPtr@VObject@DBus@Gio@@@Glib@@XZ
    ?dup_object@Interface@DBus@Gio@@QEBA?AV?$RefPtr@$$CBVObject@DBus@Gio@@@Glib@@XZ
    ?set_object@Interface@DBus@Gio@@QEAAXAEBV?$RefPtr@VObject@DBus@Gio@@@Glib@@@Z
    ?get_info_vfunc@Interface@DBus@Gio@@UEBA?AV?$RefPtr@VInterfaceInfo@DBus@Gio@@@Glib@@XZ
    ?get_object_vfunc@Interface@DBus@Gio@@UEBA?AV?$RefPtr@VObject@DBus@Gio@@@Glib@@XZ
    ?set_object_vfunc@Interface@DBus@Gio@@UEAAXAEBV?$RefPtr@VObject@DBus@Gio@@@Glib@@@Z
    ?dup_object_vfunc@Interface@DBus@Gio@@UEBA?AV?$RefPtr@VObject@DBus@Gio@@@Glib@@XZ
    ??_DInterface@DBus@Gio@@QEAAXXZ
    ?wrap@Glib@@YA?AV?$RefPtr@VInterface@DBus@Gio@@@1@PEAU_GDBusInterface@@_N@Z
    ?init@Interface_Class@DBus@Gio@@QEAAAEBV1Glib@@XZ
    ?iface_init_function@Interface_Class@DBus@Gio@@SAXPEAX0@Z
    ?wrap_new@Interface_Class@DBus@Gio@@SAPEAVObjectBase@Glib@@PEAU_GObject@@@Z
    ?get_info_vfunc_callback@Interface_Class@DBus@Gio@@KAPEAU_GDBusInterfaceInfo@@PEAU_GDBusInterface@@@Z
    ?get_object_vfunc_callback@Interface_Class@DBus@Gio@@KAPEAU_GDBusObject@@PEAU_GDBusInterface@@@Z
    ?set_object_vfunc_callback@Interface_Class@DBus@Gio@@KAXPEAU_GDBusInterface@@PEAU_GDBusObject@@@Z
    ?dup_object_vfunc_callback@Interface_Class@DBus@Gio@@KAPEAU_GDBusObject@@PEAU_GDBusInterface@@@Z
    ??0?$RefPtr@VInterfaceInfo@DBus@Gio@@@Glib@@QEAA@XZ
    ??1?$RefPtr@VInterfaceInfo@DBus@Gio@@@Glib@@QEAA@XZ
    ??0?$RefPtr@VInterfaceInfo@DBus@Gio@@@Glib@@QEAA@$$QEAV01@@Z
    ??C?$RefPtr@VInterfaceInfo@DBus@Gio@@@Glib@@QEBAPEAVInterfaceInfo@DBus@Gio@@XZ
    ??B?$RefPtr@VInterfaceInfo@DBus@Gio@@@Glib@@QEBA_NXZ
    ?release@?$RefPtr@VInterfaceInfo@DBus@Gio@@@Glib@@QEAAPEAVInterfaceInfo@DBus@Gio@@XZ
    ?gobj@Object@DBus@Gio@@QEAAPEAU_GDBusObject@@XZ
    ??1?$RefPtr@VInterface@DBus@Gio@@@Glib@@QEAA@XZ
    ??0?$RefPtr@VInterface@DBus@Gio@@@Glib@@QEAA@PEAVInterface@DBus@Gio@@@Z
    ??$wrap_auto_interface@VInterface@DBus@Gio@@@Glib@@YAPEAVInterface@DBus@Gio@@PEAU_GObject@@_N@Z
    ??$unwrap@VInterfaceInfo@DBus@Gio@@@Glib@@YAPEAU_GDBusInterfaceInfo@@AEBV?$RefPtr@VInterfaceInfo@DBus@Gio@@@0@@Z
    ??0?$RefPtr@VObject@DBus@Gio@@@Glib@@QEAA@XZ
    ??1?$RefPtr@VObject@DBus@Gio@@@Glib@@QEAA@XZ
    ??0?$RefPtr@VObject@DBus@Gio@@@Glib@@QEAA@$$QEAV01@@Z
    ??C?$RefPtr@VObject@DBus@Gio@@@Glib@@QEBAPEAVObject@DBus@Gio@@XZ
    ??B?$RefPtr@VObject@DBus@Gio@@@Glib@@QEBA_NXZ
    ?release@?$RefPtr@VObject@DBus@Gio@@@Glib@@QEAAPEAVObject@DBus@Gio@@XZ
    ??$unwrap@VObject@DBus@Gio@@@Glib@@YAPEAU_GDBusObject@@AEBV?$RefPtr@VObject@DBus@Gio@@@0@@Z
    ??$move@AEAVInterface@DBus@Gio@@@std@@YA$$QEAVInterface@DBus@Gio@@AEAV123@@Z
    ??1?$RefPtr@$$CBVInterfaceInfo@DBus@Gio@@@Glib@@QEAA@XZ
    ??$?0VInterfaceInfo@DBus@Gio@@@?$RefPtr@$$CBVInterfaceInfo@DBus@Gio@@@Glib@@QEAA@$$QEAV?$RefPtr@VInterfaceInfo@DBus@Gio@@@1@@Z
    ??1?$RefPtr@$$CBVObject@DBus@Gio@@@Glib@@QEAA@XZ
    ??$?0VObject@DBus@Gio@@@?$RefPtr@$$CBVObject@DBus@Gio@@@Glib@@QEAA@$$QEAV?$RefPtr@VObject@DBus@Gio@@@1@@Z
    ??_7Interface@DBus@Gio@@6B012@@
    ??_7Interface@DBus@Gio@@6B0Glib@@@
    ??_8Interface@DBus@Gio@@7B0Glib@@@
    ??_8Interface@DBus@Gio@@7BObjectBase@Glib@@@
    ??_C@_0BB@DJDNGIAO@klass?5?$CB?$DN?5nullptr@
    ??_C@_0DA@FLOCOJJL@Gio?3?3DBus?3?3Interface_Class?3?3ifa@
    ??_C@_0BO@KIIAJKEK@?4?4?2gio?2giomm?2dbusinterface?4cc@
    ??_R0?AVObjectBase@Glib@@@8
    ??_R0?AVInterface@DBus@Gio@@@8
    ??_C@_0FM@MEPOJGMK@Glib?3?3wrap_auto_interface?$CI?$CJ?3?5Th@
    ??_R4Interface@DBus@Gio@@6B012@@
    ??_R3Interface@DBus@Gio@@8
    ??_R2Interface@DBus@Gio@@8
    ??_R1A@?0A@EA@Interface@DBus@Gio@@8
    ??_R17?0A@EA@Interface@Glib@@8
    ??_R0?AVInterface@Glib@@@8
    ??_R3Interface@Glib@@8
    ??_R2Interface@Glib@@8
    ??_R1A@?0A@EA@Interface@Glib@@8
    ??_R1A@A@7FA@ObjectBase@Glib@@8
    ??_R3ObjectBase@Glib@@8
    ??_R2ObjectBase@Glib@@8
    ??_R1A@?0A@EA@ObjectBase@Glib@@8
    ??_R1A@73FA@trackable@sigc@@8
    ??_R0?AUtrackable@sigc@@@8
    ??_R3trackable@sigc@@8
    ??_R2trackable@sigc@@8
    ??_R1A@?0A@EA@trackable@sigc@@8
    ??_R1A@A@3FA@trackable@sigc@@8
    ??_R1A@77FA@ObjectBase@Glib@@8
    ??_R4Interface@DBus@Gio@@6B0Glib@@@
    ?interfaceskeleton_class_@InterfaceSkeleton@DBus@Gio@@0VInterfaceSkeleton_Class@23@A
    ??_C@_0BD@LHLMPDJJ@g_authorize_method@
    ?__empty_global_delete@@YAXPEAX@Z
    ?__empty_global_delete@@YAXPEAX_K@Z
    ??2@YAPEAX_KPEAX@Z
    ??0exception@std@@QEAA@QEBDH@Z
    ??0exception@std@@QEAA@AEBV01@@Z
    ??1exception@std@@UEAA@XZ
    ?what@exception@std@@UEBAPEBDXZ
    ??0bad_alloc@std@@AEAA@QEBD@Z
    ??1bad_alloc@std@@UEAA@XZ
    ??0bad_alloc@std@@QEAA@AEBV01@@Z
    ??0bad_array_new_length@std@@QEAA@XZ
    ??1bad_array_new_length@std@@UEAA@XZ
    ??0bad_array_new_length@std@@QEAA@AEBV01@@Z
    ?_Throw_bad_array_new_length@std@@YAXXZ
    ?_Allocate@_Default_allocate_traits@std@@SAPEAX_K@Z
    ?_Adjust_manually_vector_aligned@std@@YAXAEAPEAXAEA_K@Z
    ?_Orphan_all@_Container_base0@std@@QEAAXXZ
    ??0_Fake_proxy_ptr_impl@std@@QEAA@AEBU_Fake_allocator@1@AEBU_Container_base0@1@@Z
    ?_Release@_Fake_proxy_ptr_impl@std@@QEAAXXZ
    ?get_type@Class@Glib@@QEBA_KXZ
    ?data_to_slot@SignalProxyBase@Glib@@SAPEAVslot_base@sigc@@PEAX@Z
    ?convert_const_gchar_ptr_to_ustring@Glib@@YA?AVustring@1@PEBD@Z
    ?value_type@?$Value@W4InterfaceSkeletonFlags@DBus@Gio@@@Glib@@SA_KXZ
    ??0InterfaceSkeleton@DBus@Gio@@IEAA@AEBVConstructParams@Glib@@@Z
    ??0InterfaceSkeleton@DBus@Gio@@IEAA@PEAU_GDBusInterfaceSkeleton@@@Z
    ??0InterfaceSkeleton@DBus@Gio@@QEAA@$$QEAV012@@Z
    ??4InterfaceSkeleton@DBus@Gio@@QEAAAEAV012@$$QEAV012@@Z
    ??1InterfaceSkeleton@DBus@Gio@@UEAA@XZ
    ?get_type@InterfaceSkeleton@DBus@Gio@@SA_KXZ
    ?get_base_type@InterfaceSkeleton@DBus@Gio@@SA_KXZ
    ?gobj@InterfaceSkeleton@DBus@Gio@@QEAAPEAU_GDBusInterfaceSkeleton@@XZ
    ?gobj@InterfaceSkeleton@DBus@Gio@@QEBAPEBU_GDBusInterfaceSkeleton@@XZ
    ?gobj_copy@InterfaceSkeleton@DBus@Gio@@QEAAPEAU_GDBusInterfaceSkeleton@@XZ
    ?flush@InterfaceSkeleton@DBus@Gio@@QEAAXXZ
    ?get_info@InterfaceSkeleton@DBus@Gio@@QEAA?AV?$RefPtr@VInterfaceInfo@DBus@Gio@@@Glib@@XZ
    ?get_info@InterfaceSkeleton@DBus@Gio@@QEBA?AV?$RefPtr@$$CBVInterfaceInfo@DBus@Gio@@@Glib@@XZ
    ?get_properties@InterfaceSkeleton@DBus@Gio@@QEBA?AVVariantBase@Glib@@XZ
    ?export_interface_skeleton@InterfaceSkeleton@DBus@Gio@@QEAAXAEBV?$RefPtr@VConnection@DBus@Gio@@@Glib@@AEBVustring@5@@Z
    ?unexport@InterfaceSkeleton@DBus@Gio@@QEAAXXZ
    ?unexport_from_connection@InterfaceSkeleton@DBus@Gio@@QEAAXAEBV?$RefPtr@VConnection@DBus@Gio@@@Glib@@@Z
    ?get_connection@InterfaceSkeleton@DBus@Gio@@QEAA?AV?$RefPtr@VConnection@DBus@Gio@@@Glib@@XZ
    ?get_connection@InterfaceSkeleton@DBus@Gio@@QEBA?AV?$RefPtr@$$CBVConnection@DBus@Gio@@@Glib@@XZ
    ?get_connections@InterfaceSkeleton@DBus@Gio@@QEAA?AV?$vector@V?$RefPtr@VConnection@DBus@Gio@@@Glib@@V?$allocator@V?$RefPtr@VConnection@DBus@Gio@@@Glib@@@std@@@std@@XZ
    ?get_connections@InterfaceSkeleton@DBus@Gio@@QEBA?AV?$vector@V?$RefPtr@$$CBVConnection@DBus@Gio@@@Glib@@V?$allocator@V?$RefPtr@$$CBVConnection@DBus@Gio@@@Glib@@@std@@@std@@XZ
    ?has_connection@InterfaceSkeleton@DBus@Gio@@QEBA_NAEBV?$RefPtr@$$CBVConnection@DBus@Gio@@@Glib@@@Z
    ?get_object_path@InterfaceSkeleton@DBus@Gio@@QEBA?AVustring@Glib@@XZ
    ?get_flags@InterfaceSkeleton@DBus@Gio@@QEBA?AW4InterfaceSkeletonFlags@23@XZ
    ?set_flags@InterfaceSkeleton@DBus@Gio@@QEAAXW4InterfaceSkeletonFlags@23@@Z
    ?property_g_flags@InterfaceSkeleton@DBus@Gio@@QEAA?AV?$PropertyProxy@W4InterfaceSkeletonFlags@DBus@Gio@@@Glib@@XZ
    ?property_g_flags@InterfaceSkeleton@DBus@Gio@@QEBA?AV?$PropertyProxy_ReadOnly@W4InterfaceSkeletonFlags@DBus@Gio@@@Glib@@XZ
    ?signal_authorize_method@InterfaceSkeleton@DBus@Gio@@QEAA?AV?$SignalProxy@_NAEBV?$RefPtr@VMethodInvocation@DBus@Gio@@@Glib@@@Glib@@XZ
    ?on_authorize_method@InterfaceSkeleton@DBus@Gio@@MEAA_NAEBV?$RefPtr@VMethodInvocation@DBus@Gio@@@Glib@@@Z
    ??_DInterfaceSkeleton@DBus@Gio@@QEAAXXZ
    ?wrap@Glib@@YA?AV?$RefPtr@VInterfaceSkeleton@DBus@Gio@@@1@PEAU_GDBusInterfaceSkeleton@@_N@Z
    ?init@InterfaceSkeleton_Class@DBus@Gio@@QEAAAEBVClass@Glib@@XZ
    ?class_init_function@InterfaceSkeleton_Class@DBus@Gio@@SAXPEAX0@Z
    ?wrap_new@InterfaceSkeleton_Class@DBus@Gio@@SAPEAVObjectBase@Glib@@PEAU_GObject@@@Z
    ?g_authorize_method_callback@InterfaceSkeleton_Class@DBus@Gio@@KAHPEAU_GDBusInterfaceSkeleton@@PEAU_GDBusMethodInvocation@@@Z
    ??1?$RefPtr@VInterfaceInfo@DBus@Gio@@@Glib@@QEAA@XZ
    ?release@?$RefPtr@VInterfaceInfo@DBus@Gio@@@Glib@@QEAAPEAVInterfaceInfo@DBus@Gio@@XZ
    ?gobj@MethodInvocation@DBus@Gio@@QEAAPEAU_GDBusMethodInvocation@@XZ
    ?gobj@Connection@DBus@Gio@@QEAAPEAU_GDBusConnection@@XZ
    ?gobj@Connection@DBus@Gio@@QEBAPEBU_GDBusConnection@@XZ
    ??R?$slot1@_NAEBV?$RefPtr@VMethodInvocation@DBus@Gio@@@Glib@@@sigc@@QEBA_NAEBV?$RefPtr@VMethodInvocation@DBus@Gio@@@Glib@@@Z
    ??1?$RefPtr@VMethodInvocation@DBus@Gio@@@Glib@@QEAA@XZ
    ??C?$RefPtr@VMethodInvocation@DBus@Gio@@@Glib@@QEBAPEAVMethodInvocation@DBus@Gio@@XZ
    ??B?$RefPtr@VMethodInvocation@DBus@Gio@@@Glib@@QEBA_NXZ
    ??R?$slot1@XAEBV?$RefPtr@VMethodInvocation@DBus@Gio@@@Glib@@@sigc@@QEBAXAEBV?$RefPtr@VMethodInvocation@DBus@Gio@@@Glib@@@Z
    ??1?$RefPtr@VInterfaceSkeleton@DBus@Gio@@@Glib@@QEAA@XZ
    ??0?$RefPtr@VInterfaceSkeleton@DBus@Gio@@@Glib@@QEAA@PEAVInterfaceSkeleton@DBus@Gio@@@Z
    ??$move@AEAVInterfaceSkeleton@DBus@Gio@@@std@@YA$$QEAVInterfaceSkeleton@DBus@Gio@@AEAV123@@Z
    ??1?$RefPtr@$$CBVInterfaceInfo@DBus@Gio@@@Glib@@QEAA@XZ
    ??$?0VInterfaceInfo@DBus@Gio@@@?$RefPtr@$$CBVInterfaceInfo@DBus@Gio@@@Glib@@QEAA@$$QEAV?$RefPtr@VInterfaceInfo@DBus@Gio@@@1@@Z
    ??1?$RefPtr@VConnection@DBus@Gio@@@Glib@@QEAA@XZ
    ??0?$RefPtr@VConnection@DBus@Gio@@@Glib@@QEAA@PEAVConnection@DBus@Gio@@@Z
    ??0?$RefPtr@VConnection@DBus@Gio@@@Glib@@QEAA@$$QEAV01@@Z
    ??C?$RefPtr@VConnection@DBus@Gio@@@Glib@@QEBAPEAVConnection@DBus@Gio@@XZ
    ??B?$RefPtr@VConnection@DBus@Gio@@@Glib@@QEBA_NXZ
    ?release@?$RefPtr@VConnection@DBus@Gio@@@Glib@@QEAAPEAVConnection@DBus@Gio@@XZ
    ??$unwrap@VConnection@DBus@Gio@@@Glib@@YAPEAU_GDBusConnection@@AEBV?$RefPtr@VConnection@DBus@Gio@@@0@@Z
    ??1?$RefPtr@$$CBVConnection@DBus@Gio@@@Glib@@QEAA@XZ
    ??0?$RefPtr@$$CBVConnection@DBus@Gio@@@Glib@@QEAA@PEBVConnection@DBus@Gio@@@Z
    ??0?$RefPtr@$$CBVConnection@DBus@Gio@@@Glib@@QEAA@$$QEAV01@@Z
    ??C?$RefPtr@$$CBVConnection@DBus@Gio@@@Glib@@QEBAPEBVConnection@DBus@Gio@@XZ
    ??B?$RefPtr@$$CBVConnection@DBus@Gio@@@Glib@@QEBA_NXZ
    ??$?0VConnection@DBus@Gio@@@?$RefPtr@$$CBVConnection@DBus@Gio@@@Glib@@QEAA@$$QEAV?$RefPtr@VConnection@DBus@Gio@@@1@@Z
    ??0?$allocator@V?$RefPtr@VConnection@DBus@Gio@@@Glib@@@std@@QEAA@XZ
    ?deallocate@?$allocator@V?$RefPtr@VConnection@DBus@Gio@@@Glib@@@std@@QEAAXQEAV?$RefPtr@VConnection@DBus@Gio@@@Glib@@_K@Z
    ?allocate@?$allocator@V?$RefPtr@VConnection@DBus@Gio@@@Glib@@@std@@QEAAPEAV?$RefPtr@VConnection@DBus@Gio@@@Glib@@_K@Z
    ?max_size@?$_Default_allocator_traits@V?$allocator@V?$RefPtr@VConnection@DBus@Gio@@@Glib@@@std@@@std@@SA_KAEBV?$allocator@V?$RefPtr@VConnection@DBus@Gio@@@Glib@@@2@@Z
    ??1?$vector@V?$RefPtr@VConnection@DBus@Gio@@@Glib@@V?$allocator@V?$RefPtr@VConnection@DBus@Gio@@@Glib@@@std@@@std@@QEAA@XZ
    ?max_size@?$vector@V?$RefPtr@VConnection@DBus@Gio@@@Glib@@V?$allocator@V?$RefPtr@VConnection@DBus@Gio@@@Glib@@@std@@@std@@QEBA_KXZ
    ?_Buy_raw@?$vector@V?$RefPtr@VConnection@DBus@Gio@@@Glib@@V?$allocator@V?$RefPtr@VConnection@DBus@Gio@@@Glib@@@std@@@std@@AEAAX_K@Z
    ?_Buy_nonzero@?$vector@V?$RefPtr@VConnection@DBus@Gio@@@Glib@@V?$allocator@V?$RefPtr@VConnection@DBus@Gio@@@Glib@@@std@@@std@@AEAAX_K@Z
    ?_Tidy@?$vector@V?$RefPtr@VConnection@DBus@Gio@@@Glib@@V?$allocator@V?$RefPtr@VConnection@DBus@Gio@@@Glib@@@std@@@std@@AEAAXXZ
    ?_Xlength@?$vector@V?$RefPtr@VConnection@DBus@Gio@@@Glib@@V?$allocator@V?$RefPtr@VConnection@DBus@Gio@@@Glib@@@std@@@std@@CAXXZ
    ?_Getal@?$vector@V?$RefPtr@VConnection@DBus@Gio@@@Glib@@V?$allocator@V?$RefPtr@VConnection@DBus@Gio@@@Glib@@@std@@@std@@AEAAAEAV?$allocator@V?$RefPtr@VConnection@DBus@Gio@@@Glib@@@2@XZ
    ?_Getal@?$vector@V?$RefPtr@VConnection@DBus@Gio@@@Glib@@V?$allocator@V?$RefPtr@VConnection@DBus@Gio@@@Glib@@@std@@@std@@AEBAAEBV?$allocator@V?$RefPtr@VConnection@DBus@Gio@@@Glib@@@2@XZ
    ??0?$_Vector_val@U?$_Simple_types@V?$RefPtr@VConnection@DBus@Gio@@@Glib@@@std@@@std@@QEAA@XZ
    ?_Get_first@?$_Compressed_pair@V?$allocator@V?$RefPtr@VConnection@DBus@Gio@@@Glib@@@std@@V?$_Vector_val@U?$_Simple_types@V?$RefPtr@VConnection@DBus@Gio@@@Glib@@@std@@@2@$00@std@@QEAAAEAV?$allocator@V?$RefPtr@VConnection@DBus@Gio@@@Glib@@@2@XZ
    ?_Get_first@?$_Compressed_pair@V?$allocator@V?$RefPtr@VConnection@DBus@Gio@@@Glib@@@std@@V?$_Vector_val@U?$_Simple_types@V?$RefPtr@VConnection@DBus@Gio@@@Glib@@@std@@@2@$00@std@@QEBAAEBV?$allocator@V?$RefPtr@VConnection@DBus@Gio@@@Glib@@@2@XZ
    ?to_cpp_type@?$TypeTraits@V?$RefPtr@VConnection@DBus@Gio@@@Glib@@@Container_Helpers@Glib@@SA?AV?$RefPtr@VConnection@DBus@Gio@@@3@PEAU_GDBusConnection@@@Z
    ?release_c_type@?$TypeTraits@V?$RefPtr@VConnection@DBus@Gio@@@Glib@@@Container_Helpers@Glib@@SAXPEAU_GDBusConnection@@@Z
    ?list_to_vector@?$ListHandler@V?$RefPtr@VConnection@DBus@Gio@@@Glib@@U?$TypeTraits@V?$RefPtr@VConnection@DBus@Gio@@@Glib@@@Container_Helpers@2@@Glib@@SA?AV?$vector@V?$RefPtr@VConnection@DBus@Gio@@@Glib@@V?$allocator@V?$RefPtr@VConnection@DBus@Gio@@@Glib@@@std@@@std@@PEAU_GList@@W4OwnershipType@2@@Z
    ??0?$allocator@V?$RefPtr@$$CBVConnection@DBus@Gio@@@Glib@@@std@@QEAA@XZ
    ?deallocate@?$allocator@V?$RefPtr@$$CBVConnection@DBus@Gio@@@Glib@@@std@@QEAAXQEAV?$RefPtr@$$CBVConnection@DBus@Gio@@@Glib@@_K@Z
    ?allocate@?$allocator@V?$RefPtr@$$CBVConnection@DBus@Gio@@@Glib@@@std@@QEAAPEAV?$RefPtr@$$CBVConnection@DBus@Gio@@@Glib@@_K@Z
    ?max_size@?$_Default_allocator_traits@V?$allocator@V?$RefPtr@$$CBVConnection@DBus@Gio@@@Glib@@@std@@@std@@SA_KAEBV?$allocator@V?$RefPtr@$$CBVConnection@DBus@Gio@@@Glib@@@2@@Z
    ??1?$vector@V?$RefPtr@$$CBVConnection@DBus@Gio@@@Glib@@V?$allocator@V?$RefPtr@$$CBVConnection@DBus@Gio@@@Glib@@@std@@@std@@QEAA@XZ
    ?max_size@?$vector@V?$RefPtr@$$CBVConnection@DBus@Gio@@@Glib@@V?$allocator@V?$RefPtr@$$CBVConnection@DBus@Gio@@@Glib@@@std@@@std@@QEBA_KXZ
    ?_Buy_raw@?$vector@V?$RefPtr@$$CBVConnection@DBus@Gio@@@Glib@@V?$allocator@V?$RefPtr@$$CBVConnection@DBus@Gio@@@Glib@@@std@@@std@@AEAAX_K@Z
    ?_Buy_nonzero@?$vector@V?$RefPtr@$$CBVConnection@DBus@Gio@@@Glib@@V?$allocator@V?$RefPtr@$$CBVConnection@DBus@Gio@@@Glib@@@std@@@std@@AEAAX_K@Z
    ?_Tidy@?$vector@V?$RefPtr@$$CBVConnection@DBus@Gio@@@Glib@@V?$allocator@V?$RefPtr@$$CBVConnection@DBus@Gio@@@Glib@@@std@@@std@@AEAAXXZ
    ?_Xlength@?$vector@V?$RefPtr@$$CBVConnection@DBus@Gio@@@Glib@@V?$allocator@V?$RefPtr@$$CBVConnection@DBus@Gio@@@Glib@@@std@@@std@@CAXXZ
    ?_Getal@?$vector@V?$RefPtr@$$CBVConnection@DBus@Gio@@@Glib@@V?$allocator@V?$RefPtr@$$CBVConnection@DBus@Gio@@@Glib@@@std@@@std@@AEAAAEAV?$allocator@V?$RefPtr@$$CBVConnection@DBus@Gio@@@Glib@@@2@XZ
    ?_Getal@?$vector@V?$RefPtr@$$CBVConnection@DBus@Gio@@@Glib@@V?$allocator@V?$RefPtr@$$CBVConnection@DBus@Gio@@@Glib@@@std@@@std@@AEBAAEBV?$allocator@V?$RefPtr@$$CBVConnection@DBus@Gio@@@Glib@@@2@XZ
    ??0?$_Vector_val@U?$_Simple_types@V?$RefPtr@$$CBVConnection@DBus@Gio@@@Glib@@@std@@@std@@QEAA@XZ
    ?_Get_first@?$_Compressed_pair@V?$allocator@V?$RefPtr@$$CBVConnection@DBus@Gio@@@Glib@@@std@@V?$_Vector_val@U?$_Simple_types@V?$RefPtr@$$CBVConnection@DBus@Gio@@@Glib@@@std@@@2@$00@std@@QEAAAEAV?$allocator@V?$RefPtr@$$CBVConnection@DBus@Gio@@@Glib@@@2@XZ
    ?_Get_first@?$_Compressed_pair@V?$allocator@V?$RefPtr@$$CBVConnection@DBus@Gio@@@Glib@@@std@@V?$_Vector_val@U?$_Simple_types@V?$RefPtr@$$CBVConnection@DBus@Gio@@@Glib@@@std@@@2@$00@std@@QEBAAEBV?$allocator@V?$RefPtr@$$CBVConnection@DBus@Gio@@@Glib@@@2@XZ
    ?to_cpp_type@?$TypeTraits@V?$RefPtr@$$CBVConnection@DBus@Gio@@@Glib@@@Container_Helpers@Glib@@SA?AV?$RefPtr@$$CBVConnection@DBus@Gio@@@3@PEBU_GDBusConnection@@@Z
    ?release_c_type@?$TypeTraits@V?$RefPtr@$$CBVConnection@DBus@Gio@@@Glib@@@Container_Helpers@Glib@@SAXPEBU_GDBusConnection@@@Z
    ?list_to_vector@?$ListHandler@V?$RefPtr@$$CBVConnection@DBus@Gio@@@Glib@@U?$TypeTraits@V?$RefPtr@$$CBVConnection@DBus@Gio@@@Glib@@@Container_Helpers@2@@Glib@@SA?AV?$vector@V?$RefPtr@$$CBVConnection@DBus@Gio@@@Glib@@V?$allocator@V?$RefPtr@$$CBVConnection@DBus@Gio@@@Glib@@@std@@@std@@PEAU_GList@@W4OwnershipType@2@@Z
    ??$unwrap@VConnection@DBus@Gio@@@Glib@@YAPEBU_GDBusConnection@@AEBV?$RefPtr@$$CBVConnection@DBus@Gio@@@0@@Z
    ??0?$SignalProxy@_NAEBV?$RefPtr@VMethodInvocation@DBus@Gio@@@Glib@@@Glib@@QEAA@PEAVObjectBase@1@PEBUSignalProxyInfo@1@@Z
    ??1?$SignalProxy@_NAEBV?$RefPtr@VMethodInvocation@DBus@Gio@@@Glib@@@Glib@@QEAA@XZ
    ??0?$PropertyProxy@W4InterfaceSkeletonFlags@DBus@Gio@@@Glib@@QEAA@PEAVObjectBase@1@PEBD@Z
    ??0?$PropertyProxy_ReadOnly@W4InterfaceSkeletonFlags@DBus@Gio@@@Glib@@QEAA@PEBVObjectBase@1@PEBD@Z
    ??$unwrap@VMethodInvocation@DBus@Gio@@@Glib@@YAPEAU_GDBusMethodInvocation@@AEBV?$RefPtr@VMethodInvocation@DBus@Gio@@@0@@Z
    ??$min@_K@std@@YAAEB_KAEB_K0@Z
    ??0?$GListKeeper@U?$TypeTraits@V?$RefPtr@VConnection@DBus@Gio@@@Glib@@@Container_Helpers@Glib@@@Container_Helpers@Glib@@QEAA@PEBU_GList@@W4OwnershipType@2@@Z
    ??1?$GListKeeper@U?$TypeTraits@V?$RefPtr@VConnection@DBus@Gio@@@Glib@@@Container_Helpers@Glib@@@Container_Helpers@Glib@@QEAA@XZ
    ??0?$ListIterator@U?$TypeTraits@V?$RefPtr@VConnection@DBus@Gio@@@Glib@@@Container_Helpers@Glib@@@Container_Helpers@Glib@@QEAA@PEBU_GList@@@Z
    ??D?$ListIterator@U?$TypeTraits@V?$RefPtr@VConnection@DBus@Gio@@@Glib@@@Container_Helpers@Glib@@@Container_Helpers@Glib@@QEBA?AV?$RefPtr@VConnection@DBus@Gio@@@2@XZ
    ??E?$ListIterator@U?$TypeTraits@V?$RefPtr@VConnection@DBus@Gio@@@Glib@@@Container_Helpers@Glib@@@Container_Helpers@Glib@@QEAAAEAV012@XZ
    ??9?$ListIterator@U?$TypeTraits@V?$RefPtr@VConnection@DBus@Gio@@@Glib@@@Container_Helpers@Glib@@@Container_Helpers@Glib@@QEBA_NAEBV012@@Z
    ??$?0V?$ListIterator@U?$TypeTraits@V?$RefPtr@VConnection@DBus@Gio@@@Glib@@@Container_Helpers@Glib@@@Container_Helpers@Glib@@$0A@@?$vector@V?$RefPtr@VConnection@DBus@Gio@@@Glib@@V?$allocator@V?$RefPtr@VConnection@DBus@Gio@@@Glib@@@std@@@std@@QEAA@V?$ListIterator@U?$TypeTraits@V?$RefPtr@VConnection@DBus@Gio@@@Glib@@@Container_Helpers@Glib@@@Container_Helpers@Glib@@0AEBV?$allocator@V?$RefPtr@VConnection@DBus@Gio@@@Glib@@@1@@Z
    ??0?$GListKeeper@U?$TypeTraits@V?$RefPtr@$$CBVConnection@DBus@Gio@@@Glib@@@Container_Helpers@Glib@@@Container_Helpers@Glib@@QEAA@PEBU_GList@@W4OwnershipType@2@@Z
    ??1?$GListKeeper@U?$TypeTraits@V?$RefPtr@$$CBVConnection@DBus@Gio@@@Glib@@@Container_Helpers@Glib@@@Container_Helpers@Glib@@QEAA@XZ
    ??0?$ListIterator@U?$TypeTraits@V?$RefPtr@$$CBVConnection@DBus@Gio@@@Glib@@@Container_Helpers@Glib@@@Container_Helpers@Glib@@QEAA@PEBU_GList@@@Z
    ??D?$ListIterator@U?$TypeTraits@V?$RefPtr@$$CBVConnection@DBus@Gio@@@Glib@@@Container_Helpers@Glib@@@Container_Helpers@Glib@@QEBA?AV?$RefPtr@$$CBVConnection@DBus@Gio@@@2@XZ
    ??E?$ListIterator@U?$TypeTraits@V?$RefPtr@$$CBVConnection@DBus@Gio@@@Glib@@@Container_Helpers@Glib@@@Container_Helpers@Glib@@QEAAAEAV012@XZ
    ??9?$ListIterator@U?$TypeTraits@V?$RefPtr@$$CBVConnection@DBus@Gio@@@Glib@@@Container_Helpers@Glib@@@Container_Helpers@Glib@@QEBA_NAEBV012@@Z
    ??$?0V?$ListIterator@U?$TypeTraits@V?$RefPtr@$$CBVConnection@DBus@Gio@@@Glib@@@Container_Helpers@Glib@@@Container_Helpers@Glib@@$0A@@?$vector@V?$RefPtr@$$CBVConnection@DBus@Gio@@@Glib@@V?$allocator@V?$RefPtr@$$CBVConnection@DBus@Gio@@@Glib@@@std@@@std@@QEAA@V?$ListIterator@U?$TypeTraits@V?$RefPtr@$$CBVConnection@DBus@Gio@@@Glib@@@Container_Helpers@Glib@@@Container_Helpers@Glib@@0AEBV?$allocator@V?$RefPtr@$$CBVConnection@DBus@Gio@@@Glib@@@1@@Z
    ??$function_pointer_cast@P6AXPEAUslot_rep@internal@sigc@@AEBV?$RefPtr@VMethodInvocation@DBus@Gio@@@Glib@@@ZP6APEAXPEAX@Z@internal@sigc@@YAP6AXPEAUslot_rep@01@AEBV?$RefPtr@VMethodInvocation@DBus@Gio@@@Glib@@@ZP6APEAXPEAX@Z@Z
    ??$function_pointer_cast@P6A_NPEAUslot_rep@internal@sigc@@AEBV?$RefPtr@VMethodInvocation@DBus@Gio@@@Glib@@@ZP6APEAXPEAX@Z@internal@sigc@@YAP6A_NPEAUslot_rep@01@AEBV?$RefPtr@VMethodInvocation@DBus@Gio@@@Glib@@@ZP6APEAXPEAX@Z@Z
    ??$_Convert_size@_K_K@std@@YA_K_K@Z
    ??$?0AEBV?$allocator@V?$RefPtr@VConnection@DBus@Gio@@@Glib@@@std@@$$V@?$_Compressed_pair@V?$allocator@V?$RefPtr@VConnection@DBus@Gio@@@Glib@@@std@@V?$_Vector_val@U?$_Simple_types@V?$RefPtr@VConnection@DBus@Gio@@@Glib@@@std@@@2@$00@std@@QEAA@U_One_then_variadic_args_t@1@AEBV?$allocator@V?$RefPtr@VConnection@DBus@Gio@@@Glib@@@1@@Z
    ??$_Adl_verify_range@V?$ListIterator@U?$TypeTraits@V?$RefPtr@VConnection@DBus@Gio@@@Glib@@@Container_Helpers@Glib@@@Container_Helpers@Glib@@V123@@std@@YAXAEBV?$ListIterator@U?$TypeTraits@V?$RefPtr@VConnection@DBus@Gio@@@Glib@@@Container_Helpers@Glib@@@Container_Helpers@Glib@@0@Z
    ??$_Get_unwrapped@AEAV?$ListIterator@U?$TypeTraits@V?$RefPtr@VConnection@DBus@Gio@@@Glib@@@Container_Helpers@Glib@@@Container_Helpers@Glib@@@std@@YA?A_TAEAV?$ListIterator@U?$TypeTraits@V?$RefPtr@VConnection@DBus@Gio@@@Glib@@@Container_Helpers@Glib@@@Container_Helpers@Glib@@@Z
    ??$distance@V?$ListIterator@U?$TypeTraits@V?$RefPtr@VConnection@DBus@Gio@@@Glib@@@Container_Helpers@Glib@@@Container_Helpers@Glib@@@std@@YA_JV?$ListIterator@U?$TypeTraits@V?$RefPtr@VConnection@DBus@Gio@@@Glib@@@Container_Helpers@Glib@@@Container_Helpers@Glib@@0@Z
    ??$move@AEAV?$ListIterator@U?$TypeTraits@V?$RefPtr@VConnection@DBus@Gio@@@Glib@@@Container_Helpers@Glib@@@Container_Helpers@Glib@@@std@@YA$$QEAV?$ListIterator@U?$TypeTraits@V?$RefPtr@VConnection@DBus@Gio@@@Glib@@@Container_Helpers@Glib@@@Container_Helpers@Glib@@AEAV123@@Z
    ??$_Construct_n@V?$ListIterator@U?$TypeTraits@V?$RefPtr@VConnection@DBus@Gio@@@Glib@@@Container_Helpers@Glib@@@Container_Helpers@Glib@@V123@@?$vector@V?$RefPtr@VConnection@DBus@Gio@@@Glib@@V?$allocator@V?$RefPtr@VConnection@DBus@Gio@@@Glib@@@std@@@std@@AEAAX_K$$QEAV?$ListIterator@U?$TypeTraits@V?$RefPtr@VConnection@DBus@Gio@@@Glib@@@Container_Helpers@Glib@@@Container_Helpers@Glib@@1@Z
    ??$?0AEBV?$allocator@V?$RefPtr@$$CBVConnection@DBus@Gio@@@Glib@@@std@@$$V@?$_Compressed_pair@V?$allocator@V?$RefPtr@$$CBVConnection@DBus@Gio@@@Glib@@@std@@V?$_Vector_val@U?$_Simple_types@V?$RefPtr@$$CBVConnection@DBus@Gio@@@Glib@@@std@@@2@$00@std@@QEAA@U_One_then_variadic_args_t@1@AEBV?$allocator@V?$RefPtr@$$CBVConnection@DBus@Gio@@@Glib@@@1@@Z
    ??$_Adl_verify_range@V?$ListIterator@U?$TypeTraits@V?$RefPtr@$$CBVConnection@DBus@Gio@@@Glib@@@Container_Helpers@Glib@@@Container_Helpers@Glib@@V123@@std@@YAXAEBV?$ListIterator@U?$TypeTraits@V?$RefPtr@$$CBVConnection@DBus@Gio@@@Glib@@@Container_Helpers@Glib@@@Container_Helpers@Glib@@0@Z
    ??$_Get_unwrapped@AEAV?$ListIterator@U?$TypeTraits@V?$RefPtr@$$CBVConnection@DBus@Gio@@@Glib@@@Container_Helpers@Glib@@@Container_Helpers@Glib@@@std@@YA?A_TAEAV?$ListIterator@U?$TypeTraits@V?$RefPtr@$$CBVConnection@DBus@Gio@@@Glib@@@Container_Helpers@Glib@@@Container_Helpers@Glib@@@Z
    ??$distance@V?$ListIterator@U?$TypeTraits@V?$RefPtr@$$CBVConnection@DBus@Gio@@@Glib@@@Container_Helpers@Glib@@@Container_Helpers@Glib@@@std@@YA_JV?$ListIterator@U?$TypeTraits@V?$RefPtr@$$CBVConnection@DBus@Gio@@@Glib@@@Container_Helpers@Glib@@@Container_Helpers@Glib@@0@Z
    ??$move@AEAV?$ListIterator@U?$TypeTraits@V?$RefPtr@$$CBVConnection@DBus@Gio@@@Glib@@@Container_Helpers@Glib@@@Container_Helpers@Glib@@@std@@YA$$QEAV?$ListIterator@U?$TypeTraits@V?$RefPtr@$$CBVConnection@DBus@Gio@@@Glib@@@Container_Helpers@Glib@@@Container_Helpers@Glib@@AEAV123@@Z
    ??$_Construct_n@V?$ListIterator@U?$TypeTraits@V?$RefPtr@$$CBVConnection@DBus@Gio@@@Glib@@@Container_Helpers@Glib@@@Container_Helpers@Glib@@V123@@?$vector@V?$RefPtr@$$CBVConnection@DBus@Gio@@@Glib@@V?$allocator@V?$RefPtr@$$CBVConnection@DBus@Gio@@@Glib@@@std@@@std@@AEAAX_K$$QEAV?$ListIterator@U?$TypeTraits@V?$RefPtr@$$CBVConnection@DBus@Gio@@@Glib@@@Container_Helpers@Glib@@@Container_Helpers@Glib@@1@Z
    ??$_Destroy_range@V?$allocator@V?$RefPtr@$$CBVConnection@DBus@Gio@@@Glib@@@std@@@std@@YAXPEAV?$RefPtr@$$CBVConnection@DBus@Gio@@@Glib@@QEAV12@AEAV?$allocator@V?$RefPtr@$$CBVConnection@DBus@Gio@@@Glib@@@0@@Z
    ??$_Destroy_range@V?$allocator@V?$RefPtr@VConnection@DBus@Gio@@@Glib@@@std@@@std@@YAXPEAV?$RefPtr@VConnection@DBus@Gio@@@Glib@@QEAV12@AEAV?$allocator@V?$RefPtr@VConnection@DBus@Gio@@@Glib@@@0@@Z
    ??$_Deallocate@$0BA@@std@@YAXPEAX_K@Z
    ??$forward@AEBV?$allocator@V?$RefPtr@VConnection@DBus@Gio@@@Glib@@@std@@@std@@YAAEBV?$allocator@V?$RefPtr@VConnection@DBus@Gio@@@Glib@@@0@AEBV10@@Z
    ??1?$_Tidy_guard@V?$vector@V?$RefPtr@VConnection@DBus@Gio@@@Glib@@V?$allocator@V?$RefPtr@VConnection@DBus@Gio@@@Glib@@@std@@@std@@@std@@QEAA@XZ
    ??$forward@V?$ListIterator@U?$TypeTraits@V?$RefPtr@VConnection@DBus@Gio@@@Glib@@@Container_Helpers@Glib@@@Container_Helpers@Glib@@@std@@YA$$QEAV?$ListIterator@U?$TypeTraits@V?$RefPtr@VConnection@DBus@Gio@@@Glib@@@Container_Helpers@Glib@@@Container_Helpers@Glib@@AEAV123@@Z
    ??$_Uninitialized_copy@V?$ListIterator@U?$TypeTraits@V?$RefPtr@VConnection@DBus@Gio@@@Glib@@@Container_Helpers@Glib@@@Container_Helpers@Glib@@V123@V?$allocator@V?$RefPtr@VConnection@DBus@Gio@@@Glib@@@std@@@std@@YAPEAV?$RefPtr@VConnection@DBus@Gio@@@Glib@@V?$ListIterator@U?$TypeTraits@V?$RefPtr@VConnection@DBus@Gio@@@Glib@@@Container_Helpers@Glib@@@Container_Helpers@2@0PEAV12@AEAV?$allocator@V?$RefPtr@VConnection@DBus@Gio@@@Glib@@@0@@Z
    ??$forward@AEBV?$allocator@V?$RefPtr@$$CBVConnection@DBus@Gio@@@Glib@@@std@@@std@@YAAEBV?$allocator@V?$RefPtr@$$CBVConnection@DBus@Gio@@@Glib@@@0@AEBV10@@Z
    ??1?$_Tidy_guard@V?$vector@V?$RefPtr@$$CBVConnection@DBus@Gio@@@Glib@@V?$allocator@V?$RefPtr@$$CBVConnection@DBus@Gio@@@Glib@@@std@@@std@@@std@@QEAA@XZ
    ??$forward@V?$ListIterator@U?$TypeTraits@V?$RefPtr@$$CBVConnection@DBus@Gio@@@Glib@@@Container_Helpers@Glib@@@Container_Helpers@Glib@@@std@@YA$$QEAV?$ListIterator@U?$TypeTraits@V?$RefPtr@$$CBVConnection@DBus@Gio@@@Glib@@@Container_Helpers@Glib@@@Container_Helpers@Glib@@AEAV123@@Z
    ??$_Uninitialized_copy@V?$ListIterator@U?$TypeTraits@V?$RefPtr@$$CBVConnection@DBus@Gio@@@Glib@@@Container_Helpers@Glib@@@Container_Helpers@Glib@@V123@V?$allocator@V?$RefPtr@$$CBVConnection@DBus@Gio@@@Glib@@@std@@@std@@YAPEAV?$RefPtr@$$CBVConnection@DBus@Gio@@@Glib@@V?$ListIterator@U?$TypeTraits@V?$RefPtr@$$CBVConnection@DBus@Gio@@@Glib@@@Container_Helpers@Glib@@@Container_Helpers@2@0PEAV12@AEAV?$allocator@V?$RefPtr@$$CBVConnection@DBus@Gio@@@Glib@@@0@@Z
    ??$_Unfancy@V?$RefPtr@$$CBVConnection@DBus@Gio@@@Glib@@@std@@YAPEAV?$RefPtr@$$CBVConnection@DBus@Gio@@@Glib@@PEAV12@@Z
    ??$destroy@V?$RefPtr@$$CBVConnection@DBus@Gio@@@Glib@@@?$_Default_allocator_traits@V?$allocator@V?$RefPtr@$$CBVConnection@DBus@Gio@@@Glib@@@std@@@std@@SAXAEAV?$allocator@V?$RefPtr@$$CBVConnection@DBus@Gio@@@Glib@@@1@QEAV?$RefPtr@$$CBVConnection@DBus@Gio@@@Glib@@@Z
    ??$_Unfancy@V?$RefPtr@VConnection@DBus@Gio@@@Glib@@@std@@YAPEAV?$RefPtr@VConnection@DBus@Gio@@@Glib@@PEAV12@@Z
    ??$destroy@V?$RefPtr@VConnection@DBus@Gio@@@Glib@@@?$_Default_allocator_traits@V?$allocator@V?$RefPtr@VConnection@DBus@Gio@@@Glib@@@std@@@std@@SAXAEAV?$allocator@V?$RefPtr@VConnection@DBus@Gio@@@Glib@@@1@QEAV?$RefPtr@VConnection@DBus@Gio@@@Glib@@@Z
    ??$_Allocate@$0BA@U_Default_allocate_traits@std@@@std@@YAPEAX_K@Z
    ??$_Max_limit@_J@std@@YA_JXZ
    ??$_Get_unwrapped@V?$ListIterator@U?$TypeTraits@V?$RefPtr@VConnection@DBus@Gio@@@Glib@@@Container_Helpers@Glib@@@Container_Helpers@Glib@@@std@@YA?A_T$$QEAV?$ListIterator@U?$TypeTraits@V?$RefPtr@VConnection@DBus@Gio@@@Glib@@@Container_Helpers@Glib@@@Container_Helpers@Glib@@@Z
    ??0?$_Uninitialized_backout_al@V?$allocator@V?$RefPtr@VConnection@DBus@Gio@@@Glib@@@std@@@std@@QEAA@PEAV?$RefPtr@VConnection@DBus@Gio@@@Glib@@AEAV?$allocator@V?$RefPtr@VConnection@DBus@Gio@@@Glib@@@1@@Z
    ??1?$_Uninitialized_backout_al@V?$allocator@V?$RefPtr@VConnection@DBus@Gio@@@Glib@@@std@@@std@@QEAA@XZ
    ?_Release@?$_Uninitialized_backout_al@V?$allocator@V?$RefPtr@VConnection@DBus@Gio@@@Glib@@@std@@@std@@QEAAPEAV?$RefPtr@VConnection@DBus@Gio@@@Glib@@XZ
    ??$_Emplace_back@V?$RefPtr@VConnection@DBus@Gio@@@Glib@@@?$_Uninitialized_backout_al@V?$allocator@V?$RefPtr@VConnection@DBus@Gio@@@Glib@@@std@@@std@@QEAAX$$QEAV?$RefPtr@VConnection@DBus@Gio@@@Glib@@@Z
    ??$_Get_unwrapped@V?$ListIterator@U?$TypeTraits@V?$RefPtr@$$CBVConnection@DBus@Gio@@@Glib@@@Container_Helpers@Glib@@@Container_Helpers@Glib@@@std@@YA?A_T$$QEAV?$ListIterator@U?$TypeTraits@V?$RefPtr@$$CBVConnection@DBus@Gio@@@Glib@@@Container_Helpers@Glib@@@Container_Helpers@Glib@@@Z
    ??0?$_Uninitialized_backout_al@V?$allocator@V?$RefPtr@$$CBVConnection@DBus@Gio@@@Glib@@@std@@@std@@QEAA@PEAV?$RefPtr@$$CBVConnection@DBus@Gio@@@Glib@@AEAV?$allocator@V?$RefPtr@$$CBVConnection@DBus@Gio@@@Glib@@@1@@Z
    ??1?$_Uninitialized_backout_al@V?$allocator@V?$RefPtr@$$CBVConnection@DBus@Gio@@@Glib@@@std@@@std@@QEAA@XZ
    ?_Release@?$_Uninitialized_backout_al@V?$allocator@V?$RefPtr@$$CBVConnection@DBus@Gio@@@Glib@@@std@@@std@@QEAAPEAV?$RefPtr@$$CBVConnection@DBus@Gio@@@Glib@@XZ
    ??$_Emplace_back@V?$RefPtr@$$CBVConnection@DBus@Gio@@@Glib@@@?$_Uninitialized_backout_al@V?$allocator@V?$RefPtr@$$CBVConnection@DBus@Gio@@@Glib@@@std@@@std@@QEAAX$$QEAV?$RefPtr@$$CBVConnection@DBus@Gio@@@Glib@@@Z
    ??$_Allocate_manually_vector_aligned@U_Default_allocate_traits@std@@@std@@YAPEAX_K@Z
    ??$forward@V?$RefPtr@VConnection@DBus@Gio@@@Glib@@@std@@YA$$QEAV?$RefPtr@VConnection@DBus@Gio@@@Glib@@AEAV12@@Z
    ??$construct@V?$RefPtr@VConnection@DBus@Gio@@@Glib@@V12@@?$_Default_allocator_traits@V?$allocator@V?$RefPtr@VConnection@DBus@Gio@@@Glib@@@std@@@std@@SAXAEAV?$allocator@V?$RefPtr@VConnection@DBus@Gio@@@Glib@@@1@QEAV?$RefPtr@VConnection@DBus@Gio@@@Glib@@$$QEAV34@@Z
    ??$forward@V?$RefPtr@$$CBVConnection@DBus@Gio@@@Glib@@@std@@YA$$QEAV?$RefPtr@$$CBVConnection@DBus@Gio@@@Glib@@AEAV12@@Z
    ??$construct@V?$RefPtr@$$CBVConnection@DBus@Gio@@@Glib@@V12@@?$_Default_allocator_traits@V?$allocator@V?$RefPtr@$$CBVConnection@DBus@Gio@@@Glib@@@std@@@std@@SAXAEAV?$allocator@V?$RefPtr@$$CBVConnection@DBus@Gio@@@Glib@@@1@QEAV?$RefPtr@$$CBVConnection@DBus@Gio@@@Glib@@$$QEAV34@@Z
    ??$_Allocate_at_least_helper@V?$allocator@V?$RefPtr@$$CBVConnection@DBus@Gio@@@Glib@@@std@@@std@@YAPEAV?$RefPtr@$$CBVConnection@DBus@Gio@@@Glib@@AEAV?$allocator@V?$RefPtr@$$CBVConnection@DBus@Gio@@@Glib@@@0@AEA_K@Z
    ??$_Allocate_at_least_helper@V?$allocator@V?$RefPtr@VConnection@DBus@Gio@@@Glib@@@std@@@std@@YAPEAV?$RefPtr@VConnection@DBus@Gio@@@Glib@@AEAV?$allocator@V?$RefPtr@VConnection@DBus@Gio@@@Glib@@@0@AEA_K@Z
    ??$_Get_size_of_n@$07@std@@YA_K_K@Z
    ??_7exception@std@@6B@
    ??_C@_0BC@EOODALEL@Unknown?5exception@
    ??_7bad_alloc@std@@6B@
    ??_7bad_array_new_length@std@@6B@
    ??_C@_0BF@KINCDENJ@bad?5array?5new?5length@
    ??_R0?AVexception@std@@@8
    _CT??_R0?AVexception@std@@@8??0exception@std@@QEAA@AEBV01@@Z24
    _TI3?AVbad_array_new_length@std@@
    _CTA3?AVbad_array_new_length@std@@
    ??_R0?AVbad_array_new_length@std@@@8
    _CT??_R0?AVbad_array_new_length@std@@@8??0bad_array_new_length@std@@QEAA@AEBV01@@Z24
    ??_R0?AVbad_alloc@std@@@8
    _CT??_R0?AVbad_alloc@std@@@8??0bad_alloc@std@@QEAA@AEBV01@@Z24
    ??_7InterfaceSkeleton@DBus@Gio@@6BInterface@12@@
    ??_7InterfaceSkeleton@DBus@Gio@@6B@
    ??_8InterfaceSkeleton@DBus@Gio@@7BObject@Glib@@@
    ??_8InterfaceSkeleton@DBus@Gio@@7BInterface@Glib@@@
    ??_8InterfaceSkeleton@DBus@Gio@@7BObjectBase@Glib@@@
    ??_R0?AVObjectBase@Glib@@@8
    ??_R0?AVInterfaceSkeleton@DBus@Gio@@@8
    ??_C@_07KGOGMAJF@g?9flags@
    ??_C@_0BA@FOIKENOD@vector?5too?5long@
    ??_R0?AVConnection@DBus@Gio@@@8
    ??_R4exception@std@@6B@
    ??_R3exception@std@@8
    ??_R2exception@std@@8
    ??_R1A@?0A@EA@exception@std@@8
    ??_R4bad_array_new_length@std@@6B@
    ??_R3bad_array_new_length@std@@8
    ??_R2bad_array_new_length@std@@8
    ??_R1A@?0A@EA@bad_array_new_length@std@@8
    ??_R1A@?0A@EA@bad_alloc@std@@8
    ??_R3bad_alloc@std@@8
    ??_R2bad_alloc@std@@8
    ??_R4bad_alloc@std@@6B@
    ??_R4InterfaceSkeleton@DBus@Gio@@6BInterface@12@@
    ??_R3InterfaceSkeleton@DBus@Gio@@8
    ??_R2InterfaceSkeleton@DBus@Gio@@8
    ??_R1A@?0A@EA@InterfaceSkeleton@DBus@Gio@@8
    ??_R1BA@?0A@EA@Object@Glib@@8
    ??_R0?AVObject@Glib@@@8
    ??_R3Object@Glib@@8
    ??_R2Object@Glib@@8
    ??_R1A@?0A@EA@Object@Glib@@8
    ??_R1A@A@7FA@ObjectBase@Glib@@8
    ??_R3ObjectBase@Glib@@8
    ??_R2ObjectBase@Glib@@8
    ??_R1A@?0A@EA@ObjectBase@Glib@@8
    ??_R1A@73FA@trackable@sigc@@8
    ??_R0?AUtrackable@sigc@@@8
    ??_R3trackable@sigc@@8
    ??_R2trackable@sigc@@8
    ??_R1A@?0A@EA@trackable@sigc@@8
    ??_R1A@A@3FA@trackable@sigc@@8
    ??_R1A@BA@7FA@ObjectBase@Glib@@8
    ??_R1A@BA@3FA@trackable@sigc@@8
    ??_R1A@?0A@EA@Interface@DBus@Gio@@8
    ??_R0?AVInterface@DBus@Gio@@@8
    ??_R3Interface@DBus@Gio@@8
    ??_R2Interface@DBus@Gio@@8
    ??_R17?0A@EA@Interface@Glib@@8
    ??_R0?AVInterface@Glib@@@8
    ??_R3Interface@Glib@@8
    ??_R2Interface@Glib@@8
    ??_R1A@?0A@EA@Interface@Glib@@8
    ??_R1A@77FA@ObjectBase@Glib@@8
    ??_R4InterfaceSkeleton@DBus@Gio@@6B@
    ?__empty_global_delete@@YAXPEAX@Z
    ?__empty_global_delete@@YAXPEAX_K@Z
    ??1VariantContainerBase@Glib@@QEAA@XZ
    ??0InterfaceVTable@DBus@Gio@@QEAA@AEBV?$slot@XAEBV?$RefPtr@VConnection@DBus@Gio@@@Glib@@AEBVustring@2@AEBV32@AEBV32@AEBV32@AEBVVariantContainerBase@2@AEBV?$RefPtr@VMethodInvocation@DBus@Gio@@@2@@sigc@@AEBV?$slot@XAEAVVariantBase@Glib@@AEBV?$RefPtr@VConnection@DBus@Gio@@@2@AEBVustring@2@AEBV42@AEBV42@AEBV42@Unil@sigc@@@4@AEBV?$slot@_NAEBV?$RefPtr@VConnection@DBus@Gio@@@Glib@@AEBVustring@2@AEBV32@AEBV32@AEBV32@AEBVVariantBase@2@Unil@sigc@@@4@@Z
    ??0InterfaceVTable@DBus@Gio@@QEAA@$$QEAV012@@Z
    ??4InterfaceVTable@DBus@Gio@@QEAAAEAV012@$$QEAV012@@Z
    ??1InterfaceVTable@DBus@Gio@@UEAA@XZ
    ?get_slot_method_call@InterfaceVTable@DBus@Gio@@QEBAPEAV?$slot@XAEBV?$RefPtr@VConnection@DBus@Gio@@@Glib@@AEBVustring@2@AEBV32@AEBV32@AEBV32@AEBVVariantContainerBase@2@AEBV?$RefPtr@VMethodInvocation@DBus@Gio@@@2@@sigc@@XZ
    ?get_slot_get_property@InterfaceVTable@DBus@Gio@@QEBAPEAV?$slot@XAEAVVariantBase@Glib@@AEBV?$RefPtr@VConnection@DBus@Gio@@@2@AEBVustring@2@AEBV42@AEBV42@AEBV42@Unil@sigc@@@sigc@@XZ
    ?get_slot_set_property@InterfaceVTable@DBus@Gio@@QEBAPEAV?$slot@_NAEBV?$RefPtr@VConnection@DBus@Gio@@@Glib@@AEBVustring@2@AEBV32@AEBV32@AEBV32@AEBVVariantBase@2@Unil@sigc@@@sigc@@XZ
    ??R?$slot6@_NAEBV?$RefPtr@VConnection@DBus@Gio@@@Glib@@AEBVustring@2@AEBV32@AEBV32@AEBV32@AEBVVariantBase@2@@sigc@@QEBA_NAEBV?$RefPtr@VConnection@DBus@Gio@@@Glib@@AEBVustring@3@111AEBVVariantBase@3@@Z
    ??0?$slot6@_NAEBV?$RefPtr@VConnection@DBus@Gio@@@Glib@@AEBVustring@2@AEBV32@AEBV32@AEBV32@AEBVVariantBase@2@@sigc@@QEAA@AEBV01@@Z
    ??1?$slot6@_NAEBV?$RefPtr@VConnection@DBus@Gio@@@Glib@@AEBVustring@2@AEBV32@AEBV32@AEBV32@AEBVVariantBase@2@@sigc@@QEAA@XZ
    ??0?$slot@_NAEBV?$RefPtr@VConnection@DBus@Gio@@@Glib@@AEBVustring@2@AEBV32@AEBV32@AEBV32@AEBVVariantBase@2@Unil@sigc@@@sigc@@QEAA@AEBV01@@Z
    ??1?$slot@_NAEBV?$RefPtr@VConnection@DBus@Gio@@@Glib@@AEBVustring@2@AEBV32@AEBV32@AEBV32@AEBVVariantBase@2@Unil@sigc@@@sigc@@QEAA@XZ
    ??R?$slot6@XAEAVVariantBase@Glib@@AEBV?$RefPtr@VConnection@DBus@Gio@@@2@AEBVustring@2@AEBV42@AEBV42@AEBV42@@sigc@@QEBAXAEAVVariantBase@Glib@@AEBV?$RefPtr@VConnection@DBus@Gio@@@3@AEBVustring@3@222@Z
    ??0?$slot6@XAEAVVariantBase@Glib@@AEBV?$RefPtr@VConnection@DBus@Gio@@@2@AEBVustring@2@AEBV42@AEBV42@AEBV42@@sigc@@QEAA@AEBV01@@Z
    ??1?$slot6@XAEAVVariantBase@Glib@@AEBV?$RefPtr@VConnection@DBus@Gio@@@2@AEBVustring@2@AEBV42@AEBV42@AEBV42@@sigc@@QEAA@XZ
    ??0?$slot@XAEAVVariantBase@Glib@@AEBV?$RefPtr@VConnection@DBus@Gio@@@2@AEBVustring@2@AEBV42@AEBV42@AEBV42@Unil@sigc@@@sigc@@QEAA@AEBV01@@Z
    ??1?$slot@XAEAVVariantBase@Glib@@AEBV?$RefPtr@VConnection@DBus@Gio@@@2@AEBVustring@2@AEBV42@AEBV42@AEBV42@Unil@sigc@@@sigc@@QEAA@XZ
    ??1?$RefPtr@VConnection@DBus@Gio@@@Glib@@QEAA@XZ
    ??1?$RefPtr@VMethodInvocation@DBus@Gio@@@Glib@@QEAA@XZ
    ??R?$slot7@XAEBV?$RefPtr@VConnection@DBus@Gio@@@Glib@@AEBVustring@2@AEBV32@AEBV32@AEBV32@AEBVVariantContainerBase@2@AEBV?$RefPtr@VMethodInvocation@DBus@Gio@@@2@@sigc@@QEBAXAEBV?$RefPtr@VConnection@DBus@Gio@@@Glib@@AEBVustring@3@111AEBVVariantContainerBase@3@AEBV?$RefPtr@VMethodInvocation@DBus@Gio@@@3@@Z
    ??0?$slot7@XAEBV?$RefPtr@VConnection@DBus@Gio@@@Glib@@AEBVustring@2@AEBV32@AEBV32@AEBV32@AEBVVariantContainerBase@2@AEBV?$RefPtr@VMethodInvocation@DBus@Gio@@@2@@sigc@@QEAA@AEBV01@@Z
    ??1?$slot7@XAEBV?$RefPtr@VConnection@DBus@Gio@@@Glib@@AEBVustring@2@AEBV32@AEBV32@AEBV32@AEBVVariantContainerBase@2@AEBV?$RefPtr@VMethodInvocation@DBus@Gio@@@2@@sigc@@QEAA@XZ
    ??0?$slot@XAEBV?$RefPtr@VConnection@DBus@Gio@@@Glib@@AEBVustring@2@AEBV32@AEBV32@AEBV32@AEBVVariantContainerBase@2@AEBV?$RefPtr@VMethodInvocation@DBus@Gio@@@2@@sigc@@QEAA@AEBV01@@Z
    ??1?$slot@XAEBV?$RefPtr@VConnection@DBus@Gio@@@Glib@@AEBVustring@2@AEBV32@AEBV32@AEBV32@AEBVVariantContainerBase@2@AEBV?$RefPtr@VMethodInvocation@DBus@Gio@@@2@@sigc@@QEAA@XZ
    ??$move@AEAU_GDBusInterfaceVTable@@@std@@YA$$QEAU_GDBusInterfaceVTable@@AEAU1@@Z
    ??$move@AEAPEAV?$slot@XAEBV?$RefPtr@VConnection@DBus@Gio@@@Glib@@AEBVustring@2@AEBV32@AEBV32@AEBV32@AEBVVariantContainerBase@2@AEBV?$RefPtr@VMethodInvocation@DBus@Gio@@@2@@sigc@@@std@@YA$$QEAPEAV?$slot@XAEBV?$RefPtr@VConnection@DBus@Gio@@@Glib@@AEBVustring@2@AEBV32@AEBV32@AEBV32@AEBVVariantContainerBase@2@AEBV?$RefPtr@VMethodInvocation@DBus@Gio@@@2@@sigc@@AEAPEAV12@@Z
    ??$move@AEAPEAV?$slot@XAEAVVariantBase@Glib@@AEBV?$RefPtr@VConnection@DBus@Gio@@@2@AEBVustring@2@AEBV42@AEBV42@AEBV42@Unil@sigc@@@sigc@@@std@@YA$$QEAPEAV?$slot@XAEAVVariantBase@Glib@@AEBV?$RefPtr@VConnection@DBus@Gio@@@2@AEBVustring@2@AEBV42@AEBV42@AEBV42@Unil@sigc@@@sigc@@AEAPEAV12@@Z
    ??$move@AEAPEAV?$slot@_NAEBV?$RefPtr@VConnection@DBus@Gio@@@Glib@@AEBVustring@2@AEBV32@AEBV32@AEBV32@AEBVVariantBase@2@Unil@sigc@@@sigc@@@std@@YA$$QEAPEAV?$slot@_NAEBV?$RefPtr@VConnection@DBus@Gio@@@Glib@@AEBVustring@2@AEBV32@AEBV32@AEBV32@AEBVVariantBase@2@Unil@sigc@@@sigc@@AEAPEAV12@@Z
    ??$function_pointer_cast@P6AXPEAUslot_rep@internal@sigc@@AEBV?$RefPtr@VConnection@DBus@Gio@@@Glib@@AEBVustring@5@222AEBVVariantContainerBase@5@AEBV?$RefPtr@VMethodInvocation@DBus@Gio@@@5@@ZP6APEAXPEAX@Z@internal@sigc@@YAP6AXPEAUslot_rep@01@AEBV?$RefPtr@VConnection@DBus@Gio@@@Glib@@AEBVustring@4@222AEBVVariantContainerBase@4@AEBV?$RefPtr@VMethodInvocation@DBus@Gio@@@4@@ZP6APEAXPEAX@Z@Z
    ??$function_pointer_cast@P6AXPEAUslot_rep@internal@sigc@@AEAVVariantBase@Glib@@AEBV?$RefPtr@VConnection@DBus@Gio@@@5@AEBVustring@5@333@ZP6APEAXPEAX@Z@internal@sigc@@YAP6AXPEAUslot_rep@01@AEAVVariantBase@Glib@@AEBV?$RefPtr@VConnection@DBus@Gio@@@4@AEBVustring@4@333@ZP6APEAXPEAX@Z@Z
    ??$function_pointer_cast@P6A_NPEAUslot_rep@internal@sigc@@AEBV?$RefPtr@VConnection@DBus@Gio@@@Glib@@AEBVustring@5@222AEBVVariantBase@5@@ZP6APEAXPEAX@Z@internal@sigc@@YAP6A_NPEAUslot_rep@01@AEBV?$RefPtr@VConnection@DBus@Gio@@@Glib@@AEBVustring@4@222AEBVVariantBase@4@@ZP6APEAXPEAX@Z@Z
    ??_C@_00CNPNBAHC@@
    ??_7InterfaceVTable@DBus@Gio@@6B@
    ??_R0?AVError@Glib@@@8
    ??_R4InterfaceVTable@DBus@Gio@@6B@
    ??_R0?AVInterfaceVTable@DBus@Gio@@@8
    ??_R3InterfaceVTable@DBus@Gio@@8
    ??_R2InterfaceVTable@DBus@Gio@@8
    ??_R1A@?0A@EA@InterfaceVTable@DBus@Gio@@8
    ?__empty_global_delete@@YAXPEAX@Z
    ?__empty_global_delete@@YAXPEAX_K@Z
    ?convert_const_gchar_ptr_to_ustring@Glib@@YA?AVustring@1@PEBD@Z
    ?reference@AnnotationInfo@DBus@Gio@@QEBAXXZ
    ?unreference@AnnotationInfo@DBus@Gio@@QEBAXXZ
    ?gobj@AnnotationInfo@DBus@Gio@@QEAAPEAU_GDBusAnnotationInfo@@XZ
    ?gobj@AnnotationInfo@DBus@Gio@@QEBAPEBU_GDBusAnnotationInfo@@XZ
    ?gobj_copy@AnnotationInfo@DBus@Gio@@QEBAPEAU_GDBusAnnotationInfo@@XZ
    ?info_lookup@AnnotationInfo@DBus@Gio@@SA?AVustring@Glib@@AEBV?$ArrayHandle@V?$RefPtr@VAnnotationInfo@DBus@Gio@@@Glib@@U?$TypeTraits@V?$RefPtr@VAnnotationInfo@DBus@Gio@@@Glib@@@Container_Helpers@2@@5@AEBV45@@Z
    ?reference@ArgInfo@DBus@Gio@@QEBAXXZ
    ?unreference@ArgInfo@DBus@Gio@@QEBAXXZ
    ?gobj@ArgInfo@DBus@Gio@@QEAAPEAU_GDBusArgInfo@@XZ
    ?gobj@ArgInfo@DBus@Gio@@QEBAPEBU_GDBusArgInfo@@XZ
    ?gobj_copy@ArgInfo@DBus@Gio@@QEBAPEAU_GDBusArgInfo@@XZ
    ?reference@MethodInfo@DBus@Gio@@QEBAXXZ
    ?unreference@MethodInfo@DBus@Gio@@QEBAXXZ
    ?gobj@MethodInfo@DBus@Gio@@QEAAPEAU_GDBusMethodInfo@@XZ
    ?gobj@MethodInfo@DBus@Gio@@QEBAPEBU_GDBusMethodInfo@@XZ
    ?gobj_copy@MethodInfo@DBus@Gio@@QEBAPEAU_GDBusMethodInfo@@XZ
    ?reference@SignalInfo@DBus@Gio@@QEBAXXZ
    ?unreference@SignalInfo@DBus@Gio@@QEBAXXZ
    ?gobj@SignalInfo@DBus@Gio@@QEAAPEAU_GDBusSignalInfo@@XZ
    ?gobj@SignalInfo@DBus@Gio@@QEBAPEBU_GDBusSignalInfo@@XZ
    ?gobj_copy@SignalInfo@DBus@Gio@@QEBAPEAU_GDBusSignalInfo@@XZ
    ?reference@PropertyInfo@DBus@Gio@@QEBAXXZ
    ?unreference@PropertyInfo@DBus@Gio@@QEBAXXZ
    ?gobj@PropertyInfo@DBus@Gio@@QEAAPEAU_GDBusPropertyInfo@@XZ
    ?gobj@PropertyInfo@DBus@Gio@@QEBAPEBU_GDBusPropertyInfo@@XZ
    ?gobj_copy@PropertyInfo@DBus@Gio@@QEBAPEAU_GDBusPropertyInfo@@XZ
    ?get_type@InterfaceInfo@DBus@Gio@@SA_KXZ
    ?reference@InterfaceInfo@DBus@Gio@@QEBAXXZ
    ?unreference@InterfaceInfo@DBus@Gio@@QEBAXXZ
    ?gobj@InterfaceInfo@DBus@Gio@@QEAAPEAU_GDBusInterfaceInfo@@XZ
    ?gobj@InterfaceInfo@DBus@Gio@@QEBAPEBU_GDBusInterfaceInfo@@XZ
    ?gobj_copy@InterfaceInfo@DBus@Gio@@QEBAPEAU_GDBusInterfaceInfo@@XZ
    ?lookup_method@InterfaceInfo@DBus@Gio@@QEAA?AV?$RefPtr@VMethodInfo@DBus@Gio@@@Glib@@AEBVustring@5@@Z
    ?lookup_method@InterfaceInfo@DBus@Gio@@QEBA?AV?$RefPtr@$$CBVMethodInfo@DBus@Gio@@@Glib@@AEBVustring@5@@Z
    ?lookup_signal@InterfaceInfo@DBus@Gio@@QEAA?AV?$RefPtr@VSignalInfo@DBus@Gio@@@Glib@@AEBVustring@5@@Z
    ?lookup_signal@InterfaceInfo@DBus@Gio@@QEBA?AV?$RefPtr@$$CBVSignalInfo@DBus@Gio@@@Glib@@AEBVustring@5@@Z
    ?lookup_property@InterfaceInfo@DBus@Gio@@QEAA?AV?$RefPtr@VPropertyInfo@DBus@Gio@@@Glib@@AEBVustring@5@@Z
    ?lookup_property@InterfaceInfo@DBus@Gio@@QEBA?AV?$RefPtr@$$CBVPropertyInfo@DBus@Gio@@@Glib@@AEBVustring@5@@Z
    ?cache_build@InterfaceInfo@DBus@Gio@@QEAAXXZ
    ?cache_release@InterfaceInfo@DBus@Gio@@QEAAXXZ
    ?reference@NodeInfo@DBus@Gio@@QEBAXXZ
    ?unreference@NodeInfo@DBus@Gio@@QEBAXXZ
    ?gobj@NodeInfo@DBus@Gio@@QEAAPEAU_GDBusNodeInfo@@XZ
    ?gobj@NodeInfo@DBus@Gio@@QEBAPEBU_GDBusNodeInfo@@XZ
    ?gobj_copy@NodeInfo@DBus@Gio@@QEBAPEAU_GDBusNodeInfo@@XZ
    ?create_for_xml@NodeInfo@DBus@Gio@@SA?AV?$RefPtr@VNodeInfo@DBus@Gio@@@Glib@@AEBVustring@5@@Z
    ?lookup_interface@NodeInfo@DBus@Gio@@QEAA?AV?$RefPtr@VInterfaceInfo@DBus@Gio@@@Glib@@AEBVustring@5@@Z
    ?lookup_interface@NodeInfo@DBus@Gio@@QEBA?AV?$RefPtr@$$CBVInterfaceInfo@DBus@Gio@@@Glib@@AEBVustring@5@@Z
    ?lookup_interface@NodeInfo@DBus@Gio@@QEAA?AV?$RefPtr@VInterfaceInfo@DBus@Gio@@@Glib@@XZ
    ?lookup_interface@NodeInfo@DBus@Gio@@QEBA?AV?$RefPtr@$$CBVInterfaceInfo@DBus@Gio@@@Glib@@XZ
    ?wrap@Glib@@YA?AV?$RefPtr@VAnnotationInfo@DBus@Gio@@@1@PEAU_GDBusAnnotationInfo@@_N@Z
    ?wrap@Glib@@YA?AV?$RefPtr@VArgInfo@DBus@Gio@@@1@PEAU_GDBusArgInfo@@_N@Z
    ?wrap@Glib@@YA?AV?$RefPtr@VMethodInfo@DBus@Gio@@@1@PEAU_GDBusMethodInfo@@_N@Z
    ?wrap@Glib@@YA?AV?$RefPtr@VSignalInfo@DBus@Gio@@@1@PEAU_GDBusSignalInfo@@_N@Z
    ?wrap@Glib@@YA?AV?$RefPtr@VPropertyInfo@DBus@Gio@@@1@PEAU_GDBusPropertyInfo@@_N@Z
    ?wrap@Glib@@YA?AV?$RefPtr@VInterfaceInfo@DBus@Gio@@@1@PEAU_GDBusInterfaceInfo@@_N@Z
    ??0?$RefPtr@VInterfaceInfo@DBus@Gio@@@Glib@@QEAA@XZ
    ??1?$RefPtr@VInterfaceInfo@DBus@Gio@@@Glib@@QEAA@XZ
    ??0?$RefPtr@VInterfaceInfo@DBus@Gio@@@Glib@@QEAA@PEAVInterfaceInfo@DBus@Gio@@@Z
    ??0?$RefPtr@VInterfaceInfo@DBus@Gio@@@Glib@@QEAA@$$QEAV01@@Z
    ?swap@?$RefPtr@VInterfaceInfo@DBus@Gio@@@Glib@@QEAAXAEAV12@@Z
    ??4?$RefPtr@VInterfaceInfo@DBus@Gio@@@Glib@@QEAAAEAV01@$$QEAV01@@Z
    ??C?$RefPtr@VInterfaceInfo@DBus@Gio@@@Glib@@QEBAPEAVInterfaceInfo@DBus@Gio@@XZ
    ??B?$RefPtr@VInterfaceInfo@DBus@Gio@@@Glib@@QEBA_NXZ
    ?release@?$RefPtr@VInterfaceInfo@DBus@Gio@@@Glib@@QEAAPEAVInterfaceInfo@DBus@Gio@@XZ
    ?wrap@Glib@@YA?AV?$RefPtr@VNodeInfo@DBus@Gio@@@1@PEAU_GDBusNodeInfo@@_N@Z
    ??1?$RefPtr@$$CBVInterfaceInfo@DBus@Gio@@@Glib@@QEAA@XZ
    ??$?0VInterfaceInfo@DBus@Gio@@@?$RefPtr@$$CBVInterfaceInfo@DBus@Gio@@@Glib@@QEAA@$$QEAV?$RefPtr@VInterfaceInfo@DBus@Gio@@@1@@Z
    ??1?$RefPtr@VAnnotationInfo@DBus@Gio@@@Glib@@QEAA@XZ
    ??0?$RefPtr@VAnnotationInfo@DBus@Gio@@@Glib@@QEAA@PEAVAnnotationInfo@DBus@Gio@@@Z
    ?data@?$ArrayHandle@V?$RefPtr@VAnnotationInfo@DBus@Gio@@@Glib@@U?$TypeTraits@V?$RefPtr@VAnnotationInfo@DBus@Gio@@@Glib@@@Container_Helpers@2@@Glib@@QEBAPEBQEAU_GDBusAnnotationInfo@@XZ
    ??1?$RefPtr@VArgInfo@DBus@Gio@@@Glib@@QEAA@XZ
    ??0?$RefPtr@VArgInfo@DBus@Gio@@@Glib@@QEAA@PEAVArgInfo@DBus@Gio@@@Z
    ??1?$RefPtr@VMethodInfo@DBus@Gio@@@Glib@@QEAA@XZ
    ??0?$RefPtr@VMethodInfo@DBus@Gio@@@Glib@@QEAA@PEAVMethodInfo@DBus@Gio@@@Z
    ??0?$RefPtr@VMethodInfo@DBus@Gio@@@Glib@@QEAA@$$QEAV01@@Z
    ??C?$RefPtr@VMethodInfo@DBus@Gio@@@Glib@@QEBAPEAVMethodInfo@DBus@Gio@@XZ
    ??B?$RefPtr@VMethodInfo@DBus@Gio@@@Glib@@QEBA_NXZ
    ?release@?$RefPtr@VMethodInfo@DBus@Gio@@@Glib@@QEAAPEAVMethodInfo@DBus@Gio@@XZ
    ??1?$RefPtr@VSignalInfo@DBus@Gio@@@Glib@@QEAA@XZ
    ??0?$RefPtr@VSignalInfo@DBus@Gio@@@Glib@@QEAA@PEAVSignalInfo@DBus@Gio@@@Z
    ??0?$RefPtr@VSignalInfo@DBus@Gio@@@Glib@@QEAA@$$QEAV01@@Z
    ??C?$RefPtr@VSignalInfo@DBus@Gio@@@Glib@@QEBAPEAVSignalInfo@DBus@Gio@@XZ
    ??B?$RefPtr@VSignalInfo@DBus@Gio@@@Glib@@QEBA_NXZ
    ?release@?$RefPtr@VSignalInfo@DBus@Gio@@@Glib@@QEAAPEAVSignalInfo@DBus@Gio@@XZ
    ??1?$RefPtr@VPropertyInfo@DBus@Gio@@@Glib@@QEAA@XZ
    ??0?$RefPtr@VPropertyInfo@DBus@Gio@@@Glib@@QEAA@PEAVPropertyInfo@DBus@Gio@@@Z
    ??0?$RefPtr@VPropertyInfo@DBus@Gio@@@Glib@@QEAA@$$QEAV01@@Z
    ??C?$RefPtr@VPropertyInfo@DBus@Gio@@@Glib@@QEBAPEAVPropertyInfo@DBus@Gio@@XZ
    ??B?$RefPtr@VPropertyInfo@DBus@Gio@@@Glib@@QEBA_NXZ
    ?release@?$RefPtr@VPropertyInfo@DBus@Gio@@@Glib@@QEAAPEAVPropertyInfo@DBus@Gio@@XZ
    ??1?$RefPtr@$$CBVMethodInfo@DBus@Gio@@@Glib@@QEAA@XZ
    ??$?0VMethodInfo@DBus@Gio@@@?$RefPtr@$$CBVMethodInfo@DBus@Gio@@@Glib@@QEAA@$$QEAV?$RefPtr@VMethodInfo@DBus@Gio@@@1@@Z
    ??1?$RefPtr@$$CBVSignalInfo@DBus@Gio@@@Glib@@QEAA@XZ
    ??$?0VSignalInfo@DBus@Gio@@@?$RefPtr@$$CBVSignalInfo@DBus@Gio@@@Glib@@QEAA@$$QEAV?$RefPtr@VSignalInfo@DBus@Gio@@@1@@Z
    ??1?$RefPtr@$$CBVPropertyInfo@DBus@Gio@@@Glib@@QEAA@XZ
    ??$?0VPropertyInfo@DBus@Gio@@@?$RefPtr@$$CBVPropertyInfo@DBus@Gio@@@Glib@@QEAA@$$QEAV?$RefPtr@VPropertyInfo@DBus@Gio@@@1@@Z
    ??1?$RefPtr@VNodeInfo@DBus@Gio@@@Glib@@QEAA@XZ
    ??0?$RefPtr@VNodeInfo@DBus@Gio@@@Glib@@QEAA@PEAVNodeInfo@DBus@Gio@@@Z
    ??0?$RefPtr@VNodeInfo@DBus@Gio@@@Glib@@QEAA@$$QEAV01@@Z
    ??$move@AEAV?$RefPtr@VInterfaceInfo@DBus@Gio@@@Glib@@@std@@YA$$QEAV?$RefPtr@VInterfaceInfo@DBus@Gio@@@Glib@@AEAV12@@Z
    ?menumodel_class_@MenuModel@DBus@Gio@@0VMenuModel_Class@23@A
    ?__empty_global_delete@@YAXPEAX@Z
    ?__empty_global_delete@@YAXPEAX_K@Z
    ?get_type@Class@Glib@@QEBA_KXZ
    ??0MenuModel@DBus@Gio@@IEAA@AEBVConstructParams@Glib@@@Z
    ??0MenuModel@DBus@Gio@@IEAA@PEAU_GDBusMenuModel@@@Z
    ??0MenuModel@DBus@Gio@@QEAA@$$QEAV012@@Z
    ??4MenuModel@DBus@Gio@@QEAAAEAV012@$$QEAV012@@Z
    ??1MenuModel@DBus@Gio@@UEAA@XZ
    ?get_type@MenuModel@DBus@Gio@@SA_KXZ
    ?get_base_type@MenuModel@DBus@Gio@@SA_KXZ
    ?gobj@MenuModel@DBus@Gio@@QEAAPEAU_GDBusMenuModel@@XZ
    ?gobj_copy@MenuModel@DBus@Gio@@QEAAPEAU_GDBusMenuModel@@XZ
    ??0MenuModel@DBus@Gio@@IEAA@XZ
    ?get@MenuModel@DBus@Gio@@SA?AV?$RefPtr@VMenuModel@DBus@Gio@@@Glib@@AEBV?$RefPtr@VConnection@DBus@Gio@@@5@AEBVustring@5@1@Z
    ??_DMenuModel@DBus@Gio@@QEAAXXZ
    ?wrap@Glib@@YA?AV?$RefPtr@VMenuModel@DBus@Gio@@@1@PEAU_GDBusMenuModel@@_N@Z
    ?init@MenuModel_Class@DBus@Gio@@QEAAAEBVClass@Glib@@XZ
    ?class_init_function@MenuModel_Class@DBus@Gio@@SAXPEAX0@Z
    ?wrap_new@MenuModel_Class@DBus@Gio@@SAPEAVObjectBase@Glib@@PEAU_GObject@@@Z
    ?gobj@Connection@DBus@Gio@@QEAAPEAU_GDBusConnection@@XZ
    ??1?$RefPtr@VMenuModel@DBus@Gio@@@Glib@@QEAA@XZ
    ??0?$RefPtr@VMenuModel@DBus@Gio@@@Glib@@QEAA@PEAVMenuModel@DBus@Gio@@@Z
    ??$move@AEAVMenuModel@DBus@Gio@@@std@@YA$$QEAVMenuModel@DBus@Gio@@AEAV123@@Z
    ??C?$RefPtr@VConnection@DBus@Gio@@@Glib@@QEBAPEAVConnection@DBus@Gio@@XZ
    ??B?$RefPtr@VConnection@DBus@Gio@@@Glib@@QEBA_NXZ
    ??$unwrap@VConnection@DBus@Gio@@@Glib@@YAPEAU_GDBusConnection@@AEBV?$RefPtr@VConnection@DBus@Gio@@@0@@Z
    ??_7MenuModel@DBus@Gio@@6B@
    ??_8MenuModel@DBus@Gio@@7BObject@Glib@@@
    ??_8MenuModel@DBus@Gio@@7BObjectBase@Glib@@@
    ??_R0?AVObjectBase@Glib@@@8
    ??_R0?AVMenuModel@DBus@Gio@@@8
    ??_R4MenuModel@DBus@Gio@@6B@
    ??_R3MenuModel@DBus@Gio@@8
    ??_R2MenuModel@DBus@Gio@@8
    ??_R1A@?0A@EA@MenuModel@DBus@Gio@@8
    ??_R1A@?0A@EA@MenuModel@Gio@@8
    ??_R0?AVMenuModel@Gio@@@8
    ??_R3MenuModel@Gio@@8
    ??_R2MenuModel@Gio@@8
    ??_R1A@?0A@EA@Object@Glib@@8
    ??_R0?AVObject@Glib@@@8
    ??_R3Object@Glib@@8
    ??_R2Object@Glib@@8
    ??_R1A@A@7FA@ObjectBase@Glib@@8
    ??_R3ObjectBase@Glib@@8
    ??_R2ObjectBase@Glib@@8
    ??_R1A@?0A@EA@ObjectBase@Glib@@8
    ??_R1A@73FA@trackable@sigc@@8
    ??_R0?AUtrackable@sigc@@@8
    ??_R3trackable@sigc@@8
    ??_R2trackable@sigc@@8
    ??_R1A@?0A@EA@trackable@sigc@@8
    ??_R1A@A@3FA@trackable@sigc@@8
    ?message_class_@Message@DBus@Gio@@0VMessage_Class@23@A
    ?__empty_global_delete@@YAXPEAX@Z
    ?__empty_global_delete@@YAXPEAX_K@Z
    ?gobj@VariantBase@Glib@@QEBAPEBU_GVariant@@XZ
    ?get_type@Class@Glib@@QEBA_KXZ
    ?convert_const_gchar_ptr_to_ustring@Glib@@YA?AVustring@1@PEBD@Z
    ?convert_return_gchar_ptr_to_ustring@Glib@@YA?AVustring@1@PEAD@Z
    ??$make_unique_ptr_gfree@D@Glib@@YA?AV?$unique_ptr@$$BY0A@DP6AXPEAX@Z@std@@PEAD@Z
    ??1?$unique_ptr@$$BY0A@DP6AXPEAX@Z@std@@QEAA@XZ
    ?get_deleter@?$unique_ptr@$$BY0A@DP6AXPEAX@Z@std@@QEAAAEAP6AXPEAX@ZXZ
    ?get@?$unique_ptr@$$BY0A@DP6AXPEAX@Z@std@@QEBAPEADXZ
    ?release@?$unique_ptr@$$BY0A@DP6AXPEAX@Z@std@@QEAAPEADXZ
    ?_Get_first@?$_Compressed_pair@P6AXPEAX@ZPEAD$0A@@std@@QEAAAEAP6AXPEAX@ZXZ
    ?value_type@?$Value@W4CapabilityFlags@DBus@Gio@@@Glib@@SA_KXZ
    ??0Message@DBus@Gio@@IEAA@AEBVConstructParams@Glib@@@Z
    ??0Message@DBus@Gio@@IEAA@PEAU_GDBusMessage@@@Z
    ??0Message@DBus@Gio@@QEAA@$$QEAV012@@Z
    ??4Message@DBus@Gio@@QEAAAEAV012@$$QEAV012@@Z
    ??1Message@DBus@Gio@@UEAA@XZ
    ?get_type@Message@DBus@Gio@@SA_KXZ
    ?get_base_type@Message@DBus@Gio@@SA_KXZ
    ?gobj@Message@DBus@Gio@@QEAAPEAU_GDBusMessage@@XZ
    ?gobj@Message@DBus@Gio@@QEBAPEBU_GDBusMessage@@XZ
    ?gobj_copy@Message@DBus@Gio@@QEAAPEAU_GDBusMessage@@XZ
    ??0Message@DBus@Gio@@IEAA@XZ
    ?create@Message@DBus@Gio@@SA?AV?$RefPtr@VMessage@DBus@Gio@@@Glib@@XZ
    ?create_signal@Message@DBus@Gio@@SA?AV?$RefPtr@VMessage@DBus@Gio@@@Glib@@AEBVustring@5@00@Z
    ?create_method_call@Message@DBus@Gio@@SA?AV?$RefPtr@VMessage@DBus@Gio@@@Glib@@AEBVustring@5@000@Z
    ?create_method_reply@Message@DBus@Gio@@SA?AV?$RefPtr@VMessage@DBus@Gio@@@Glib@@AEBV45@@Z
    ?create_method_error_literal@Message@DBus@Gio@@SA?AV?$RefPtr@VMessage@DBus@Gio@@@Glib@@AEBV?$RefPtr@$$CBVMessage@DBus@Gio@@@5@AEBVustring@5@1@Z
    ?create_from_blob@Message@DBus@Gio@@SA?AV?$RefPtr@VMessage@DBus@Gio@@@Glib@@PEBE_KW4CapabilityFlags@23@@Z
    ?print@Message@DBus@Gio@@QEAA?AVustring@Glib@@I@Z
    ?get_locked@Message@DBus@Gio@@QEBA_NXZ
    ?lock@Message@DBus@Gio@@QEAAXXZ
    ?copy@Message@DBus@Gio@@QEBA?AV?$RefPtr@VMessage@DBus@Gio@@@Glib@@XZ
    ?get_message_type@Message@DBus@Gio@@QEBA?AW4MessageType@23@XZ
    ?set_message_type@Message@DBus@Gio@@QEAAXW4MessageType@23@@Z
    ?get_byte_order@Message@DBus@Gio@@QEBA?AW4ByteOrder@123@XZ
    ?set_byte_order@Message@DBus@Gio@@QEAAXW4ByteOrder@123@@Z
    ?get_serial@Message@DBus@Gio@@QEBAIXZ
    ?set_serial@Message@DBus@Gio@@QEAAXI@Z
    ?get_flags@Message@DBus@Gio@@QEBA?AW4MessageFlags@23@XZ
    ?set_flags@Message@DBus@Gio@@QEAAXW4MessageFlags@23@@Z
    ?get_body@Message@DBus@Gio@@QEBAXAEAVVariantBase@Glib@@@Z
    ?set_body@Message@DBus@Gio@@QEAAXAEBVVariantBase@Glib@@@Z
    ?get_num_unix_fds@Message@DBus@Gio@@QEBAIXZ
    ?set_num_unix_fds@Message@DBus@Gio@@QEAAXI@Z
    ?get_header@Message@DBus@Gio@@QEBAXAEAVVariantBase@Glib@@W4MessageHeaderField@23@@Z
    ?set_header@Message@DBus@Gio@@QEAAXW4MessageHeaderField@23@AEBVVariantBase@Glib@@@Z
    ?get_header_fields@Message@DBus@Gio@@QEBA?AV?$ArrayHandle@EU?$TypeTraits@E@Container_Helpers@Glib@@@Glib@@XZ
    ?get_destination@Message@DBus@Gio@@QEBA?AVustring@Glib@@XZ
    ?set_destination@Message@DBus@Gio@@QEAAXAEBVustring@Glib@@@Z
    ?get_error_name@Message@DBus@Gio@@QEBA?AVustring@Glib@@XZ
    ?set_error_name@Message@DBus@Gio@@QEAAXAEBVustring@Glib@@@Z
    ?get_interface@Message@DBus@Gio@@QEBA?AVustring@Glib@@XZ
    ?set_interface@Message@DBus@Gio@@QEAAXAEBVustring@Glib@@@Z
    ?get_member@Message@DBus@Gio@@QEBA?AVustring@Glib@@XZ
    ?set_member@Message@DBus@Gio@@QEAAXAEBVustring@Glib@@@Z
    ?get_path@Message@DBus@Gio@@QEBA?AVustring@Glib@@XZ
    ?set_path@Message@DBus@Gio@@QEAAXAEBVustring@Glib@@@Z
    ?get_reply_serial@Message@DBus@Gio@@QEBAIXZ
    ?set_reply_serial@Message@DBus@Gio@@QEAAXI@Z
    ?get_sender@Message@DBus@Gio@@QEBA?AVustring@Glib@@XZ
    ?set_sender@Message@DBus@Gio@@QEAAXAEBVustring@Glib@@@Z
    ?get_signature@Message@DBus@Gio@@QEBA?AVustring@Glib@@XZ
    ?set_signature@Message@DBus@Gio@@QEAAXAEBVustring@Glib@@@Z
    ?get_arg0@Message@DBus@Gio@@QEBA?AVustring@Glib@@XZ
    ?bytes_needed@Message@DBus@Gio@@SA_JPEBE_K@Z
    ?to_blob@Message@DBus@Gio@@QEAAPEAEAEA_KW4CapabilityFlags@23@@Z
    ?to_exception@Message@DBus@Gio@@QEAAXXZ
    ?property_locked@Message@DBus@Gio@@QEBA?AV?$PropertyProxy_ReadOnly@_N@Glib@@XZ
    ??_DMessage@DBus@Gio@@QEAAXXZ
    ?wrap@Glib@@YA?AV?$RefPtr@VMessage@DBus@Gio@@@1@PEAU_GDBusMessage@@_N@Z
    ?init@Message_Class@DBus@Gio@@QEAAAEBVClass@Glib@@XZ
    ?class_init_function@Message_Class@DBus@Gio@@SAXPEAX0@Z
    ?wrap_new@Message_Class@DBus@Gio@@SAPEAVObjectBase@Glib@@PEAU_GObject@@@Z
    ??1?$RefPtr@VMessage@DBus@Gio@@@Glib@@QEAA@XZ
    ??0?$RefPtr@VMessage@DBus@Gio@@@Glib@@QEAA@PEAVMessage@DBus@Gio@@@Z
    ??0?$RefPtr@VMessage@DBus@Gio@@@Glib@@QEAA@$$QEAV01@@Z
    ??C?$RefPtr@VMessage@DBus@Gio@@@Glib@@QEBAPEAVMessage@DBus@Gio@@XZ
    ??B?$RefPtr@VMessage@DBus@Gio@@@Glib@@QEBA_NXZ
    ??$move@AEAVMessage@DBus@Gio@@@std@@YA$$QEAVMessage@DBus@Gio@@AEAV123@@Z
    ??$unwrap@VMessage@DBus@Gio@@@Glib@@YAPEAU_GDBusMessage@@AEBV?$RefPtr@VMessage@DBus@Gio@@@0@@Z
    ??$unwrap@VMessage@DBus@Gio@@@Glib@@YAPEBU_GDBusMessage@@AEBV?$RefPtr@$$CBVMessage@DBus@Gio@@@0@@Z
    ?release_c_type@?$TypeTraits@E@Container_Helpers@Glib@@SAXAEBE@Z
    ??1?$ArrayHandle@EU?$TypeTraits@E@Container_Helpers@Glib@@@Glib@@QEAA@XZ
    ??$?0PEAE@?$ArrayHandle@EU?$TypeTraits@E@Container_Helpers@Glib@@@Glib@@QEAA@AEBQEAE@Z
    ??0?$PropertyProxy_ReadOnly@_N@Glib@@QEAA@PEBVObjectBase@1@PEBD@Z
    ??$?0PEADP6AXPEAX@Z$0A@$0A@@?$unique_ptr@$$BY0A@DP6AXPEAX@Z@std@@QEAA@PEAD$$QEAP6AXPEAX@Z@Z
    ??$?0P6AXPEAX@Z$0A@@?$unique_ptr@$$BY0A@DP6AXPEAX@Z@std@@QEAA@$$QEAV01@@Z
    ??C?$RefPtr@$$CBVMessage@DBus@Gio@@@Glib@@QEBAPEBVMessage@DBus@Gio@@XZ
    ??B?$RefPtr@$$CBVMessage@DBus@Gio@@@Glib@@QEBA_NXZ
    ?get_size@?$ArraySourceTraits@U?$TypeTraits@E@Container_Helpers@Glib@@PEAE@Container_Helpers@Glib@@SA_KPEBE@Z
    ?get_data@?$ArraySourceTraits@U?$TypeTraits@E@Container_Helpers@Glib@@PEAE@Container_Helpers@Glib@@SAPEBEPEBE_K@Z
    ??$move@AEAP6AXPEAX@Z@std@@YA$$QEAP6AXPEAX@ZAEAP6AX0@Z@Z
    ??$?0P6AXPEAX@ZAEAPEAD@?$_Compressed_pair@P6AXPEAX@ZPEAD$0A@@std@@QEAA@U_One_then_variadic_args_t@1@$$QEAP6AXPEAX@ZAEAPEAD@Z
    ??$forward@P6AXPEAX@Z@std@@YA$$QEAP6AXPEAX@ZAEAP6AX0@Z@Z
    ??$?0P6AXPEAX@ZPEAD@?$_Compressed_pair@P6AXPEAX@ZPEAD$0A@@std@@QEAA@U_One_then_variadic_args_t@1@$$QEAP6AXPEAX@Z$$QEAPEAD@Z
    ??$compute_array_size@E@Container_Helpers@Glib@@YA_KPEBE@Z
    ??$forward@AEAPEAD@std@@YAAEAPEADAEAPEAD@Z
    ??$forward@PEAD@std@@YA$$QEAPEADAEAPEAD@Z
    ??$exchange@PEAD$$T@std@@YAPEADAEAPEAD$$QEA$$T@Z
    ??_7Message@DBus@Gio@@6B@
    ??_8Message@DBus@Gio@@7BObject@Glib@@@
    ??_8Message@DBus@Gio@@7BObjectBase@Glib@@@
    ??_R0?AVObjectBase@Glib@@@8
    ??_R0?AVMessage@DBus@Gio@@@8
    ??_C@_06KKBPGBGI@locked@
    ??_R4Message@DBus@Gio@@6B@
    ??_R3Message@DBus@Gio@@8
    ??_R2Message@DBus@Gio@@8
    ??_R1A@?0A@EA@Message@DBus@Gio@@8
    ??_R1A@?0A@EA@Object@Glib@@8
    ??_R0?AVObject@Glib@@@8
    ??_R3Object@Glib@@8
    ??_R2Object@Glib@@8
    ??_R1A@A@7FA@ObjectBase@Glib@@8
    ??_R3ObjectBase@Glib@@8
    ??_R2ObjectBase@Glib@@8
    ??_R1A@?0A@EA@ObjectBase@Glib@@8
    ??_R1A@73FA@trackable@sigc@@8
    ??_R0?AUtrackable@sigc@@@8
    ??_R3trackable@sigc@@8
    ??_R2trackable@sigc@@8
    ??_R1A@?0A@EA@trackable@sigc@@8
    ??_R1A@A@3FA@trackable@sigc@@8
    ?methodinvocation_class_@MethodInvocation@DBus@Gio@@0VMethodInvocation_Class@23@A
    ?__empty_global_delete@@YAXPEAX@Z
    ?__empty_global_delete@@YAXPEAX_K@Z
    ?gobj@VariantBase@Glib@@QEBAPEBU_GVariant@@XZ
    ??1VariantContainerBase@Glib@@QEAA@XZ
    ?get_type@Class@Glib@@QEBA_KXZ
    ??1QueryQuark@Glib@@QEAA@XZ
    ?id@QueryQuark@Glib@@QEBAIXZ
    ?convert_const_gchar_ptr_to_ustring@Glib@@YA?AVustring@1@PEBD@Z
    ??0MethodInvocation@DBus@Gio@@IEAA@AEBVConstructParams@Glib@@@Z
    ??0MethodInvocation@DBus@Gio@@IEAA@PEAU_GDBusMethodInvocation@@@Z
    ??0MethodInvocation@DBus@Gio@@QEAA@$$QEAV012@@Z
    ??4MethodInvocation@DBus@Gio@@QEAAAEAV012@$$QEAV012@@Z
    ??1MethodInvocation@DBus@Gio@@UEAA@XZ
    ?get_type@MethodInvocation@DBus@Gio@@SA_KXZ
    ?get_base_type@MethodInvocation@DBus@Gio@@SA_KXZ
    ?gobj@MethodInvocation@DBus@Gio@@QEAAPEAU_GDBusMethodInvocation@@XZ
    ?gobj@MethodInvocation@DBus@Gio@@QEBAPEBU_GDBusMethodInvocation@@XZ
    ?gobj_copy@MethodInvocation@DBus@Gio@@QEAAPEAU_GDBusMethodInvocation@@XZ
    ?get_sender@MethodInvocation@DBus@Gio@@QEBA?AVustring@Glib@@XZ
    ?get_object_path@MethodInvocation@DBus@Gio@@QEBA?AVustring@Glib@@XZ
    ?get_interface_name@MethodInvocation@DBus@Gio@@QEBA?AVustring@Glib@@XZ
    ?get_method_name@MethodInvocation@DBus@Gio@@QEBA?AVustring@Glib@@XZ
    ?get_method_info@MethodInvocation@DBus@Gio@@QEBA?AV?$RefPtr@$$CBVMethodInfo@DBus@Gio@@@Glib@@XZ
    ?get_connection@MethodInvocation@DBus@Gio@@QEAA?AV?$RefPtr@VConnection@DBus@Gio@@@Glib@@XZ
    ?get_connection@MethodInvocation@DBus@Gio@@QEBA?AV?$RefPtr@$$CBVConnection@DBus@Gio@@@Glib@@XZ
    ?get_message@MethodInvocation@DBus@Gio@@QEAA?AV?$RefPtr@VMessage@DBus@Gio@@@Glib@@XZ
    ?get_message@MethodInvocation@DBus@Gio@@QEBA?AV?$RefPtr@$$CBVMessage@DBus@Gio@@@Glib@@XZ
    ?get_parameters@MethodInvocation@DBus@Gio@@QEBA?AVVariantContainerBase@Glib@@XZ
    ?return_value@MethodInvocation@DBus@Gio@@QEAAXAEBVVariantContainerBase@Glib@@@Z
    ?return_error@MethodInvocation@DBus@Gio@@QEAAXAEBVustring@Glib@@H0@Z
    ?return_error@MethodInvocation@DBus@Gio@@QEAAXAEBVError@Glib@@@Z
    ?return_dbus_error@MethodInvocation@DBus@Gio@@QEAAXAEBVustring@Glib@@0@Z
    ??_DMethodInvocation@DBus@Gio@@QEAAXXZ
    ?wrap@Glib@@YA?AV?$RefPtr@VMethodInvocation@DBus@Gio@@@1@PEAU_GDBusMethodInvocation@@_N@Z
    ?init@MethodInvocation_Class@DBus@Gio@@QEAAAEBVClass@Glib@@XZ
    ?class_init_function@MethodInvocation_Class@DBus@Gio@@SAXPEAX0@Z
    ?wrap_new@MethodInvocation_Class@DBus@Gio@@SAPEAVObjectBase@Glib@@PEAU_GObject@@@Z
    ??1?$RefPtr@VMethodInvocation@DBus@Gio@@@Glib@@QEAA@XZ
    ??0?$RefPtr@VMethodInvocation@DBus@Gio@@@Glib@@QEAA@PEAVMethodInvocation@DBus@Gio@@@Z
    ??$move@AEAVMethodInvocation@DBus@Gio@@@std@@YA$$QEAVMethodInvocation@DBus@Gio@@AEAV123@@Z
    ??1?$RefPtr@$$CBVMethodInfo@DBus@Gio@@@Glib@@QEAA@XZ
    ??0?$RefPtr@$$CBVMethodInfo@DBus@Gio@@@Glib@@QEAA@$$QEAV01@@Z
    ??C?$RefPtr@$$CBVMethodInfo@DBus@Gio@@@Glib@@QEBAPEBVMethodInfo@DBus@Gio@@XZ
    ??B?$RefPtr@$$CBVMethodInfo@DBus@Gio@@@Glib@@QEBA_NXZ
    ??1?$RefPtr@VMethodInfo@DBus@Gio@@@Glib@@QEAA@XZ
    ?release@?$RefPtr@VMethodInfo@DBus@Gio@@@Glib@@QEAAPEAVMethodInfo@DBus@Gio@@XZ
    ??$?0VMethodInfo@DBus@Gio@@@?$RefPtr@$$CBVMethodInfo@DBus@Gio@@@Glib@@QEAA@$$QEAV?$RefPtr@VMethodInfo@DBus@Gio@@@1@@Z
    ??1?$RefPtr@VConnection@DBus@Gio@@@Glib@@QEAA@XZ
    ??0?$RefPtr@VConnection@DBus@Gio@@@Glib@@QEAA@$$QEAV01@@Z
    ??C?$RefPtr@VConnection@DBus@Gio@@@Glib@@QEBAPEAVConnection@DBus@Gio@@XZ
    ??B?$RefPtr@VConnection@DBus@Gio@@@Glib@@QEBA_NXZ
    ?release@?$RefPtr@VConnection@DBus@Gio@@@Glib@@QEAAPEAVConnection@DBus@Gio@@XZ
    ??1?$RefPtr@$$CBVConnection@DBus@Gio@@@Glib@@QEAA@XZ
    ??$?0VConnection@DBus@Gio@@@?$RefPtr@$$CBVConnection@DBus@Gio@@@Glib@@QEAA@$$QEAV?$RefPtr@VConnection@DBus@Gio@@@1@@Z
    ??1?$RefPtr@VMessage@DBus@Gio@@@Glib@@QEAA@XZ
    ??0?$RefPtr@VMessage@DBus@Gio@@@Glib@@QEAA@$$QEAV01@@Z
    ??C?$RefPtr@VMessage@DBus@Gio@@@Glib@@QEBAPEAVMessage@DBus@Gio@@XZ
    ??B?$RefPtr@VMessage@DBus@Gio@@@Glib@@QEBA_NXZ
    ?release@?$RefPtr@VMessage@DBus@Gio@@@Glib@@QEAAPEAVMessage@DBus@Gio@@XZ
    ??1?$RefPtr@$$CBVMessage@DBus@Gio@@@Glib@@QEAA@XZ
    ??$?0VMessage@DBus@Gio@@@?$RefPtr@$$CBVMessage@DBus@Gio@@@Glib@@QEAA@$$QEAV?$RefPtr@VMessage@DBus@Gio@@@1@@Z
    ??_7MethodInvocation@DBus@Gio@@6B@
    ??_8MethodInvocation@DBus@Gio@@7BObject@Glib@@@
    ??_8MethodInvocation@DBus@Gio@@7BObjectBase@Glib@@@
    ??_R0?AVObjectBase@Glib@@@8
    ??_R0?AVMethodInvocation@DBus@Gio@@@8
    ??_R4MethodInvocation@DBus@Gio@@6B@
    ??_R3MethodInvocation@DBus@Gio@@8
    ??_R2MethodInvocation@DBus@Gio@@8
    ??_R1A@?0A@EA@MethodInvocation@DBus@Gio@@8
    ??_R1A@?0A@EA@Object@Glib@@8
    ??_R0?AVObject@Glib@@@8
    ??_R3Object@Glib@@8
    ??_R2Object@Glib@@8
    ??_R1A@A@7FA@ObjectBase@Glib@@8
    ??_R3ObjectBase@Glib@@8
    ??_R2ObjectBase@Glib@@8
    ??_R1A@?0A@EA@ObjectBase@Glib@@8
    ??_R1A@73FA@trackable@sigc@@8
    ??_R0?AUtrackable@sigc@@@8
    ??_R3trackable@sigc@@8
    ??_R2trackable@sigc@@8
    ??_R1A@?0A@EA@trackable@sigc@@8
    ??_R1A@A@3FA@trackable@sigc@@8
    ?object_class_@Object@DBus@Gio@@0VObject_Class@23@A
    ??_C@_0BA@IKLCFDIG@interface_added@
    ??_C@_0BC@BDNKPJFI@interface_removed@
    ?__empty_global_delete@@YAXPEAX@Z
    ?__empty_global_delete@@YAXPEAX_K@Z
    ??2@YAPEAX_KPEAX@Z
    ??0exception@std@@QEAA@QEBDH@Z
    ??0exception@std@@QEAA@AEBV01@@Z
    ??1exception@std@@UEAA@XZ
    ?what@exception@std@@UEBAPEBDXZ
    ??0bad_alloc@std@@AEAA@QEBD@Z
    ??1bad_alloc@std@@UEAA@XZ
    ??0bad_alloc@std@@QEAA@AEBV01@@Z
    ??0bad_array_new_length@std@@QEAA@XZ
    ??1bad_array_new_length@std@@UEAA@XZ
    ??0bad_array_new_length@std@@QEAA@AEBV01@@Z
    ?_Throw_bad_array_new_length@std@@YAXXZ
    ?_Allocate@_Default_allocate_traits@std@@SAPEAX_K@Z
    ?_Adjust_manually_vector_aligned@std@@YAXAEAPEAXAEA_K@Z
    ?_Orphan_all@_Container_base0@std@@QEAAXXZ
    ?_Swap_proxy_and_iterators@_Container_base0@std@@QEAAXAEAU12@@Z
    ?_Alloc_proxy@_Container_base0@std@@QEAAXAEBU_Fake_allocator@2@@Z
    ?_Adopt@_Iterator_base0@std@@QEAAXPEBX@Z
    ??0_Fake_proxy_ptr_impl@std@@QEAA@AEBU_Fake_allocator@1@AEBU_Container_base0@1@@Z
    ?_Release@_Fake_proxy_ptr_impl@std@@QEAAXXZ
    ?name@type_info@@QEBAPEBDXZ
    ?get_type@Class@Glib@@QEBA_KXZ
    ?data_to_slot@SignalProxyBase@Glib@@SAPEAVslot_base@sigc@@PEAX@Z
    ?convert_const_gchar_ptr_to_ustring@Glib@@YA?AVustring@1@PEBD@Z
    ??0Object@DBus@Gio@@IEAA@XZ
    ??0Object@DBus@Gio@@IEAA@AEBVInterface_Class@Glib@@@Z
    ??0Object@DBus@Gio@@QEAA@PEAU_GDBusObject@@@Z
    ??0Object@DBus@Gio@@QEAA@$$QEAV012@@Z
    ??4Object@DBus@Gio@@QEAAAEAV012@$$QEAV012@@Z
    ??1Object@DBus@Gio@@UEAA@XZ
    ?add_interface@Object@DBus@Gio@@SAX_K@Z
    ?get_type@Object@DBus@Gio@@SA_KXZ
    ?get_base_type@Object@DBus@Gio@@SA_KXZ
    ?gobj@Object@DBus@Gio@@QEAAPEAU_GDBusObject@@XZ
    ?gobj@Object@DBus@Gio@@QEBAPEBU_GDBusObject@@XZ
    ?get_object_path@Object@DBus@Gio@@QEBA?AVustring@Glib@@XZ
    ?get_interfaces@Object@DBus@Gio@@QEAA?AV?$vector@V?$RefPtr@VInterface@DBus@Gio@@@Glib@@V?$allocator@V?$RefPtr@VInterface@DBus@Gio@@@Glib@@@std@@@std@@XZ
    ?get_interfaces@Object@DBus@Gio@@QEBA?AV?$vector@V?$RefPtr@$$CBVInterface@DBus@Gio@@@Glib@@V?$allocator@V?$RefPtr@$$CBVInterface@DBus@Gio@@@Glib@@@std@@@std@@XZ
    ?get_interface@Object@DBus@Gio@@QEAA?AV?$RefPtr@VInterface@DBus@Gio@@@Glib@@AEBVustring@5@@Z
    ?get_interface@Object@DBus@Gio@@QEBA?AV?$RefPtr@$$CBVInterface@DBus@Gio@@@Glib@@AEBVustring@5@@Z
    ?signal_interface_added@Object@DBus@Gio@@QEAA?AV?$SignalProxy@XAEBV?$RefPtr@VInterface@DBus@Gio@@@Glib@@@Glib@@XZ
    ?signal_interface_removed@Object@DBus@Gio@@QEAA?AV?$SignalProxy@XAEBV?$RefPtr@VInterface@DBus@Gio@@@Glib@@@Glib@@XZ
    ?get_object_path_vfunc@Object@DBus@Gio@@UEBA?AVustring@Glib@@XZ
    ?get_interfaces_vfunc@Object@DBus@Gio@@UEBA?AV?$vector@V?$RefPtr@VInterface@DBus@Gio@@@Glib@@V?$allocator@V?$RefPtr@VInterface@DBus@Gio@@@Glib@@@std@@@std@@XZ
    ?get_interface_vfunc@Object@DBus@Gio@@UEBA?AV?$RefPtr@VInterface@DBus@Gio@@@Glib@@AEBVustring@5@@Z
    ?on_interface_added@Object@DBus@Gio@@MEAAXAEBV?$RefPtr@VInterface@DBus@Gio@@@Glib@@@Z
    ?on_interface_removed@Object@DBus@Gio@@MEAAXAEBV?$RefPtr@VInterface@DBus@Gio@@@Glib@@@Z
    ??_DObject@DBus@Gio@@QEAAXXZ
    ?wrap@Glib@@YA?AV?$RefPtr@VObject@DBus@Gio@@@1@PEAU_GDBusObject@@_N@Z
    ?init@Object_Class@DBus@Gio@@QEAAAEBVInterface_Class@Glib@@XZ
    ?iface_init_function@Object_Class@DBus@Gio@@SAXPEAX0@Z
    ?wrap_new@Object_Class@DBus@Gio@@SAPEAVObjectBase@Glib@@PEAU_GObject@@@Z
    ?interface_added_callback@Object_Class@DBus@Gio@@KAXPEAU_GDBusObject@@PEAU_GDBusInterface@@@Z
    ?interface_removed_callback@Object_Class@DBus@Gio@@KAXPEAU_GDBusObject@@PEAU_GDBusInterface@@@Z
    ?get_object_path_vfunc_callback@Object_Class@DBus@Gio@@KAPEBDPEAU_GDBusObject@@@Z
    ?get_interfaces_vfunc_callback@Object_Class@DBus@Gio@@KAPEAU_GList@@PEAU_GDBusObject@@@Z
    ?get_interface_vfunc_callback@Object_Class@DBus@Gio@@KAPEAU_GDBusInterface@@PEAU_GDBusObject@@PEBD@Z
    ?gobj@Interface@DBus@Gio@@QEAAPEAU_GDBusInterface@@XZ
    ??0?$RefPtr@VInterface@DBus@Gio@@@Glib@@QEAA@XZ
    ??1?$RefPtr@VInterface@DBus@Gio@@@Glib@@QEAA@XZ
    ??0?$RefPtr@VInterface@DBus@Gio@@@Glib@@QEAA@PEAVInterface@DBus@Gio@@@Z
    ??0?$RefPtr@VInterface@DBus@Gio@@@Glib@@QEAA@$$QEAV01@@Z
    ??C?$RefPtr@VInterface@DBus@Gio@@@Glib@@QEBAPEAVInterface@DBus@Gio@@XZ
    ??B?$RefPtr@VInterface@DBus@Gio@@@Glib@@QEBA_NXZ
    ?release@?$RefPtr@VInterface@DBus@Gio@@@Glib@@QEAAPEAVInterface@DBus@Gio@@XZ
    ??R?$slot1@XAEBV?$RefPtr@VInterface@DBus@Gio@@@Glib@@@sigc@@QEBAXAEBV?$RefPtr@VInterface@DBus@Gio@@@Glib@@@Z
    ??1?$RefPtr@VObject@DBus@Gio@@@Glib@@QEAA@XZ
    ??0?$RefPtr@VObject@DBus@Gio@@@Glib@@QEAA@PEAVObject@DBus@Gio@@@Z
    ??$wrap_auto_interface@VObject@DBus@Gio@@@Glib@@YAPEAVObject@DBus@Gio@@PEAU_GObject@@_N@Z
    ??$destroy_notify_delete@Vustring@Glib@@@Glib@@YAXPEAX@Z
    ?to_c_type@?$TypeTraits@V?$RefPtr@VInterface@DBus@Gio@@@Glib@@@Container_Helpers@Glib@@SAPEAU_GDBusInterface@@AEBV?$RefPtr@VInterface@DBus@Gio@@@3@@Z
    ?to_cpp_type@?$TypeTraits@V?$RefPtr@VInterface@DBus@Gio@@@Glib@@@Container_Helpers@Glib@@SA?AV?$RefPtr@VInterface@DBus@Gio@@@3@PEAU_GDBusInterface@@@Z
    ?release_c_type@?$TypeTraits@V?$RefPtr@VInterface@DBus@Gio@@@Glib@@@Container_Helpers@Glib@@SAXPEAU_GDBusInterface@@@Z
    ?list_to_vector@?$ListHandler@V?$RefPtr@VInterface@DBus@Gio@@@Glib@@U?$TypeTraits@V?$RefPtr@VInterface@DBus@Gio@@@Glib@@@Container_Helpers@2@@Glib@@SA?AV?$vector@V?$RefPtr@VInterface@DBus@Gio@@@Glib@@V?$allocator@V?$RefPtr@VInterface@DBus@Gio@@@Glib@@@std@@@std@@PEAU_GList@@W4OwnershipType@2@@Z
    ?vector_to_list@?$ListHandler@V?$RefPtr@VInterface@DBus@Gio@@@Glib@@U?$TypeTraits@V?$RefPtr@VInterface@DBus@Gio@@@Glib@@@Container_Helpers@2@@Glib@@SA?AV?$GListKeeper@U?$TypeTraits@V?$RefPtr@VInterface@DBus@Gio@@@Glib@@@Container_Helpers@Glib@@@Container_Helpers@2@AEBV?$vector@V?$RefPtr@VInterface@DBus@Gio@@@Glib@@V?$allocator@V?$RefPtr@VInterface@DBus@Gio@@@Glib@@@std@@@std@@@Z
    ??0?$allocator@V?$RefPtr@VInterface@DBus@Gio@@@Glib@@@std@@QEAA@XZ
    ?deallocate@?$allocator@V?$RefPtr@VInterface@DBus@Gio@@@Glib@@@std@@QEAAXQEAV?$RefPtr@VInterface@DBus@Gio@@@Glib@@_K@Z
    ?allocate@?$allocator@V?$RefPtr@VInterface@DBus@Gio@@@Glib@@@std@@QEAAPEAV?$RefPtr@VInterface@DBus@Gio@@@Glib@@_K@Z
    ?max_size@?$_Default_allocator_traits@V?$allocator@V?$RefPtr@VInterface@DBus@Gio@@@Glib@@@std@@@std@@SA_KAEBV?$allocator@V?$RefPtr@VInterface@DBus@Gio@@@Glib@@@2@@Z
    ??0?$vector@V?$RefPtr@VInterface@DBus@Gio@@@Glib@@V?$allocator@V?$RefPtr@VInterface@DBus@Gio@@@Glib@@@std@@@std@@QEAA@XZ
    ??0?$vector@V?$RefPtr@VInterface@DBus@Gio@@@Glib@@V?$allocator@V?$RefPtr@VInterface@DBus@Gio@@@Glib@@@std@@@std@@QEAA@$$QEAV01@@Z
    ??1?$vector@V?$RefPtr@VInterface@DBus@Gio@@@Glib@@V?$allocator@V?$RefPtr@VInterface@DBus@Gio@@@Glib@@@std@@@std@@QEAA@XZ
    ?begin@?$vector@V?$RefPtr@VInterface@DBus@Gio@@@Glib@@V?$allocator@V?$RefPtr@VInterface@DBus@Gio@@@Glib@@@std@@@std@@QEBA?AV?$_Vector_const_iterator@V?$_Vector_val@U?$_Simple_types@V?$RefPtr@VInterface@DBus@Gio@@@Glib@@@std@@@std@@@2@XZ
    ?end@?$vector@V?$RefPtr@VInterface@DBus@Gio@@@Glib@@V?$allocator@V?$RefPtr@VInterface@DBus@Gio@@@Glib@@@std@@@std@@QEBA?AV?$_Vector_const_iterator@V?$_Vector_val@U?$_Simple_types@V?$RefPtr@VInterface@DBus@Gio@@@Glib@@@std@@@std@@@2@XZ
    ?max_size@?$vector@V?$RefPtr@VInterface@DBus@Gio@@@Glib@@V?$allocator@V?$RefPtr@VInterface@DBus@Gio@@@Glib@@@std@@@std@@QEBA_KXZ
    ?_Buy_raw@?$vector@V?$RefPtr@VInterface@DBus@Gio@@@Glib@@V?$allocator@V?$RefPtr@VInterface@DBus@Gio@@@Glib@@@std@@@std@@AEAAX_K@Z
    ?_Buy_nonzero@?$vector@V?$RefPtr@VInterface@DBus@Gio@@@Glib@@V?$allocator@V?$RefPtr@VInterface@DBus@Gio@@@Glib@@@std@@@std@@AEAAX_K@Z
    ?_Tidy@?$vector@V?$RefPtr@VInterface@DBus@Gio@@@Glib@@V?$allocator@V?$RefPtr@VInterface@DBus@Gio@@@Glib@@@std@@@std@@AEAAXXZ
    ?_Xlength@?$vector@V?$RefPtr@VInterface@DBus@Gio@@@Glib@@V?$allocator@V?$RefPtr@VInterface@DBus@Gio@@@Glib@@@std@@@std@@CAXXZ
    ?_Getal@?$vector@V?$RefPtr@VInterface@DBus@Gio@@@Glib@@V?$allocator@V?$RefPtr@VInterface@DBus@Gio@@@Glib@@@std@@@std@@AEAAAEAV?$allocator@V?$RefPtr@VInterface@DBus@Gio@@@Glib@@@2@XZ
    ?_Getal@?$vector@V?$RefPtr@VInterface@DBus@Gio@@@Glib@@V?$allocator@V?$RefPtr@VInterface@DBus@Gio@@@Glib@@@std@@@std@@AEBAAEBV?$allocator@V?$RefPtr@VInterface@DBus@Gio@@@Glib@@@2@XZ
    ??0?$_Vector_val@U?$_Simple_types@V?$RefPtr@VInterface@DBus@Gio@@@Glib@@@std@@@std@@QEAA@XZ
    ??0?$_Vector_val@U?$_Simple_types@V?$RefPtr@VInterface@DBus@Gio@@@Glib@@@std@@@std@@QEAA@PEAV?$RefPtr@VInterface@DBus@Gio@@@Glib@@00@Z
    ?_Get_first@?$_Compressed_pair@V?$allocator@V?$RefPtr@VInterface@DBus@Gio@@@Glib@@@std@@V?$_Vector_val@U?$_Simple_types@V?$RefPtr@VInterface@DBus@Gio@@@Glib@@@std@@@2@$00@std@@QEAAAEAV?$allocator@V?$RefPtr@VInterface@DBus@Gio@@@Glib@@@2@XZ
    ?_Get_first@?$_Compressed_pair@V?$allocator@V?$RefPtr@VInterface@DBus@Gio@@@Glib@@@std@@V?$_Vector_val@U?$_Simple_types@V?$RefPtr@VInterface@DBus@Gio@@@Glib@@@std@@@2@$00@std@@QEBAAEBV?$allocator@V?$RefPtr@VInterface@DBus@Gio@@@Glib@@@2@XZ
    ??0?$GListKeeper@U?$TypeTraits@V?$RefPtr@VInterface@DBus@Gio@@@Glib@@@Container_Helpers@Glib@@@Container_Helpers@Glib@@QEAA@PEBU_GList@@W4OwnershipType@2@@Z
    ??1?$GListKeeper@U?$TypeTraits@V?$RefPtr@VInterface@DBus@Gio@@@Glib@@@Container_Helpers@Glib@@@Container_Helpers@Glib@@QEAA@XZ
    ?data@?$GListKeeper@U?$TypeTraits@V?$RefPtr@VInterface@DBus@Gio@@@Glib@@@Container_Helpers@Glib@@@Container_Helpers@Glib@@QEBAPEAU_GList@@XZ
    ??$move@AEAVObject@DBus@Gio@@@std@@YA$$QEAVObject@DBus@Gio@@AEAV123@@Z
    ??0?$allocator@V?$RefPtr@$$CBVInterface@DBus@Gio@@@Glib@@@std@@QEAA@XZ
    ?deallocate@?$allocator@V?$RefPtr@$$CBVInterface@DBus@Gio@@@Glib@@@std@@QEAAXQEAV?$RefPtr@$$CBVInterface@DBus@Gio@@@Glib@@_K@Z
    ?allocate@?$allocator@V?$RefPtr@$$CBVInterface@DBus@Gio@@@Glib@@@std@@QEAAPEAV?$RefPtr@$$CBVInterface@DBus@Gio@@@Glib@@_K@Z
    ?max_size@?$_Default_allocator_traits@V?$allocator@V?$RefPtr@$$CBVInterface@DBus@Gio@@@Glib@@@std@@@std@@SA_KAEBV?$allocator@V?$RefPtr@$$CBVInterface@DBus@Gio@@@Glib@@@2@@Z
    ??1?$vector@V?$RefPtr@$$CBVInterface@DBus@Gio@@@Glib@@V?$allocator@V?$RefPtr@$$CBVInterface@DBus@Gio@@@Glib@@@std@@@std@@QEAA@XZ
    ?max_size@?$vector@V?$RefPtr@$$CBVInterface@DBus@Gio@@@Glib@@V?$allocator@V?$RefPtr@$$CBVInterface@DBus@Gio@@@Glib@@@std@@@std@@QEBA_KXZ
    ?_Buy_raw@?$vector@V?$RefPtr@$$CBVInterface@DBus@Gio@@@Glib@@V?$allocator@V?$RefPtr@$$CBVInterface@DBus@Gio@@@Glib@@@std@@@std@@AEAAX_K@Z
    ?_Buy_nonzero@?$vector@V?$RefPtr@$$CBVInterface@DBus@Gio@@@Glib@@V?$allocator@V?$RefPtr@$$CBVInterface@DBus@Gio@@@Glib@@@std@@@std@@AEAAX_K@Z
    ?_Tidy@?$vector@V?$RefPtr@$$CBVInterface@DBus@Gio@@@Glib@@V?$allocator@V?$RefPtr@$$CBVInterface@DBus@Gio@@@Glib@@@std@@@std@@AEAAXXZ
    ?_Xlength@?$vector@V?$RefPtr@$$CBVInterface@DBus@Gio@@@Glib@@V?$allocator@V?$RefPtr@$$CBVInterface@DBus@Gio@@@Glib@@@std@@@std@@CAXXZ
    ?_Getal@?$vector@V?$RefPtr@$$CBVInterface@DBus@Gio@@@Glib@@V?$allocator@V?$RefPtr@$$CBVInterface@DBus@Gio@@@Glib@@@std@@@std@@AEAAAEAV?$allocator@V?$RefPtr@$$CBVInterface@DBus@Gio@@@Glib@@@2@XZ
    ?_Getal@?$vector@V?$RefPtr@$$CBVInterface@DBus@Gio@@@Glib@@V?$allocator@V?$RefPtr@$$CBVInterface@DBus@Gio@@@Glib@@@std@@@std@@AEBAAEBV?$allocator@V?$RefPtr@$$CBVInterface@DBus@Gio@@@Glib@@@2@XZ
    ??0?$_Vector_val@U?$_Simple_types@V?$RefPtr@$$CBVInterface@DBus@Gio@@@Glib@@@std@@@std@@QEAA@XZ
    ?_Get_first@?$_Compressed_pair@V?$allocator@V?$RefPtr@$$CBVInterface@DBus@Gio@@@Glib@@@std@@V?$_Vector_val@U?$_Simple_types@V?$RefPtr@$$CBVInterface@DBus@Gio@@@Glib@@@std@@@2@$00@std@@QEAAAEAV?$allocator@V?$RefPtr@$$CBVInterface@DBus@Gio@@@Glib@@@2@XZ
    ?_Get_first@?$_Compressed_pair@V?$allocator@V?$RefPtr@$$CBVInterface@DBus@Gio@@@Glib@@@std@@V?$_Vector_val@U?$_Simple_types@V?$RefPtr@$$CBVInterface@DBus@Gio@@@Glib@@@std@@@2@$00@std@@QEBAAEBV?$allocator@V?$RefPtr@$$CBVInterface@DBus@Gio@@@Glib@@@2@XZ
    ?to_cpp_type@?$TypeTraits@V?$RefPtr@$$CBVInterface@DBus@Gio@@@Glib@@@Container_Helpers@Glib@@SA?AV?$RefPtr@$$CBVInterface@DBus@Gio@@@3@PEBU_GDBusInterface@@@Z
    ?release_c_type@?$TypeTraits@V?$RefPtr@$$CBVInterface@DBus@Gio@@@Glib@@@Container_Helpers@Glib@@SAXPEBU_GDBusInterface@@@Z
    ?list_to_vector@?$ListHandler@V?$RefPtr@$$CBVInterface@DBus@Gio@@@Glib@@U?$TypeTraits@V?$RefPtr@$$CBVInterface@DBus@Gio@@@Glib@@@Container_Helpers@2@@Glib@@SA?AV?$vector@V?$RefPtr@$$CBVInterface@DBus@Gio@@@Glib@@V?$allocator@V?$RefPtr@$$CBVInterface@DBus@Gio@@@Glib@@@std@@@std@@PEAU_GList@@W4OwnershipType@2@@Z
    ??1?$RefPtr@$$CBVInterface@DBus@Gio@@@Glib@@QEAA@XZ
    ??0?$RefPtr@$$CBVInterface@DBus@Gio@@@Glib@@QEAA@PEBVInterface@DBus@Gio@@@Z
    ??0?$RefPtr@$$CBVInterface@DBus@Gio@@@Glib@@QEAA@$$QEAV01@@Z
    ??$?0VInterface@DBus@Gio@@@?$RefPtr@$$CBVInterface@DBus@Gio@@@Glib@@QEAA@$$QEAV?$RefPtr@VInterface@DBus@Gio@@@1@@Z
    ??0?$SignalProxy@XAEBV?$RefPtr@VInterface@DBus@Gio@@@Glib@@@Glib@@QEAA@PEAVObjectBase@1@PEBUSignalProxyInfo@1@@Z
    ??1?$SignalProxy@XAEBV?$RefPtr@VInterface@DBus@Gio@@@Glib@@@Glib@@QEAA@XZ
    ??$unwrap@VInterface@DBus@Gio@@@Glib@@YAPEAU_GDBusInterface@@AEBV?$RefPtr@VInterface@DBus@Gio@@@0@@Z
    ??$min@_K@std@@YAAEB_KAEB_K0@Z
    ??0?$ListIterator@U?$TypeTraits@V?$RefPtr@VInterface@DBus@Gio@@@Glib@@@Container_Helpers@Glib@@@Container_Helpers@Glib@@QEAA@PEBU_GList@@@Z
    ??D?$ListIterator@U?$TypeTraits@V?$RefPtr@VInterface@DBus@Gio@@@Glib@@@Container_Helpers@Glib@@@Container_Helpers@Glib@@QEBA?AV?$RefPtr@VInterface@DBus@Gio@@@2@XZ
    ??E?$ListIterator@U?$TypeTraits@V?$RefPtr@VInterface@DBus@Gio@@@Glib@@@Container_Helpers@Glib@@@Container_Helpers@Glib@@QEAAAEAV012@XZ
    ??9?$ListIterator@U?$TypeTraits@V?$RefPtr@VInterface@DBus@Gio@@@Glib@@@Container_Helpers@Glib@@@Container_Helpers@Glib@@QEBA_NAEBV012@@Z
    ??$?0V?$ListIterator@U?$TypeTraits@V?$RefPtr@VInterface@DBus@Gio@@@Glib@@@Container_Helpers@Glib@@@Container_Helpers@Glib@@$0A@@?$vector@V?$RefPtr@VInterface@DBus@Gio@@@Glib@@V?$allocator@V?$RefPtr@VInterface@DBus@Gio@@@Glib@@@std@@@std@@QEAA@V?$ListIterator@U?$TypeTraits@V?$RefPtr@VInterface@DBus@Gio@@@Glib@@@Container_Helpers@Glib@@@Container_Helpers@Glib@@0AEBV?$allocator@V?$RefPtr@VInterface@DBus@Gio@@@Glib@@@1@@Z
    ??0?$_Vector_const_iterator@V?$_Vector_val@U?$_Simple_types@V?$RefPtr@VInterface@DBus@Gio@@@Glib@@@std@@@std@@@std@@QEAA@PEAV?$RefPtr@VInterface@DBus@Gio@@@Glib@@PEBU_Container_base0@1@@Z
    ??D?$_Vector_const_iterator@V?$_Vector_val@U?$_Simple_types@V?$RefPtr@VInterface@DBus@Gio@@@Glib@@@std@@@std@@@std@@QEBAAEBV?$RefPtr@VInterface@DBus@Gio@@@Glib@@XZ
    ??F?$_Vector_const_iterator@V?$_Vector_val@U?$_Simple_types@V?$RefPtr@VInterface@DBus@Gio@@@Glib@@@std@@@std@@@std@@QEAAAEAV01@XZ
    ??8?$_Vector_const_iterator@V?$_Vector_val@U?$_Simple_types@V?$RefPtr@VInterface@DBus@Gio@@@Glib@@@std@@@std@@@std@@QEBA_NAEBV01@@Z
    ??9?$_Vector_const_iterator@V?$_Vector_val@U?$_Simple_types@V?$RefPtr@VInterface@DBus@Gio@@@Glib@@@std@@@std@@@std@@QEBA_NAEBV01@@Z
    ?_Compat@?$_Vector_const_iterator@V?$_Vector_val@U?$_Simple_types@V?$RefPtr@VInterface@DBus@Gio@@@Glib@@@std@@@std@@@std@@QEBAXAEBV12@@Z
    ??$create_glist@U?$TypeTraits@V?$RefPtr@VInterface@DBus@Gio@@@Glib@@@Container_Helpers@Glib@@@Container_Helpers@Glib@@YAPEAU_GList@@V?$_Vector_const_iterator@V?$_Vector_val@U?$_Simple_types@V?$RefPtr@VInterface@DBus@Gio@@@Glib@@@std@@@std@@@std@@V34@@Z
    ??0?$GListKeeper@U?$TypeTraits@V?$RefPtr@$$CBVInterface@DBus@Gio@@@Glib@@@Container_Helpers@Glib@@@Container_Helpers@Glib@@QEAA@PEBU_GList@@W4OwnershipType@2@@Z
    ??1?$GListKeeper@U?$TypeTraits@V?$RefPtr@$$CBVInterface@DBus@Gio@@@Glib@@@Container_Helpers@Glib@@@Container_Helpers@Glib@@QEAA@XZ
    ??0?$ListIterator@U?$TypeTraits@V?$RefPtr@$$CBVInterface@DBus@Gio@@@Glib@@@Container_Helpers@Glib@@@Container_Helpers@Glib@@QEAA@PEBU_GList@@@Z
    ??D?$ListIterator@U?$TypeTraits@V?$RefPtr@$$CBVInterface@DBus@Gio@@@Glib@@@Container_Helpers@Glib@@@Container_Helpers@Glib@@QEBA?AV?$RefPtr@$$CBVInterface@DBus@Gio@@@2@XZ
    ??E?$ListIterator@U?$TypeTraits@V?$RefPtr@$$CBVInterface@DBus@Gio@@@Glib@@@Container_Helpers@Glib@@@Container_Helpers@Glib@@QEAAAEAV012@XZ
    ??9?$ListIterator@U?$TypeTraits@V?$RefPtr@$$CBVInterface@DBus@Gio@@@Glib@@@Container_Helpers@Glib@@@Container_Helpers@Glib@@QEBA_NAEBV012@@Z
    ??$?0V?$ListIterator@U?$TypeTraits@V?$RefPtr@$$CBVInterface@DBus@Gio@@@Glib@@@Container_Helpers@Glib@@@Container_Helpers@Glib@@$0A@@?$vector@V?$RefPtr@$$CBVInterface@DBus@Gio@@@Glib@@V?$allocator@V?$RefPtr@$$CBVInterface@DBus@Gio@@@Glib@@@std@@@std@@QEAA@V?$ListIterator@U?$TypeTraits@V?$RefPtr@$$CBVInterface@DBus@Gio@@@Glib@@@Container_Helpers@Glib@@@Container_Helpers@Glib@@0AEBV?$allocator@V?$RefPtr@$$CBVInterface@DBus@Gio@@@Glib@@@1@@Z
    ??$function_pointer_cast@P6AXPEAUslot_rep@internal@sigc@@AEBV?$RefPtr@VInterface@DBus@Gio@@@Glib@@@ZP6APEAXPEAX@Z@internal@sigc@@YAP6AXPEAUslot_rep@01@AEBV?$RefPtr@VInterface@DBus@Gio@@@Glib@@@ZP6APEAXPEAX@Z@Z
    ??$move@AEAV?$allocator@V?$RefPtr@VInterface@DBus@Gio@@@Glib@@@std@@@std@@YA$$QEAV?$allocator@V?$RefPtr@VInterface@DBus@Gio@@@Glib@@@0@AEAV10@@Z
    ??$exchange@PEAV?$RefPtr@VInterface@DBus@Gio@@@Glib@@$$T@std@@YAPEAV?$RefPtr@VInterface@DBus@Gio@@@Glib@@AEAPEAV12@$$QEA$$T@Z
    ??$?0V?$allocator@V?$RefPtr@VInterface@DBus@Gio@@@Glib@@@std@@PEAV?$RefPtr@VInterface@DBus@Gio@@@Glib@@PEAV23@PEAV23@@?$_Compressed_pair@V?$allocator@V?$RefPtr@VInterface@DBus@Gio@@@Glib@@@std@@V?$_Vector_val@U?$_Simple_types@V?$RefPtr@VInterface@DBus@Gio@@@Glib@@@std@@@2@$00@std@@QEAA@U_One_then_variadic_args_t@1@$$QEAV?$allocator@V?$RefPtr@VInterface@DBus@Gio@@@Glib@@@1@$$QEAPEAV?$RefPtr@VInterface@DBus@Gio@@@Glib@@22@Z
    ??$?0$$V@?$_Compressed_pair@V?$allocator@V?$RefPtr@VInterface@DBus@Gio@@@Glib@@@std@@V?$_Vector_val@U?$_Simple_types@V?$RefPtr@VInterface@DBus@Gio@@@Glib@@@std@@@2@$00@std@@QEAA@U_Zero_then_variadic_args_t@1@@Z
    ??$_Convert_size@_K_K@std@@YA_K_K@Z
    ??$?0AEBV?$allocator@V?$RefPtr@VInterface@DBus@Gio@@@Glib@@@std@@$$V@?$_Compressed_pair@V?$allocator@V?$RefPtr@VInterface@DBus@Gio@@@Glib@@@std@@V?$_Vector_val@U?$_Simple_types@V?$RefPtr@VInterface@DBus@Gio@@@Glib@@@std@@@2@$00@std@@QEAA@U_One_then_variadic_args_t@1@AEBV?$allocator@V?$RefPtr@VInterface@DBus@Gio@@@Glib@@@1@@Z
    ??$_Adl_verify_range@V?$ListIterator@U?$TypeTraits@V?$RefPtr@VInterface@DBus@Gio@@@Glib@@@Container_Helpers@Glib@@@Container_Helpers@Glib@@V123@@std@@YAXAEBV?$ListIterator@U?$TypeTraits@V?$RefPtr@VInterface@DBus@Gio@@@Glib@@@Container_Helpers@Glib@@@Container_Helpers@Glib@@0@Z
    ??$_Get_unwrapped@AEAV?$ListIterator@U?$TypeTraits@V?$RefPtr@VInterface@DBus@Gio@@@Glib@@@Container_Helpers@Glib@@@Container_Helpers@Glib@@@std@@YA?A_TAEAV?$ListIterator@U?$TypeTraits@V?$RefPtr@VInterface@DBus@Gio@@@Glib@@@Container_Helpers@Glib@@@Container_Helpers@Glib@@@Z
    ??$distance@V?$ListIterator@U?$TypeTraits@V?$RefPtr@VInterface@DBus@Gio@@@Glib@@@Container_Helpers@Glib@@@Container_Helpers@Glib@@@std@@YA_JV?$ListIterator@U?$TypeTraits@V?$RefPtr@VInterface@DBus@Gio@@@Glib@@@Container_Helpers@Glib@@@Container_Helpers@Glib@@0@Z
    ??$move@AEAV?$ListIterator@U?$TypeTraits@V?$RefPtr@VInterface@DBus@Gio@@@Glib@@@Container_Helpers@Glib@@@Container_Helpers@Glib@@@std@@YA$$QEAV?$ListIterator@U?$TypeTraits@V?$RefPtr@VInterface@DBus@Gio@@@Glib@@@Container_Helpers@Glib@@@Container_Helpers@Glib@@AEAV123@@Z
    ??$_Construct_n@V?$ListIterator@U?$TypeTraits@V?$RefPtr@VInterface@DBus@Gio@@@Glib@@@Container_Helpers@Glib@@@Container_Helpers@Glib@@V123@@?$vector@V?$RefPtr@VInterface@DBus@Gio@@@Glib@@V?$allocator@V?$RefPtr@VInterface@DBus@Gio@@@Glib@@@std@@@std@@AEAAX_K$$QEAV?$ListIterator@U?$TypeTraits@V?$RefPtr@VInterface@DBus@Gio@@@Glib@@@Container_Helpers@Glib@@@Container_Helpers@Glib@@1@Z
    ??$?0AEBV?$allocator@V?$RefPtr@$$CBVInterface@DBus@Gio@@@Glib@@@std@@$$V@?$_Compressed_pair@V?$allocator@V?$RefPtr@$$CBVInterface@DBus@Gio@@@Glib@@@std@@V?$_Vector_val@U?$_Simple_types@V?$RefPtr@$$CBVInterface@DBus@Gio@@@Glib@@@std@@@2@$00@std@@QEAA@U_One_then_variadic_args_t@1@AEBV?$allocator@V?$RefPtr@$$CBVInterface@DBus@Gio@@@Glib@@@1@@Z
    ??$_Adl_verify_range@V?$ListIterator@U?$TypeTraits@V?$RefPtr@$$CBVInterface@DBus@Gio@@@Glib@@@Container_Helpers@Glib@@@Container_Helpers@Glib@@V123@@std@@YAXAEBV?$ListIterator@U?$TypeTraits@V?$RefPtr@$$CBVInterface@DBus@Gio@@@Glib@@@Container_Helpers@Glib@@@Container_Helpers@Glib@@0@Z
    ??$_Get_unwrapped@AEAV?$ListIterator@U?$TypeTraits@V?$RefPtr@$$CBVInterface@DBus@Gio@@@Glib@@@Container_Helpers@Glib@@@Container_Helpers@Glib@@@std@@YA?A_TAEAV?$ListIterator@U?$TypeTraits@V?$RefPtr@$$CBVInterface@DBus@Gio@@@Glib@@@Container_Helpers@Glib@@@Container_Helpers@Glib@@@Z
    ??$distance@V?$ListIterator@U?$TypeTraits@V?$RefPtr@$$CBVInterface@DBus@Gio@@@Glib@@@Container_Helpers@Glib@@@Container_Helpers@Glib@@@std@@YA_JV?$ListIterator@U?$TypeTraits@V?$RefPtr@$$CBVInterface@DBus@Gio@@@Glib@@@Container_Helpers@Glib@@@Container_Helpers@Glib@@0@Z
    ??$move@AEAV?$ListIterator@U?$TypeTraits@V?$RefPtr@$$CBVInterface@DBus@Gio@@@Glib@@@Container_Helpers@Glib@@@Container_Helpers@Glib@@@std@@YA$$QEAV?$ListIterator@U?$TypeTraits@V?$RefPtr@$$CBVInterface@DBus@Gio@@@Glib@@@Container_Helpers@Glib@@@Container_Helpers@Glib@@AEAV123@@Z
    ??$_Construct_n@V?$ListIterator@U?$TypeTraits@V?$RefPtr@$$CBVInterface@DBus@Gio@@@Glib@@@Container_Helpers@Glib@@@Container_Helpers@Glib@@V123@@?$vector@V?$RefPtr@$$CBVInterface@DBus@Gio@@@Glib@@V?$allocator@V?$RefPtr@$$CBVInterface@DBus@Gio@@@Glib@@@std@@@std@@AEAAX_K$$QEAV?$ListIterator@U?$TypeTraits@V?$RefPtr@$$CBVInterface@DBus@Gio@@@Glib@@@Container_Helpers@Glib@@@Container_Helpers@Glib@@1@Z
    ??$forward@V?$allocator@V?$RefPtr@VInterface@DBus@Gio@@@Glib@@@std@@@std@@YA$$QEAV?$allocator@V?$RefPtr@VInterface@DBus@Gio@@@Glib@@@0@AEAV10@@Z
    ??$forward@PEAV?$RefPtr@VInterface@DBus@Gio@@@Glib@@@std@@YA$$QEAPEAV?$RefPtr@VInterface@DBus@Gio@@@Glib@@AEAPEAV12@@Z
    ??$_Destroy_range@V?$allocator@V?$RefPtr@$$CBVInterface@DBus@Gio@@@Glib@@@std@@@std@@YAXPEAV?$RefPtr@$$CBVInterface@DBus@Gio@@@Glib@@QEAV12@AEAV?$allocator@V?$RefPtr@$$CBVInterface@DBus@Gio@@@Glib@@@0@@Z
    ??$_Destroy_range@V?$allocator@V?$RefPtr@VInterface@DBus@Gio@@@Glib@@@std@@@std@@YAXPEAV?$RefPtr@VInterface@DBus@Gio@@@Glib@@QEAV12@AEAV?$allocator@V?$RefPtr@VInterface@DBus@Gio@@@Glib@@@0@@Z
    ??$addressof@$$CBV?$_Vector_val@U?$_Simple_types@V?$RefPtr@VInterface@DBus@Gio@@@Glib@@@std@@@std@@@std@@YAPEBV?$_Vector_val@U?$_Simple_types@V?$RefPtr@VInterface@DBus@Gio@@@Glib@@@std@@@0@AEBV10@@Z
    ??$_Deallocate@$0BA@@std@@YAXPEAX_K@Z
    ??$forward@AEBV?$allocator@V?$RefPtr@VInterface@DBus@Gio@@@Glib@@@std@@@std@@YAAEBV?$allocator@V?$RefPtr@VInterface@DBus@Gio@@@Glib@@@0@AEBV10@@Z
    ??1?$_Tidy_guard@V?$vector@V?$RefPtr@VInterface@DBus@Gio@@@Glib@@V?$allocator@V?$RefPtr@VInterface@DBus@Gio@@@Glib@@@std@@@std@@@std@@QEAA@XZ
    ??$forward@V?$ListIterator@U?$TypeTraits@V?$RefPtr@VInterface@DBus@Gio@@@Glib@@@Container_Helpers@Glib@@@Container_Helpers@Glib@@@std@@YA$$QEAV?$ListIterator@U?$TypeTraits@V?$RefPtr@VInterface@DBus@Gio@@@Glib@@@Container_Helpers@Glib@@@Container_Helpers@Glib@@AEAV123@@Z
    ??$_Uninitialized_copy@V?$ListIterator@U?$TypeTraits@V?$RefPtr@VInterface@DBus@Gio@@@Glib@@@Container_Helpers@Glib@@@Container_Helpers@Glib@@V123@V?$allocator@V?$RefPtr@VInterface@DBus@Gio@@@Glib@@@std@@@std@@YAPEAV?$RefPtr@VInterface@DBus@Gio@@@Glib@@V?$ListIterator@U?$TypeTraits@V?$RefPtr@VInterface@DBus@Gio@@@Glib@@@Container_Helpers@Glib@@@Container_Helpers@2@0PEAV12@AEAV?$allocator@V?$RefPtr@VInterface@DBus@Gio@@@Glib@@@0@@Z
    ??$forward@AEBV?$allocator@V?$RefPtr@$$CBVInterface@DBus@Gio@@@Glib@@@std@@@std@@YAAEBV?$allocator@V?$RefPtr@$$CBVInterface@DBus@Gio@@@Glib@@@0@AEBV10@@Z
    ??1?$_Tidy_guard@V?$vector@V?$RefPtr@$$CBVInterface@DBus@Gio@@@Glib@@V?$allocator@V?$RefPtr@$$CBVInterface@DBus@Gio@@@Glib@@@std@@@std@@@std@@QEAA@XZ
    ??$forward@V?$ListIterator@U?$TypeTraits@V?$RefPtr@$$CBVInterface@DBus@Gio@@@Glib@@@Container_Helpers@Glib@@@Container_Helpers@Glib@@@std@@YA$$QEAV?$ListIterator@U?$TypeTraits@V?$RefPtr@$$CBVInterface@DBus@Gio@@@Glib@@@Container_Helpers@Glib@@@Container_Helpers@Glib@@AEAV123@@Z
    ??$_Uninitialized_copy@V?$ListIterator@U?$TypeTraits@V?$RefPtr@$$CBVInterface@DBus@Gio@@@Glib@@@Container_Helpers@Glib@@@Container_Helpers@Glib@@V123@V?$allocator@V?$RefPtr@$$CBVInterface@DBus@Gio@@@Glib@@@std@@@std@@YAPEAV?$RefPtr@$$CBVInterface@DBus@Gio@@@Glib@@V?$ListIterator@U?$TypeTraits@V?$RefPtr@$$CBVInterface@DBus@Gio@@@Glib@@@Container_Helpers@Glib@@@Container_Helpers@2@0PEAV12@AEAV?$allocator@V?$RefPtr@$$CBVInterface@DBus@Gio@@@Glib@@@0@@Z
    ??$_Unfancy@V?$RefPtr@$$CBVInterface@DBus@Gio@@@Glib@@@std@@YAPEAV?$RefPtr@$$CBVInterface@DBus@Gio@@@Glib@@PEAV12@@Z
    ??$destroy@V?$RefPtr@$$CBVInterface@DBus@Gio@@@Glib@@@?$_Default_allocator_traits@V?$allocator@V?$RefPtr@$$CBVInterface@DBus@Gio@@@Glib@@@std@@@std@@SAXAEAV?$allocator@V?$RefPtr@$$CBVInterface@DBus@Gio@@@Glib@@@1@QEAV?$RefPtr@$$CBVInterface@DBus@Gio@@@Glib@@@Z
    ??$_Unfancy@V?$RefPtr@VInterface@DBus@Gio@@@Glib@@@std@@YAPEAV?$RefPtr@VInterface@DBus@Gio@@@Glib@@PEAV12@@Z
    ??$destroy@V?$RefPtr@VInterface@DBus@Gio@@@Glib@@@?$_Default_allocator_traits@V?$allocator@V?$RefPtr@VInterface@DBus@Gio@@@Glib@@@std@@@std@@SAXAEAV?$allocator@V?$RefPtr@VInterface@DBus@Gio@@@Glib@@@1@QEAV?$RefPtr@VInterface@DBus@Gio@@@Glib@@@Z
    ??$_Allocate@$0BA@U_Default_allocate_traits@std@@@std@@YAPEAX_K@Z
    ??$_Max_limit@_J@std@@YA_JXZ
    ??$_Get_unwrapped@V?$ListIterator@U?$TypeTraits@V?$RefPtr@VInterface@DBus@Gio@@@Glib@@@Container_Helpers@Glib@@@Container_Helpers@Glib@@@std@@YA?A_T$$QEAV?$ListIterator@U?$TypeTraits@V?$RefPtr@VInterface@DBus@Gio@@@Glib@@@Container_Helpers@Glib@@@Container_Helpers@Glib@@@Z
    ??0?$_Uninitialized_backout_al@V?$allocator@V?$RefPtr@VInterface@DBus@Gio@@@Glib@@@std@@@std@@QEAA@PEAV?$RefPtr@VInterface@DBus@Gio@@@Glib@@AEAV?$allocator@V?$RefPtr@VInterface@DBus@Gio@@@Glib@@@1@@Z
    ??1?$_Uninitialized_backout_al@V?$allocator@V?$RefPtr@VInterface@DBus@Gio@@@Glib@@@std@@@std@@QEAA@XZ
    ?_Release@?$_Uninitialized_backout_al@V?$allocator@V?$RefPtr@VInterface@DBus@Gio@@@Glib@@@std@@@std@@QEAAPEAV?$RefPtr@VInterface@DBus@Gio@@@Glib@@XZ
    ??$_Emplace_back@V?$RefPtr@VInterface@DBus@Gio@@@Glib@@@?$_Uninitialized_backout_al@V?$allocator@V?$RefPtr@VInterface@DBus@Gio@@@Glib@@@std@@@std@@QEAAX$$QEAV?$RefPtr@VInterface@DBus@Gio@@@Glib@@@Z
    ??$_Get_unwrapped@V?$ListIterator@U?$TypeTraits@V?$RefPtr@$$CBVInterface@DBus@Gio@@@Glib@@@Container_Helpers@Glib@@@Container_Helpers@Glib@@@std@@YA?A_T$$QEAV?$ListIterator@U?$TypeTraits@V?$RefPtr@$$CBVInterface@DBus@Gio@@@Glib@@@Container_Helpers@Glib@@@Container_Helpers@Glib@@@Z
    ??0?$_Uninitialized_backout_al@V?$allocator@V?$RefPtr@$$CBVInterface@DBus@Gio@@@Glib@@@std@@@std@@QEAA@PEAV?$RefPtr@$$CBVInterface@DBus@Gio@@@Glib@@AEAV?$allocator@V?$RefPtr@$$CBVInterface@DBus@Gio@@@Glib@@@1@@Z
    ??1?$_Uninitialized_backout_al@V?$allocator@V?$RefPtr@$$CBVInterface@DBus@Gio@@@Glib@@@std@@@std@@QEAA@XZ
    ?_Release@?$_Uninitialized_backout_al@V?$allocator@V?$RefPtr@$$CBVInterface@DBus@Gio@@@Glib@@@std@@@std@@QEAAPEAV?$RefPtr@$$CBVInterface@DBus@Gio@@@Glib@@XZ
    ??$_Emplace_back@V?$RefPtr@$$CBVInterface@DBus@Gio@@@Glib@@@?$_Uninitialized_backout_al@V?$allocator@V?$RefPtr@$$CBVInterface@DBus@Gio@@@Glib@@@std@@@std@@QEAAX$$QEAV?$RefPtr@$$CBVInterface@DBus@Gio@@@Glib@@@Z
    ??$_Allocate_manually_vector_aligned@U_Default_allocate_traits@std@@@std@@YAPEAX_K@Z
    ??$forward@V?$RefPtr@VInterface@DBus@Gio@@@Glib@@@std@@YA$$QEAV?$RefPtr@VInterface@DBus@Gio@@@Glib@@AEAV12@@Z
    ??$construct@V?$RefPtr@VInterface@DBus@Gio@@@Glib@@V12@@?$_Default_allocator_traits@V?$allocator@V?$RefPtr@VInterface@DBus@Gio@@@Glib@@@std@@@std@@SAXAEAV?$allocator@V?$RefPtr@VInterface@DBus@Gio@@@Glib@@@1@QEAV?$RefPtr@VInterface@DBus@Gio@@@Glib@@$$QEAV34@@Z
    ??$forward@V?$RefPtr@$$CBVInterface@DBus@Gio@@@Glib@@@std@@YA$$QEAV?$RefPtr@$$CBVInterface@DBus@Gio@@@Glib@@AEAV12@@Z
    ??$construct@V?$RefPtr@$$CBVInterface@DBus@Gio@@@Glib@@V12@@?$_Default_allocator_traits@V?$allocator@V?$RefPtr@$$CBVInterface@DBus@Gio@@@Glib@@@std@@@std@@SAXAEAV?$allocator@V?$RefPtr@$$CBVInterface@DBus@Gio@@@Glib@@@1@QEAV?$RefPtr@$$CBVInterface@DBus@Gio@@@Glib@@$$QEAV34@@Z
    ??$_Allocate_at_least_helper@V?$allocator@V?$RefPtr@$$CBVInterface@DBus@Gio@@@Glib@@@std@@@std@@YAPEAV?$RefPtr@$$CBVInterface@DBus@Gio@@@Glib@@AEAV?$allocator@V?$RefPtr@$$CBVInterface@DBus@Gio@@@Glib@@@0@AEA_K@Z
    ??$_Allocate_at_least_helper@V?$allocator@V?$RefPtr@VInterface@DBus@Gio@@@Glib@@@std@@@std@@YAPEAV?$RefPtr@VInterface@DBus@Gio@@@Glib@@AEAV?$allocator@V?$RefPtr@VInterface@DBus@Gio@@@Glib@@@0@AEA_K@Z
    ??$_Get_size_of_n@$07@std@@YA_K_K@Z
    ??_7exception@std@@6B@
    ??_C@_0BC@EOODALEL@Unknown?5exception@
    ??_7bad_alloc@std@@6B@
    ??_7bad_array_new_length@std@@6B@
    ??_C@_0BF@KINCDENJ@bad?5array?5new?5length@
    ??_R0?AVexception@std@@@8
    _CT??_R0?AVexception@std@@@8??0exception@std@@QEAA@AEBV01@@Z24
    _TI3?AVbad_array_new_length@std@@
    _CTA3?AVbad_array_new_length@std@@
    ??_R0?AVbad_array_new_length@std@@@8
    _CT??_R0?AVbad_array_new_length@std@@@8??0bad_array_new_length@std@@QEAA@AEBV01@@Z24
    ??_R0?AVbad_alloc@std@@@8
    _CT??_R0?AVbad_alloc@std@@@8??0bad_alloc@std@@QEAA@AEBV01@@Z24
    ??_7Object@DBus@Gio@@6B012@@
    ??_7Object@DBus@Gio@@6BInterface@Glib@@@
    ??_8Object@DBus@Gio@@7BInterface@Glib@@@
    ??_8Object@DBus@Gio@@7BObjectBase@Glib@@@
    ??_R0?AVObjectBase@Glib@@@8
    ??_R0?AVObject@DBus@Gio@@@8
    ??_C@_0BB@DJDNGIAO@klass?5?$CB?$DN?5nullptr@
    ??_C@_0CN@HIGPHKMO@Gio?3?3DBus?3?3Object_Class?3?3iface_@
    ??_C@_0BL@EJBJEAMN@?4?4?2gio?2giomm?2dbusobject?4cc@
    ??_C@_0CJ@NOHEKAEP@Gio?3?3DBus?3?3Object?3?3get_object_p@
    ??_C@_0FM@MEPOJGMK@Glib?3?3wrap_auto_interface?$CI?$CJ?3?5Th@
    ??_C@_0BA@FOIKENOD@vector?5too?5long@
    ??_R0?AVInterface@DBus@Gio@@@8
    ??_R4exception@std@@6B@
    ??_R3exception@std@@8
    ??_R2exception@std@@8
    ??_R1A@?0A@EA@exception@std@@8
    ??_R4bad_array_new_length@std@@6B@
    ??_R3bad_array_new_length@std@@8
    ??_R2bad_array_new_length@std@@8
    ??_R1A@?0A@EA@bad_array_new_length@std@@8
    ??_R1A@?0A@EA@bad_alloc@std@@8
    ??_R3bad_alloc@std@@8
    ??_R2bad_alloc@std@@8
    ??_R4bad_alloc@std@@6B@
    ??_R4Object@DBus@Gio@@6B012@@
    ??_R3Object@DBus@Gio@@8
    ??_R2Object@DBus@Gio@@8
    ??_R1A@?0A@EA@Object@DBus@Gio@@8
    ??_R17?0A@EA@Interface@Glib@@8
    ??_R0?AVInterface@Glib@@@8
    ??_R3Interface@Glib@@8
    ??_R2Interface@Glib@@8
    ??_R1A@?0A@EA@Interface@Glib@@8
    ??_R1A@A@7FA@ObjectBase@Glib@@8
    ??_R3ObjectBase@Glib@@8
    ??_R2ObjectBase@Glib@@8
    ??_R1A@?0A@EA@ObjectBase@Glib@@8
    ??_R1A@73FA@trackable@sigc@@8
    ??_R0?AUtrackable@sigc@@@8
    ??_R3trackable@sigc@@8
    ??_R2trackable@sigc@@8
    ??_R1A@?0A@EA@trackable@sigc@@8
    ??_R1A@A@3FA@trackable@sigc@@8
    ??_R1A@77FA@ObjectBase@Glib@@8
    ??_R4Object@DBus@Gio@@6BInterface@Glib@@@
    ?objectmanager_class_@ObjectManager@DBus@Gio@@0VObjectManager_Class@23@A
    ??_C@_0N@CPJJPFBA@object?9added@
    ??_C@_0P@LHEHHDC@object?9removed@
    ??_C@_0BA@PBEFJCIE@interface?9added@
    ??_C@_0BC@MNIPBCAL@interface?9removed@
    ?__empty_global_delete@@YAXPEAX@Z
    ?__empty_global_delete@@YAXPEAX_K@Z
    ??2@YAPEAX_KPEAX@Z
    ??0exception@std@@QEAA@QEBDH@Z
    ??0exception@std@@QEAA@AEBV01@@Z
    ??1exception@std@@UEAA@XZ
    ?what@exception@std@@UEBAPEBDXZ
    ??0bad_alloc@std@@AEAA@QEBD@Z
    ??1bad_alloc@std@@UEAA@XZ
    ??0bad_alloc@std@@QEAA@AEBV01@@Z
    ??0bad_array_new_length@std@@QEAA@XZ
    ??1bad_array_new_length@std@@UEAA@XZ
    ??0bad_array_new_length@std@@QEAA@AEBV01@@Z
    ?_Throw_bad_array_new_length@std@@YAXXZ
    ?_Allocate@_Default_allocate_traits@std@@SAPEAX_K@Z
    ?_Adjust_manually_vector_aligned@std@@YAXAEAPEAXAEA_K@Z
    ?_Orphan_all@_Container_base0@std@@QEAAXXZ
    ?_Swap_proxy_and_iterators@_Container_base0@std@@QEAAXAEAU12@@Z
    ?_Alloc_proxy@_Container_base0@std@@QEAAXAEBU_Fake_allocator@2@@Z
    ?_Adopt@_Iterator_base0@std@@QEAAXPEBX@Z
    ??0_Fake_proxy_ptr_impl@std@@QEAA@AEBU_Fake_allocator@1@AEBU_Container_base0@1@@Z
    ?_Release@_Fake_proxy_ptr_impl@std@@QEAAXXZ
    ?name@type_info@@QEBAPEBDXZ
    ?get_type@Class@Glib@@QEBA_KXZ
    ?data_to_slot@SignalProxyBase@Glib@@SAPEAVslot_base@sigc@@PEAX@Z
    ?convert_const_gchar_ptr_to_ustring@Glib@@YA?AVustring@1@PEBD@Z
    ??0ObjectManager@DBus@Gio@@IEAA@XZ
    ??0ObjectManager@DBus@Gio@@IEAA@AEBVInterface_Class@Glib@@@Z
    ??0ObjectManager@DBus@Gio@@QEAA@PEAU_GDBusObjectManager@@@Z
    ??0ObjectManager@DBus@Gio@@QEAA@$$QEAV012@@Z
    ??4ObjectManager@DBus@Gio@@QEAAAEAV012@$$QEAV012@@Z
    ??1ObjectManager@DBus@Gio@@UEAA@XZ
    ?add_interface@ObjectManager@DBus@Gio@@SAX_K@Z
    ?get_type@ObjectManager@DBus@Gio@@SA_KXZ
    ?get_base_type@ObjectManager@DBus@Gio@@SA_KXZ
    ?gobj@ObjectManager@DBus@Gio@@QEAAPEAU_GDBusObjectManager@@XZ
    ?gobj@ObjectManager@DBus@Gio@@QEBAPEBU_GDBusObjectManager@@XZ
    ?get_object_path@ObjectManager@DBus@Gio@@QEBA?AVustring@Glib@@XZ
    ?get_objects@ObjectManager@DBus@Gio@@QEAA?AV?$vector@V?$RefPtr@VObject@DBus@Gio@@@Glib@@V?$allocator@V?$RefPtr@VObject@DBus@Gio@@@Glib@@@std@@@std@@XZ
    ?get_objects@ObjectManager@DBus@Gio@@QEBA?AV?$vector@V?$RefPtr@$$CBVObject@DBus@Gio@@@Glib@@V?$allocator@V?$RefPtr@$$CBVObject@DBus@Gio@@@Glib@@@std@@@std@@XZ
    ?get_object@ObjectManager@DBus@Gio@@QEAA?AV?$RefPtr@VObject@DBus@Gio@@@Glib@@AEBVustring@5@@Z
    ?get_object@ObjectManager@DBus@Gio@@QEBA?AV?$RefPtr@$$CBVObject@DBus@Gio@@@Glib@@AEBVustring@5@@Z
    ?get_interface@ObjectManager@DBus@Gio@@QEAA?AV?$RefPtr@VInterface@DBus@Gio@@@Glib@@AEBVustring@5@0@Z
    ?get_interface@ObjectManager@DBus@Gio@@QEBA?AV?$RefPtr@$$CBVInterface@DBus@Gio@@@Glib@@AEBVustring@5@0@Z
    ?signal_object_added@ObjectManager@DBus@Gio@@QEAA?AV?$SignalProxy@XAEBV?$RefPtr@VObject@DBus@Gio@@@Glib@@@Glib@@XZ
    ?signal_object_removed@ObjectManager@DBus@Gio@@QEAA?AV?$SignalProxy@XAEBV?$RefPtr@VObject@DBus@Gio@@@Glib@@@Glib@@XZ
    ?signal_interface_added@ObjectManager@DBus@Gio@@QEAA?AV?$SignalProxy@XAEBV?$RefPtr@VObject@DBus@Gio@@@Glib@@AEBV?$RefPtr@VInterface@DBus@Gio@@@2@@Glib@@XZ
    ?signal_interface_removed@ObjectManager@DBus@Gio@@QEAA?AV?$SignalProxy@XAEBV?$RefPtr@VObject@DBus@Gio@@@Glib@@AEBV?$RefPtr@VInterface@DBus@Gio@@@2@@Glib@@XZ
    ?get_object_path_vfunc@ObjectManager@DBus@Gio@@MEBA?AVustring@Glib@@XZ
    ?get_objects_vfunc@ObjectManager@DBus@Gio@@MEBA?AV?$vector@V?$RefPtr@VObject@DBus@Gio@@@Glib@@V?$allocator@V?$RefPtr@VObject@DBus@Gio@@@Glib@@@std@@@std@@XZ
    ?get_object_vfunc@ObjectManager@DBus@Gio@@MEBA?AV?$RefPtr@VObject@DBus@Gio@@@Glib@@AEBVustring@5@@Z
    ?get_interface_vfunc@ObjectManager@DBus@Gio@@MEBA?AV?$RefPtr@VInterface@DBus@Gio@@@Glib@@AEBVustring@5@0@Z
    ?on_object_added@ObjectManager@DBus@Gio@@MEAAXAEBV?$RefPtr@VObject@DBus@Gio@@@Glib@@@Z
    ?on_object_removed@ObjectManager@DBus@Gio@@MEAAXAEBV?$RefPtr@VObject@DBus@Gio@@@Glib@@@Z
    ?on_interface_added@ObjectManager@DBus@Gio@@MEAAXAEBV?$RefPtr@VObject@DBus@Gio@@@Glib@@AEBV?$RefPtr@VInterface@DBus@Gio@@@5@@Z
    ?on_interface_removed@ObjectManager@DBus@Gio@@MEAAXAEBV?$RefPtr@VObject@DBus@Gio@@@Glib@@AEBV?$RefPtr@VInterface@DBus@Gio@@@5@@Z
    ??_DObjectManager@DBus@Gio@@QEAAXXZ
    ?wrap@Glib@@YA?AV?$RefPtr@VObjectManager@DBus@Gio@@@1@PEAU_GDBusObjectManager@@_N@Z
    ?init@ObjectManager_Class@DBus@Gio@@QEAAAEBVInterface_Class@Glib@@XZ
    ?iface_init_function@ObjectManager_Class@DBus@Gio@@SAXPEAX0@Z
    ?wrap_new@ObjectManager_Class@DBus@Gio@@SAPEAVObjectBase@Glib@@PEAU_GObject@@@Z
    ?object_added_callback@ObjectManager_Class@DBus@Gio@@KAXPEAU_GDBusObjectManager@@PEAU_GDBusObject@@@Z
    ?object_removed_callback@ObjectManager_Class@DBus@Gio@@KAXPEAU_GDBusObjectManager@@PEAU_GDBusObject@@@Z
    ?interface_added_callback@ObjectManager_Class@DBus@Gio@@KAXPEAU_GDBusObjectManager@@PEAU_GDBusObject@@PEAU_GDBusInterface@@@Z
    ?interface_removed_callback@ObjectManager_Class@DBus@Gio@@KAXPEAU_GDBusObjectManager@@PEAU_GDBusObject@@PEAU_GDBusInterface@@@Z
    ?get_object_path_vfunc_callback@ObjectManager_Class@DBus@Gio@@KAPEBDPEAU_GDBusObjectManager@@@Z
    ?get_objects_vfunc_callback@ObjectManager_Class@DBus@Gio@@KAPEAU_GList@@PEAU_GDBusObjectManager@@@Z
    ?get_object_vfunc_callback@ObjectManager_Class@DBus@Gio@@KAPEAU_GDBusObject@@PEAU_GDBusObjectManager@@PEBD@Z
    ?get_interface_vfunc_callback@ObjectManager_Class@DBus@Gio@@KAPEAU_GDBusInterface@@PEAU_GDBusObjectManager@@PEBD1@Z
    ?gobj@Object@DBus@Gio@@QEAAPEAU_GDBusObject@@XZ
    ?gobj@Interface@DBus@Gio@@QEAAPEAU_GDBusInterface@@XZ
    ??0?$RefPtr@VObject@DBus@Gio@@@Glib@@QEAA@XZ
    ??1?$RefPtr@VObject@DBus@Gio@@@Glib@@QEAA@XZ
    ??0?$RefPtr@VObject@DBus@Gio@@@Glib@@QEAA@PEAVObject@DBus@Gio@@@Z
    ??0?$RefPtr@VObject@DBus@Gio@@@Glib@@QEAA@$$QEAV01@@Z
    ??C?$RefPtr@VObject@DBus@Gio@@@Glib@@QEBAPEAVObject@DBus@Gio@@XZ
    ??B?$RefPtr@VObject@DBus@Gio@@@Glib@@QEBA_NXZ
    ?release@?$RefPtr@VObject@DBus@Gio@@@Glib@@QEAAPEAVObject@DBus@Gio@@XZ
    ??0?$RefPtr@VInterface@DBus@Gio@@@Glib@@QEAA@XZ
    ??1?$RefPtr@VInterface@DBus@Gio@@@Glib@@QEAA@XZ
    ??0?$RefPtr@VInterface@DBus@Gio@@@Glib@@QEAA@$$QEAV01@@Z
    ??C?$RefPtr@VInterface@DBus@Gio@@@Glib@@QEBAPEAVInterface@DBus@Gio@@XZ
    ??B?$RefPtr@VInterface@DBus@Gio@@@Glib@@QEBA_NXZ
    ?release@?$RefPtr@VInterface@DBus@Gio@@@Glib@@QEAAPEAVInterface@DBus@Gio@@XZ
    ??R?$slot1@XAEBV?$RefPtr@VObject@DBus@Gio@@@Glib@@@sigc@@QEBAXAEBV?$RefPtr@VObject@DBus@Gio@@@Glib@@@Z
    ??R?$slot2@XAEBV?$RefPtr@VObject@DBus@Gio@@@Glib@@AEBV?$RefPtr@VInterface@DBus@Gio@@@2@@sigc@@QEBAXAEBV?$RefPtr@VObject@DBus@Gio@@@Glib@@AEBV?$RefPtr@VInterface@DBus@Gio@@@3@@Z
    ??1?$RefPtr@VObjectManager@DBus@Gio@@@Glib@@QEAA@XZ
    ??0?$RefPtr@VObjectManager@DBus@Gio@@@Glib@@QEAA@PEAVObjectManager@DBus@Gio@@@Z
    ??$wrap_auto_interface@VObjectManager@DBus@Gio@@@Glib@@YAPEAVObjectManager@DBus@Gio@@PEAU_GObject@@_N@Z
    ??$destroy_notify_delete@Vustring@Glib@@@Glib@@YAXPEAX@Z
    ?to_c_type@?$TypeTraits@V?$RefPtr@VObject@DBus@Gio@@@Glib@@@Container_Helpers@Glib@@SAPEAU_GDBusObject@@AEBV?$RefPtr@VObject@DBus@Gio@@@3@@Z
    ?to_cpp_type@?$TypeTraits@V?$RefPtr@VObject@DBus@Gio@@@Glib@@@Container_Helpers@Glib@@SA?AV?$RefPtr@VObject@DBus@Gio@@@3@PEAU_GDBusObject@@@Z
    ?release_c_type@?$TypeTraits@V?$RefPtr@VObject@DBus@Gio@@@Glib@@@Container_Helpers@Glib@@SAXPEAU_GDBusObject@@@Z
    ?list_to_vector@?$ListHandler@V?$RefPtr@VObject@DBus@Gio@@@Glib@@U?$TypeTraits@V?$RefPtr@VObject@DBus@Gio@@@Glib@@@Container_Helpers@2@@Glib@@SA?AV?$vector@V?$RefPtr@VObject@DBus@Gio@@@Glib@@V?$allocator@V?$RefPtr@VObject@DBus@Gio@@@Glib@@@std@@@std@@PEAU_GList@@W4OwnershipType@2@@Z
    ?vector_to_list@?$ListHandler@V?$RefPtr@VObject@DBus@Gio@@@Glib@@U?$TypeTraits@V?$RefPtr@VObject@DBus@Gio@@@Glib@@@Container_Helpers@2@@Glib@@SA?AV?$GListKeeper@U?$TypeTraits@V?$RefPtr@VObject@DBus@Gio@@@Glib@@@Container_Helpers@Glib@@@Container_Helpers@2@AEBV?$vector@V?$RefPtr@VObject@DBus@Gio@@@Glib@@V?$allocator@V?$RefPtr@VObject@DBus@Gio@@@Glib@@@std@@@std@@@Z
    ??0?$allocator@V?$RefPtr@VObject@DBus@Gio@@@Glib@@@std@@QEAA@XZ
    ?deallocate@?$allocator@V?$RefPtr@VObject@DBus@Gio@@@Glib@@@std@@QEAAXQEAV?$RefPtr@VObject@DBus@Gio@@@Glib@@_K@Z
    ?allocate@?$allocator@V?$RefPtr@VObject@DBus@Gio@@@Glib@@@std@@QEAAPEAV?$RefPtr@VObject@DBus@Gio@@@Glib@@_K@Z
    ?max_size@?$_Default_allocator_traits@V?$allocator@V?$RefPtr@VObject@DBus@Gio@@@Glib@@@std@@@std@@SA_KAEBV?$allocator@V?$RefPtr@VObject@DBus@Gio@@@Glib@@@2@@Z
    ??0?$vector@V?$RefPtr@VObject@DBus@Gio@@@Glib@@V?$allocator@V?$RefPtr@VObject@DBus@Gio@@@Glib@@@std@@@std@@QEAA@XZ
    ??0?$vector@V?$RefPtr@VObject@DBus@Gio@@@Glib@@V?$allocator@V?$RefPtr@VObject@DBus@Gio@@@Glib@@@std@@@std@@QEAA@$$QEAV01@@Z
    ??1?$vector@V?$RefPtr@VObject@DBus@Gio@@@Glib@@V?$allocator@V?$RefPtr@VObject@DBus@Gio@@@Glib@@@std@@@std@@QEAA@XZ
    ?begin@?$vector@V?$RefPtr@VObject@DBus@Gio@@@Glib@@V?$allocator@V?$RefPtr@VObject@DBus@Gio@@@Glib@@@std@@@std@@QEBA?AV?$_Vector_const_iterator@V?$_Vector_val@U?$_Simple_types@V?$RefPtr@VObject@DBus@Gio@@@Glib@@@std@@@std@@@2@XZ
    ?end@?$vector@V?$RefPtr@VObject@DBus@Gio@@@Glib@@V?$allocator@V?$RefPtr@VObject@DBus@Gio@@@Glib@@@std@@@std@@QEBA?AV?$_Vector_const_iterator@V?$_Vector_val@U?$_Simple_types@V?$RefPtr@VObject@DBus@Gio@@@Glib@@@std@@@std@@@2@XZ
    ?max_size@?$vector@V?$RefPtr@VObject@DBus@Gio@@@Glib@@V?$allocator@V?$RefPtr@VObject@DBus@Gio@@@Glib@@@std@@@std@@QEBA_KXZ
    ?_Buy_raw@?$vector@V?$RefPtr@VObject@DBus@Gio@@@Glib@@V?$allocator@V?$RefPtr@VObject@DBus@Gio@@@Glib@@@std@@@std@@AEAAX_K@Z
    ?_Buy_nonzero@?$vector@V?$RefPtr@VObject@DBus@Gio@@@Glib@@V?$allocator@V?$RefPtr@VObject@DBus@Gio@@@Glib@@@std@@@std@@AEAAX_K@Z
    ?_Tidy@?$vector@V?$RefPtr@VObject@DBus@Gio@@@Glib@@V?$allocator@V?$RefPtr@VObject@DBus@Gio@@@Glib@@@std@@@std@@AEAAXXZ
    ?_Xlength@?$vector@V?$RefPtr@VObject@DBus@Gio@@@Glib@@V?$allocator@V?$RefPtr@VObject@DBus@Gio@@@Glib@@@std@@@std@@CAXXZ
    ?_Getal@?$vector@V?$RefPtr@VObject@DBus@Gio@@@Glib@@V?$allocator@V?$RefPtr@VObject@DBus@Gio@@@Glib@@@std@@@std@@AEAAAEAV?$allocator@V?$RefPtr@VObject@DBus@Gio@@@Glib@@@2@XZ
    ?_Getal@?$vector@V?$RefPtr@VObject@DBus@Gio@@@Glib@@V?$allocator@V?$RefPtr@VObject@DBus@Gio@@@Glib@@@std@@@std@@AEBAAEBV?$allocator@V?$RefPtr@VObject@DBus@Gio@@@Glib@@@2@XZ
    ??0?$_Vector_val@U?$_Simple_types@V?$RefPtr@VObject@DBus@Gio@@@Glib@@@std@@@std@@QEAA@XZ
    ??0?$_Vector_val@U?$_Simple_types@V?$RefPtr@VObject@DBus@Gio@@@Glib@@@std@@@std@@QEAA@PEAV?$RefPtr@VObject@DBus@Gio@@@Glib@@00@Z
    ?_Get_first@?$_Compressed_pair@V?$allocator@V?$RefPtr@VObject@DBus@Gio@@@Glib@@@std@@V?$_Vector_val@U?$_Simple_types@V?$RefPtr@VObject@DBus@Gio@@@Glib@@@std@@@2@$00@std@@QEAAAEAV?$allocator@V?$RefPtr@VObject@DBus@Gio@@@Glib@@@2@XZ
    ?_Get_first@?$_Compressed_pair@V?$allocator@V?$RefPtr@VObject@DBus@Gio@@@Glib@@@std@@V?$_Vector_val@U?$_Simple_types@V?$RefPtr@VObject@DBus@Gio@@@Glib@@@std@@@2@$00@std@@QEBAAEBV?$allocator@V?$RefPtr@VObject@DBus@Gio@@@Glib@@@2@XZ
    ??0?$GListKeeper@U?$TypeTraits@V?$RefPtr@VObject@DBus@Gio@@@Glib@@@Container_Helpers@Glib@@@Container_Helpers@Glib@@QEAA@PEBU_GList@@W4OwnershipType@2@@Z
    ??1?$GListKeeper@U?$TypeTraits@V?$RefPtr@VObject@DBus@Gio@@@Glib@@@Container_Helpers@Glib@@@Container_Helpers@Glib@@QEAA@XZ
    ?data@?$GListKeeper@U?$TypeTraits@V?$RefPtr@VObject@DBus@Gio@@@Glib@@@Container_Helpers@Glib@@@Container_Helpers@Glib@@QEBAPEAU_GList@@XZ
    ??$move@AEAVObjectManager@DBus@Gio@@@std@@YA$$QEAVObjectManager@DBus@Gio@@AEAV123@@Z
    ??0?$allocator@V?$RefPtr@$$CBVObject@DBus@Gio@@@Glib@@@std@@QEAA@XZ
    ?deallocate@?$allocator@V?$RefPtr@$$CBVObject@DBus@Gio@@@Glib@@@std@@QEAAXQEAV?$RefPtr@$$CBVObject@DBus@Gio@@@Glib@@_K@Z
    ?allocate@?$allocator@V?$RefPtr@$$CBVObject@DBus@Gio@@@Glib@@@std@@QEAAPEAV?$RefPtr@$$CBVObject@DBus@Gio@@@Glib@@_K@Z
    ?max_size@?$_Default_allocator_traits@V?$allocator@V?$RefPtr@$$CBVObject@DBus@Gio@@@Glib@@@std@@@std@@SA_KAEBV?$allocator@V?$RefPtr@$$CBVObject@DBus@Gio@@@Glib@@@2@@Z
    ??1?$vector@V?$RefPtr@$$CBVObject@DBus@Gio@@@Glib@@V?$allocator@V?$RefPtr@$$CBVObject@DBus@Gio@@@Glib@@@std@@@std@@QEAA@XZ
    ?max_size@?$vector@V?$RefPtr@$$CBVObject@DBus@Gio@@@Glib@@V?$allocator@V?$RefPtr@$$CBVObject@DBus@Gio@@@Glib@@@std@@@std@@QEBA_KXZ
    ?_Buy_raw@?$vector@V?$RefPtr@$$CBVObject@DBus@Gio@@@Glib@@V?$allocator@V?$RefPtr@$$CBVObject@DBus@Gio@@@Glib@@@std@@@std@@AEAAX_K@Z
    ?_Buy_nonzero@?$vector@V?$RefPtr@$$CBVObject@DBus@Gio@@@Glib@@V?$allocator@V?$RefPtr@$$CBVObject@DBus@Gio@@@Glib@@@std@@@std@@AEAAX_K@Z
    ?_Tidy@?$vector@V?$RefPtr@$$CBVObject@DBus@Gio@@@Glib@@V?$allocator@V?$RefPtr@$$CBVObject@DBus@Gio@@@Glib@@@std@@@std@@AEAAXXZ
    ?_Xlength@?$vector@V?$RefPtr@$$CBVObject@DBus@Gio@@@Glib@@V?$allocator@V?$RefPtr@$$CBVObject@DBus@Gio@@@Glib@@@std@@@std@@CAXXZ
    ?_Getal@?$vector@V?$RefPtr@$$CBVObject@DBus@Gio@@@Glib@@V?$allocator@V?$RefPtr@$$CBVObject@DBus@Gio@@@Glib@@@std@@@std@@AEAAAEAV?$allocator@V?$RefPtr@$$CBVObject@DBus@Gio@@@Glib@@@2@XZ
    ?_Getal@?$vector@V?$RefPtr@$$CBVObject@DBus@Gio@@@Glib@@V?$allocator@V?$RefPtr@$$CBVObject@DBus@Gio@@@Glib@@@std@@@std@@AEBAAEBV?$allocator@V?$RefPtr@$$CBVObject@DBus@Gio@@@Glib@@@2@XZ
    ??0?$_Vector_val@U?$_Simple_types@V?$RefPtr@$$CBVObject@DBus@Gio@@@Glib@@@std@@@std@@QEAA@XZ
    ?_Get_first@?$_Compressed_pair@V?$allocator@V?$RefPtr@$$CBVObject@DBus@Gio@@@Glib@@@std@@V?$_Vector_val@U?$_Simple_types@V?$RefPtr@$$CBVObject@DBus@Gio@@@Glib@@@std@@@2@$00@std@@QEAAAEAV?$allocator@V?$RefPtr@$$CBVObject@DBus@Gio@@@Glib@@@2@XZ
    ?_Get_first@?$_Compressed_pair@V?$allocator@V?$RefPtr@$$CBVObject@DBus@Gio@@@Glib@@@std@@V?$_Vector_val@U?$_Simple_types@V?$RefPtr@$$CBVObject@DBus@Gio@@@Glib@@@std@@@2@$00@std@@QEBAAEBV?$allocator@V?$RefPtr@$$CBVObject@DBus@Gio@@@Glib@@@2@XZ
    ?to_cpp_type@?$TypeTraits@V?$RefPtr@$$CBVObject@DBus@Gio@@@Glib@@@Container_Helpers@Glib@@SA?AV?$RefPtr@$$CBVObject@DBus@Gio@@@3@PEBU_GDBusObject@@@Z
    ?release_c_type@?$TypeTraits@V?$RefPtr@$$CBVObject@DBus@Gio@@@Glib@@@Container_Helpers@Glib@@SAXPEBU_GDBusObject@@@Z
    ?list_to_vector@?$ListHandler@V?$RefPtr@$$CBVObject@DBus@Gio@@@Glib@@U?$TypeTraits@V?$RefPtr@$$CBVObject@DBus@Gio@@@Glib@@@Container_Helpers@2@@Glib@@SA?AV?$vector@V?$RefPtr@$$CBVObject@DBus@Gio@@@Glib@@V?$allocator@V?$RefPtr@$$CBVObject@DBus@Gio@@@Glib@@@std@@@std@@PEAU_GList@@W4OwnershipType@2@@Z
    ??1?$RefPtr@$$CBVObject@DBus@Gio@@@Glib@@QEAA@XZ
    ??0?$RefPtr@$$CBVObject@DBus@Gio@@@Glib@@QEAA@PEBVObject@DBus@Gio@@@Z
    ??0?$RefPtr@$$CBVObject@DBus@Gio@@@Glib@@QEAA@$$QEAV01@@Z
    ??$?0VObject@DBus@Gio@@@?$RefPtr@$$CBVObject@DBus@Gio@@@Glib@@QEAA@$$QEAV?$RefPtr@VObject@DBus@Gio@@@1@@Z
    ??1?$RefPtr@$$CBVInterface@DBus@Gio@@@Glib@@QEAA@XZ
    ??$?0VInterface@DBus@Gio@@@?$RefPtr@$$CBVInterface@DBus@Gio@@@Glib@@QEAA@$$QEAV?$RefPtr@VInterface@DBus@Gio@@@1@@Z
    ??0?$SignalProxy@XAEBV?$RefPtr@VObject@DBus@Gio@@@Glib@@@Glib@@QEAA@PEAVObjectBase@1@PEBUSignalProxyInfo@1@@Z
    ??1?$SignalProxy@XAEBV?$RefPtr@VObject@DBus@Gio@@@Glib@@@Glib@@QEAA@XZ
    ??0?$SignalProxy@XAEBV?$RefPtr@VObject@DBus@Gio@@@Glib@@AEBV?$RefPtr@VInterface@DBus@Gio@@@2@@Glib@@QEAA@PEAVObjectBase@1@PEBUSignalProxyInfo@1@@Z
    ??1?$SignalProxy@XAEBV?$RefPtr@VObject@DBus@Gio@@@Glib@@AEBV?$RefPtr@VInterface@DBus@Gio@@@2@@Glib@@QEAA@XZ
    ??$unwrap@VObject@DBus@Gio@@@Glib@@YAPEAU_GDBusObject@@AEBV?$RefPtr@VObject@DBus@Gio@@@0@@Z
    ??$unwrap@VInterface@DBus@Gio@@@Glib@@YAPEAU_GDBusInterface@@AEBV?$RefPtr@VInterface@DBus@Gio@@@0@@Z
    ??$min@_K@std@@YAAEB_KAEB_K0@Z
    ??0?$ListIterator@U?$TypeTraits@V?$RefPtr@VObject@DBus@Gio@@@Glib@@@Container_Helpers@Glib@@@Container_Helpers@Glib@@QEAA@PEBU_GList@@@Z
    ??D?$ListIterator@U?$TypeTraits@V?$RefPtr@VObject@DBus@Gio@@@Glib@@@Container_Helpers@Glib@@@Container_Helpers@Glib@@QEBA?AV?$RefPtr@VObject@DBus@Gio@@@2@XZ
    ??E?$ListIterator@U?$TypeTraits@V?$RefPtr@VObject@DBus@Gio@@@Glib@@@Container_Helpers@Glib@@@Container_Helpers@Glib@@QEAAAEAV012@XZ
    ??9?$ListIterator@U?$TypeTraits@V?$RefPtr@VObject@DBus@Gio@@@Glib@@@Container_Helpers@Glib@@@Container_Helpers@Glib@@QEBA_NAEBV012@@Z
    ??$?0V?$ListIterator@U?$TypeTraits@V?$RefPtr@VObject@DBus@Gio@@@Glib@@@Container_Helpers@Glib@@@Container_Helpers@Glib@@$0A@@?$vector@V?$RefPtr@VObject@DBus@Gio@@@Glib@@V?$allocator@V?$RefPtr@VObject@DBus@Gio@@@Glib@@@std@@@std@@QEAA@V?$ListIterator@U?$TypeTraits@V?$RefPtr@VObject@DBus@Gio@@@Glib@@@Container_Helpers@Glib@@@Container_Helpers@Glib@@0AEBV?$allocator@V?$RefPtr@VObject@DBus@Gio@@@Glib@@@1@@Z
    ??0?$_Vector_const_iterator@V?$_Vector_val@U?$_Simple_types@V?$RefPtr@VObject@DBus@Gio@@@Glib@@@std@@@std@@@std@@QEAA@PEAV?$RefPtr@VObject@DBus@Gio@@@Glib@@PEBU_Container_base0@1@@Z
    ??D?$_Vector_const_iterator@V?$_Vector_val@U?$_Simple_types@V?$RefPtr@VObject@DBus@Gio@@@Glib@@@std@@@std@@@std@@QEBAAEBV?$RefPtr@VObject@DBus@Gio@@@Glib@@XZ
    ??F?$_Vector_const_iterator@V?$_Vector_val@U?$_Simple_types@V?$RefPtr@VObject@DBus@Gio@@@Glib@@@std@@@std@@@std@@QEAAAEAV01@XZ
    ??8?$_Vector_const_iterator@V?$_Vector_val@U?$_Simple_types@V?$RefPtr@VObject@DBus@Gio@@@Glib@@@std@@@std@@@std@@QEBA_NAEBV01@@Z
    ??9?$_Vector_const_iterator@V?$_Vector_val@U?$_Simple_types@V?$RefPtr@VObject@DBus@Gio@@@Glib@@@std@@@std@@@std@@QEBA_NAEBV01@@Z
    ?_Compat@?$_Vector_const_iterator@V?$_Vector_val@U?$_Simple_types@V?$RefPtr@VObject@DBus@Gio@@@Glib@@@std@@@std@@@std@@QEBAXAEBV12@@Z
    ??$create_glist@U?$TypeTraits@V?$RefPtr@VObject@DBus@Gio@@@Glib@@@Container_Helpers@Glib@@@Container_Helpers@Glib@@YAPEAU_GList@@V?$_Vector_const_iterator@V?$_Vector_val@U?$_Simple_types@V?$RefPtr@VObject@DBus@Gio@@@Glib@@@std@@@std@@@std@@V34@@Z
    ??0?$GListKeeper@U?$TypeTraits@V?$RefPtr@$$CBVObject@DBus@Gio@@@Glib@@@Container_Helpers@Glib@@@Container_Helpers@Glib@@QEAA@PEBU_GList@@W4OwnershipType@2@@Z
    ??1?$GListKeeper@U?$TypeTraits@V?$RefPtr@$$CBVObject@DBus@Gio@@@Glib@@@Container_Helpers@Glib@@@Container_Helpers@Glib@@QEAA@XZ
    ??0?$ListIterator@U?$TypeTraits@V?$RefPtr@$$CBVObject@DBus@Gio@@@Glib@@@Container_Helpers@Glib@@@Container_Helpers@Glib@@QEAA@PEBU_GList@@@Z
    ??D?$ListIterator@U?$TypeTraits@V?$RefPtr@$$CBVObject@DBus@Gio@@@Glib@@@Container_Helpers@Glib@@@Container_Helpers@Glib@@QEBA?AV?$RefPtr@$$CBVObject@DBus@Gio@@@2@XZ
    ??E?$ListIterator@U?$TypeTraits@V?$RefPtr@$$CBVObject@DBus@Gio@@@Glib@@@Container_Helpers@Glib@@@Container_Helpers@Glib@@QEAAAEAV012@XZ
    ??9?$ListIterator@U?$TypeTraits@V?$RefPtr@$$CBVObject@DBus@Gio@@@Glib@@@Container_Helpers@Glib@@@Container_Helpers@Glib@@QEBA_NAEBV012@@Z
    ??$?0V?$ListIterator@U?$TypeTraits@V?$RefPtr@$$CBVObject@DBus@Gio@@@Glib@@@Container_Helpers@Glib@@@Container_Helpers@Glib@@$0A@@?$vector@V?$RefPtr@$$CBVObject@DBus@Gio@@@Glib@@V?$allocator@V?$RefPtr@$$CBVObject@DBus@Gio@@@Glib@@@std@@@std@@QEAA@V?$ListIterator@U?$TypeTraits@V?$RefPtr@$$CBVObject@DBus@Gio@@@Glib@@@Container_Helpers@Glib@@@Container_Helpers@Glib@@0AEBV?$allocator@V?$RefPtr@$$CBVObject@DBus@Gio@@@Glib@@@1@@Z
    ??$function_pointer_cast@P6AXPEAUslot_rep@internal@sigc@@AEBV?$RefPtr@VObject@DBus@Gio@@@Glib@@AEBV?$RefPtr@VInterface@DBus@Gio@@@5@@ZP6APEAXPEAX@Z@internal@sigc@@YAP6AXPEAUslot_rep@01@AEBV?$RefPtr@VObject@DBus@Gio@@@Glib@@AEBV?$RefPtr@VInterface@DBus@Gio@@@4@@ZP6APEAXPEAX@Z@Z
    ??$function_pointer_cast@P6AXPEAUslot_rep@internal@sigc@@AEBV?$RefPtr@VObject@DBus@Gio@@@Glib@@@ZP6APEAXPEAX@Z@internal@sigc@@YAP6AXPEAUslot_rep@01@AEBV?$RefPtr@VObject@DBus@Gio@@@Glib@@@ZP6APEAXPEAX@Z@Z
    ??$move@AEAV?$allocator@V?$RefPtr@VObject@DBus@Gio@@@Glib@@@std@@@std@@YA$$QEAV?$allocator@V?$RefPtr@VObject@DBus@Gio@@@Glib@@@0@AEAV10@@Z
    ??$exchange@PEAV?$RefPtr@VObject@DBus@Gio@@@Glib@@$$T@std@@YAPEAV?$RefPtr@VObject@DBus@Gio@@@Glib@@AEAPEAV12@$$QEA$$T@Z
    ??$?0V?$allocator@V?$RefPtr@VObject@DBus@Gio@@@Glib@@@std@@PEAV?$RefPtr@VObject@DBus@Gio@@@Glib@@PEAV23@PEAV23@@?$_Compressed_pair@V?$allocator@V?$RefPtr@VObject@DBus@Gio@@@Glib@@@std@@V?$_Vector_val@U?$_Simple_types@V?$RefPtr@VObject@DBus@Gio@@@Glib@@@std@@@2@$00@std@@QEAA@U_One_then_variadic_args_t@1@$$QEAV?$allocator@V?$RefPtr@VObject@DBus@Gio@@@Glib@@@1@$$QEAPEAV?$RefPtr@VObject@DBus@Gio@@@Glib@@22@Z
    ??$?0$$V@?$_Compressed_pair@V?$allocator@V?$RefPtr@VObject@DBus@Gio@@@Glib@@@std@@V?$_Vector_val@U?$_Simple_types@V?$RefPtr@VObject@DBus@Gio@@@Glib@@@std@@@2@$00@std@@QEAA@U_Zero_then_variadic_args_t@1@@Z
    ??$_Convert_size@_K_K@std@@YA_K_K@Z
    ??$?0AEBV?$allocator@V?$RefPtr@VObject@DBus@Gio@@@Glib@@@std@@$$V@?$_Compressed_pair@V?$allocator@V?$RefPtr@VObject@DBus@Gio@@@Glib@@@std@@V?$_Vector_val@U?$_Simple_types@V?$RefPtr@VObject@DBus@Gio@@@Glib@@@std@@@2@$00@std@@QEAA@U_One_then_variadic_args_t@1@AEBV?$allocator@V?$RefPtr@VObject@DBus@Gio@@@Glib@@@1@@Z
    ??$_Adl_verify_range@V?$ListIterator@U?$TypeTraits@V?$RefPtr@VObject@DBus@Gio@@@Glib@@@Container_Helpers@Glib@@@Container_Helpers@Glib@@V123@@std@@YAXAEBV?$ListIterator@U?$TypeTraits@V?$RefPtr@VObject@DBus@Gio@@@Glib@@@Container_Helpers@Glib@@@Container_Helpers@Glib@@0@Z
    ??$_Get_unwrapped@AEAV?$ListIterator@U?$TypeTraits@V?$RefPtr@VObject@DBus@Gio@@@Glib@@@Container_Helpers@Glib@@@Container_Helpers@Glib@@@std@@YA?A_TAEAV?$ListIterator@U?$TypeTraits@V?$RefPtr@VObject@DBus@Gio@@@Glib@@@Container_Helpers@Glib@@@Container_Helpers@Glib@@@Z
    ??$distance@V?$ListIterator@U?$TypeTraits@V?$RefPtr@VObject@DBus@Gio@@@Glib@@@Container_Helpers@Glib@@@Container_Helpers@Glib@@@std@@YA_JV?$ListIterator@U?$TypeTraits@V?$RefPtr@VObject@DBus@Gio@@@Glib@@@Container_Helpers@Glib@@@Container_Helpers@Glib@@0@Z
    ??$move@AEAV?$ListIterator@U?$TypeTraits@V?$RefPtr@VObject@DBus@Gio@@@Glib@@@Container_Helpers@Glib@@@Container_Helpers@Glib@@@std@@YA$$QEAV?$ListIterator@U?$TypeTraits@V?$RefPtr@VObject@DBus@Gio@@@Glib@@@Container_Helpers@Glib@@@Container_Helpers@Glib@@AEAV123@@Z
    ??$_Construct_n@V?$ListIterator@U?$TypeTraits@V?$RefPtr@VObject@DBus@Gio@@@Glib@@@Container_Helpers@Glib@@@Container_Helpers@Glib@@V123@@?$vector@V?$RefPtr@VObject@DBus@Gio@@@Glib@@V?$allocator@V?$RefPtr@VObject@DBus@Gio@@@Glib@@@std@@@std@@AEAAX_K$$QEAV?$ListIterator@U?$TypeTraits@V?$RefPtr@VObject@DBus@Gio@@@Glib@@@Container_Helpers@Glib@@@Container_Helpers@Glib@@1@Z
    ??$?0AEBV?$allocator@V?$RefPtr@$$CBVObject@DBus@Gio@@@Glib@@@std@@$$V@?$_Compressed_pair@V?$allocator@V?$RefPtr@$$CBVObject@DBus@Gio@@@Glib@@@std@@V?$_Vector_val@U?$_Simple_types@V?$RefPtr@$$CBVObject@DBus@Gio@@@Glib@@@std@@@2@$00@std@@QEAA@U_One_then_variadic_args_t@1@AEBV?$allocator@V?$RefPtr@$$CBVObject@DBus@Gio@@@Glib@@@1@@Z
    ??$_Adl_verify_range@V?$ListIterator@U?$TypeTraits@V?$RefPtr@$$CBVObject@DBus@Gio@@@Glib@@@Container_Helpers@Glib@@@Container_Helpers@Glib@@V123@@std@@YAXAEBV?$ListIterator@U?$TypeTraits@V?$RefPtr@$$CBVObject@DBus@Gio@@@Glib@@@Container_Helpers@Glib@@@Container_Helpers@Glib@@0@Z
    ??$_Get_unwrapped@AEAV?$ListIterator@U?$TypeTraits@V?$RefPtr@$$CBVObject@DBus@Gio@@@Glib@@@Container_Helpers@Glib@@@Container_Helpers@Glib@@@std@@YA?A_TAEAV?$ListIterator@U?$TypeTraits@V?$RefPtr@$$CBVObject@DBus@Gio@@@Glib@@@Container_Helpers@Glib@@@Container_Helpers@Glib@@@Z
    ??$distance@V?$ListIterator@U?$TypeTraits@V?$RefPtr@$$CBVObject@DBus@Gio@@@Glib@@@Container_Helpers@Glib@@@Container_Helpers@Glib@@@std@@YA_JV?$ListIterator@U?$TypeTraits@V?$RefPtr@$$CBVObject@DBus@Gio@@@Glib@@@Container_Helpers@Glib@@@Container_Helpers@Glib@@0@Z
    ??$move@AEAV?$ListIterator@U?$TypeTraits@V?$RefPtr@$$CBVObject@DBus@Gio@@@Glib@@@Container_Helpers@Glib@@@Container_Helpers@Glib@@@std@@YA$$QEAV?$ListIterator@U?$TypeTraits@V?$RefPtr@$$CBVObject@DBus@Gio@@@Glib@@@Container_Helpers@Glib@@@Container_Helpers@Glib@@AEAV123@@Z
    ??$_Construct_n@V?$ListIterator@U?$TypeTraits@V?$RefPtr@$$CBVObject@DBus@Gio@@@Glib@@@Container_Helpers@Glib@@@Container_Helpers@Glib@@V123@@?$vector@V?$RefPtr@$$CBVObject@DBus@Gio@@@Glib@@V?$allocator@V?$RefPtr@$$CBVObject@DBus@Gio@@@Glib@@@std@@@std@@AEAAX_K$$QEAV?$ListIterator@U?$TypeTraits@V?$RefPtr@$$CBVObject@DBus@Gio@@@Glib@@@Container_Helpers@Glib@@@Container_Helpers@Glib@@1@Z
    ??$forward@V?$allocator@V?$RefPtr@VObject@DBus@Gio@@@Glib@@@std@@@std@@YA$$QEAV?$allocator@V?$RefPtr@VObject@DBus@Gio@@@Glib@@@0@AEAV10@@Z
    ??$forward@PEAV?$RefPtr@VObject@DBus@Gio@@@Glib@@@std@@YA$$QEAPEAV?$RefPtr@VObject@DBus@Gio@@@Glib@@AEAPEAV12@@Z
    ??$_Destroy_range@V?$allocator@V?$RefPtr@$$CBVObject@DBus@Gio@@@Glib@@@std@@@std@@YAXPEAV?$RefPtr@$$CBVObject@DBus@Gio@@@Glib@@QEAV12@AEAV?$allocator@V?$RefPtr@$$CBVObject@DBus@Gio@@@Glib@@@0@@Z
    ??$_Destroy_range@V?$allocator@V?$RefPtr@VObject@DBus@Gio@@@Glib@@@std@@@std@@YAXPEAV?$RefPtr@VObject@DBus@Gio@@@Glib@@QEAV12@AEAV?$allocator@V?$RefPtr@VObject@DBus@Gio@@@Glib@@@0@@Z
    ??$addressof@$$CBV?$_Vector_val@U?$_Simple_types@V?$RefPtr@VObject@DBus@Gio@@@Glib@@@std@@@std@@@std@@YAPEBV?$_Vector_val@U?$_Simple_types@V?$RefPtr@VObject@DBus@Gio@@@Glib@@@std@@@0@AEBV10@@Z
    ??$_Deallocate@$0BA@@std@@YAXPEAX_K@Z
    ??$forward@AEBV?$allocator@V?$RefPtr@VObject@DBus@Gio@@@Glib@@@std@@@std@@YAAEBV?$allocator@V?$RefPtr@VObject@DBus@Gio@@@Glib@@@0@AEBV10@@Z
    ??1?$_Tidy_guard@V?$vector@V?$RefPtr@VObject@DBus@Gio@@@Glib@@V?$allocator@V?$RefPtr@VObject@DBus@Gio@@@Glib@@@std@@@std@@@std@@QEAA@XZ
    ??$forward@V?$ListIterator@U?$TypeTraits@V?$RefPtr@VObject@DBus@Gio@@@Glib@@@Container_Helpers@Glib@@@Container_Helpers@Glib@@@std@@YA$$QEAV?$ListIterator@U?$TypeTraits@V?$RefPtr@VObject@DBus@Gio@@@Glib@@@Container_Helpers@Glib@@@Container_Helpers@Glib@@AEAV123@@Z
    ??$_Uninitialized_copy@V?$ListIterator@U?$TypeTraits@V?$RefPtr@VObject@DBus@Gio@@@Glib@@@Container_Helpers@Glib@@@Container_Helpers@Glib@@V123@V?$allocator@V?$RefPtr@VObject@DBus@Gio@@@Glib@@@std@@@std@@YAPEAV?$RefPtr@VObject@DBus@Gio@@@Glib@@V?$ListIterator@U?$TypeTraits@V?$RefPtr@VObject@DBus@Gio@@@Glib@@@Container_Helpers@Glib@@@Container_Helpers@2@0PEAV12@AEAV?$allocator@V?$RefPtr@VObject@DBus@Gio@@@Glib@@@0@@Z
    ??$forward@AEBV?$allocator@V?$RefPtr@$$CBVObject@DBus@Gio@@@Glib@@@std@@@std@@YAAEBV?$allocator@V?$RefPtr@$$CBVObject@DBus@Gio@@@Glib@@@0@AEBV10@@Z
    ??1?$_Tidy_guard@V?$vector@V?$RefPtr@$$CBVObject@DBus@Gio@@@Glib@@V?$allocator@V?$RefPtr@$$CBVObject@DBus@Gio@@@Glib@@@std@@@std@@@std@@QEAA@XZ
    ??$forward@V?$ListIterator@U?$TypeTraits@V?$RefPtr@$$CBVObject@DBus@Gio@@@Glib@@@Container_Helpers@Glib@@@Container_Helpers@Glib@@@std@@YA$$QEAV?$ListIterator@U?$TypeTraits@V?$RefPtr@$$CBVObject@DBus@Gio@@@Glib@@@Container_Helpers@Glib@@@Container_Helpers@Glib@@AEAV123@@Z
    ??$_Uninitialized_copy@V?$ListIterator@U?$TypeTraits@V?$RefPtr@$$CBVObject@DBus@Gio@@@Glib@@@Container_Helpers@Glib@@@Container_Helpers@Glib@@V123@V?$allocator@V?$RefPtr@$$CBVObject@DBus@Gio@@@Glib@@@std@@@std@@YAPEAV?$RefPtr@$$CBVObject@DBus@Gio@@@Glib@@V?$ListIterator@U?$TypeTraits@V?$RefPtr@$$CBVObject@DBus@Gio@@@Glib@@@Container_Helpers@Glib@@@Container_Helpers@2@0PEAV12@AEAV?$allocator@V?$RefPtr@$$CBVObject@DBus@Gio@@@Glib@@@0@@Z
    ??$_Unfancy@V?$RefPtr@$$CBVObject@DBus@Gio@@@Glib@@@std@@YAPEAV?$RefPtr@$$CBVObject@DBus@Gio@@@Glib@@PEAV12@@Z
    ??$destroy@V?$RefPtr@$$CBVObject@DBus@Gio@@@Glib@@@?$_Default_allocator_traits@V?$allocator@V?$RefPtr@$$CBVObject@DBus@Gio@@@Glib@@@std@@@std@@SAXAEAV?$allocator@V?$RefPtr@$$CBVObject@DBus@Gio@@@Glib@@@1@QEAV?$RefPtr@$$CBVObject@DBus@Gio@@@Glib@@@Z
    ??$_Unfancy@V?$RefPtr@VObject@DBus@Gio@@@Glib@@@std@@YAPEAV?$RefPtr@VObject@DBus@Gio@@@Glib@@PEAV12@@Z
    ??$destroy@V?$RefPtr@VObject@DBus@Gio@@@Glib@@@?$_Default_allocator_traits@V?$allocator@V?$RefPtr@VObject@DBus@Gio@@@Glib@@@std@@@std@@SAXAEAV?$allocator@V?$RefPtr@VObject@DBus@Gio@@@Glib@@@1@QEAV?$RefPtr@VObject@DBus@Gio@@@Glib@@@Z
    ??$_Allocate@$0BA@U_Default_allocate_traits@std@@@std@@YAPEAX_K@Z
    ??$_Max_limit@_J@std@@YA_JXZ
    ??$_Get_unwrapped@V?$ListIterator@U?$TypeTraits@V?$RefPtr@VObject@DBus@Gio@@@Glib@@@Container_Helpers@Glib@@@Container_Helpers@Glib@@@std@@YA?A_T$$QEAV?$ListIterator@U?$TypeTraits@V?$RefPtr@VObject@DBus@Gio@@@Glib@@@Container_Helpers@Glib@@@Container_Helpers@Glib@@@Z
    ??0?$_Uninitialized_backout_al@V?$allocator@V?$RefPtr@VObject@DBus@Gio@@@Glib@@@std@@@std@@QEAA@PEAV?$RefPtr@VObject@DBus@Gio@@@Glib@@AEAV?$allocator@V?$RefPtr@VObject@DBus@Gio@@@Glib@@@1@@Z
    ??1?$_Uninitialized_backout_al@V?$allocator@V?$RefPtr@VObject@DBus@Gio@@@Glib@@@std@@@std@@QEAA@XZ
    ?_Release@?$_Uninitialized_backout_al@V?$allocator@V?$RefPtr@VObject@DBus@Gio@@@Glib@@@std@@@std@@QEAAPEAV?$RefPtr@VObject@DBus@Gio@@@Glib@@XZ
    ??$_Emplace_back@V?$RefPtr@VObject@DBus@Gio@@@Glib@@@?$_Uninitialized_backout_al@V?$allocator@V?$RefPtr@VObject@DBus@Gio@@@Glib@@@std@@@std@@QEAAX$$QEAV?$RefPtr@VObject@DBus@Gio@@@Glib@@@Z
    ??$_Get_unwrapped@V?$ListIterator@U?$TypeTraits@V?$RefPtr@$$CBVObject@DBus@Gio@@@Glib@@@Container_Helpers@Glib@@@Container_Helpers@Glib@@@std@@YA?A_T$$QEAV?$ListIterator@U?$TypeTraits@V?$RefPtr@$$CBVObject@DBus@Gio@@@Glib@@@Container_Helpers@Glib@@@Container_Helpers@Glib@@@Z
    ??0?$_Uninitialized_backout_al@V?$allocator@V?$RefPtr@$$CBVObject@DBus@Gio@@@Glib@@@std@@@std@@QEAA@PEAV?$RefPtr@$$CBVObject@DBus@Gio@@@Glib@@AEAV?$allocator@V?$RefPtr@$$CBVObject@DBus@Gio@@@Glib@@@1@@Z
    ??1?$_Uninitialized_backout_al@V?$allocator@V?$RefPtr@$$CBVObject@DBus@Gio@@@Glib@@@std@@@std@@QEAA@XZ
    ?_Release@?$_Uninitialized_backout_al@V?$allocator@V?$RefPtr@$$CBVObject@DBus@Gio@@@Glib@@@std@@@std@@QEAAPEAV?$RefPtr@$$CBVObject@DBus@Gio@@@Glib@@XZ
    ??$_Emplace_back@V?$RefPtr@$$CBVObject@DBus@Gio@@@Glib@@@?$_Uninitialized_backout_al@V?$allocator@V?$RefPtr@$$CBVObject@DBus@Gio@@@Glib@@@std@@@std@@QEAAX$$QEAV?$RefPtr@$$CBVObject@DBus@Gio@@@Glib@@@Z
    ??$_Allocate_manually_vector_aligned@U_Default_allocate_traits@std@@@std@@YAPEAX_K@Z
    ??$forward@V?$RefPtr@VObject@DBus@Gio@@@Glib@@@std@@YA$$QEAV?$RefPtr@VObject@DBus@Gio@@@Glib@@AEAV12@@Z
    ??$construct@V?$RefPtr@VObject@DBus@Gio@@@Glib@@V12@@?$_Default_allocator_traits@V?$allocator@V?$RefPtr@VObject@DBus@Gio@@@Glib@@@std@@@std@@SAXAEAV?$allocator@V?$RefPtr@VObject@DBus@Gio@@@Glib@@@1@QEAV?$RefPtr@VObject@DBus@Gio@@@Glib@@$$QEAV34@@Z
    ??$forward@V?$RefPtr@$$CBVObject@DBus@Gio@@@Glib@@@std@@YA$$QEAV?$RefPtr@$$CBVObject@DBus@Gio@@@Glib@@AEAV12@@Z
    ??$construct@V?$RefPtr@$$CBVObject@DBus@Gio@@@Glib@@V12@@?$_Default_allocator_traits@V?$allocator@V?$RefPtr@$$CBVObject@DBus@Gio@@@Glib@@@std@@@std@@SAXAEAV?$allocator@V?$RefPtr@$$CBVObject@DBus@Gio@@@Glib@@@1@QEAV?$RefPtr@$$CBVObject@DBus@Gio@@@Glib@@$$QEAV34@@Z
    ??$_Allocate_at_least_helper@V?$allocator@V?$RefPtr@$$CBVObject@DBus@Gio@@@Glib@@@std@@@std@@YAPEAV?$RefPtr@$$CBVObject@DBus@Gio@@@Glib@@AEAV?$allocator@V?$RefPtr@$$CBVObject@DBus@Gio@@@Glib@@@0@AEA_K@Z
    ??$_Allocate_at_least_helper@V?$allocator@V?$RefPtr@VObject@DBus@Gio@@@Glib@@@std@@@std@@YAPEAV?$RefPtr@VObject@DBus@Gio@@@Glib@@AEAV?$allocator@V?$RefPtr@VObject@DBus@Gio@@@Glib@@@0@AEA_K@Z
    ??$_Get_size_of_n@$07@std@@YA_K_K@Z
    ??_7exception@std@@6B@
    ??_C@_0BC@EOODALEL@Unknown?5exception@
    ??_7bad_alloc@std@@6B@
    ??_7bad_array_new_length@std@@6B@
    ??_C@_0BF@KINCDENJ@bad?5array?5new?5length@
    ??_R0?AVexception@std@@@8
    _CT??_R0?AVexception@std@@@8??0exception@std@@QEAA@AEBV01@@Z24
    _TI3?AVbad_array_new_length@std@@
    _CTA3?AVbad_array_new_length@std@@
    ??_R0?AVbad_array_new_length@std@@@8
    _CT??_R0?AVbad_array_new_length@std@@@8??0bad_array_new_length@std@@QEAA@AEBV01@@Z24
    ??_R0?AVbad_alloc@std@@@8
    _CT??_R0?AVbad_alloc@std@@@8??0bad_alloc@std@@QEAA@AEBV01@@Z24
    ??_7ObjectManager@DBus@Gio@@6B012@@
    ??_7ObjectManager@DBus@Gio@@6BInterface@Glib@@@
    ??_8ObjectManager@DBus@Gio@@7BInterface@Glib@@@
    ??_8ObjectManager@DBus@Gio@@7BObjectBase@Glib@@@
    ??_R0?AVObjectBase@Glib@@@8
    ??_R0?AVObjectManager@DBus@Gio@@@8
    ??_C@_0BB@DJDNGIAO@klass?5?$CB?$DN?5nullptr@
    ??_C@_0DE@LFONKGFG@Gio?3?3DBus?3?3ObjectManager_Class?3@
    ??_C@_0CC@FOLJDEPP@?4?4?2gio?2giomm?2dbusobjectmanager?4@
    ??_C@_0DA@FJGBFECP@Gio?3?3DBus?3?3ObjectManager?3?3get_o@
    ??_C@_0FM@MEPOJGMK@Glib?3?3wrap_auto_interface?$CI?$CJ?3?5Th@
    ??_C@_0BA@FOIKENOD@vector?5too?5long@
    ??_R0?AVObject@DBus@Gio@@@8
    ??_R4exception@std@@6B@
    ??_R3exception@std@@8
    ??_R2exception@std@@8
    ??_R1A@?0A@EA@exception@std@@8
    ??_R4bad_array_new_length@std@@6B@
    ??_R3bad_array_new_length@std@@8
    ??_R2bad_array_new_length@std@@8
    ??_R1A@?0A@EA@bad_array_new_length@std@@8
    ??_R1A@?0A@EA@bad_alloc@std@@8
    ??_R3bad_alloc@std@@8
    ??_R2bad_alloc@std@@8
    ??_R4bad_alloc@std@@6B@
    ??_R4ObjectManager@DBus@Gio@@6B012@@
    ??_R3ObjectManager@DBus@Gio@@8
    ??_R2ObjectManager@DBus@Gio@@8
    ??_R1A@?0A@EA@ObjectManager@DBus@Gio@@8
    ??_R17?0A@EA@Interface@Glib@@8
    ??_R0?AVInterface@Glib@@@8
    ??_R3Interface@Glib@@8
    ??_R2Interface@Glib@@8
    ??_R1A@?0A@EA@Interface@Glib@@8
    ??_R1A@A@7FA@ObjectBase@Glib@@8
    ??_R3ObjectBase@Glib@@8
    ??_R2ObjectBase@Glib@@8
    ??_R1A@?0A@EA@ObjectBase@Glib@@8
    ??_R1A@73FA@trackable@sigc@@8
    ??_R0?AUtrackable@sigc@@@8
    ??_R3trackable@sigc@@8
    ??_R2trackable@sigc@@8
    ??_R1A@?0A@EA@trackable@sigc@@8
    ??_R1A@A@3FA@trackable@sigc@@8
    ??_R1A@77FA@ObjectBase@Glib@@8
    ??_R4ObjectManager@DBus@Gio@@6BInterface@Glib@@@
    ?objectmanagerclient_class_@ObjectManagerClient@DBus@Gio@@0VObjectManagerClient_Class@23@A
    ??_C@_0BH@EEMKINFJ@interface?9proxy?9signal@
    ??_C@_0CD@OMJIAPNI@interface?9proxy?9properties?9chan@
    ?__empty_global_delete@@YAXPEAX@Z
    ?__empty_global_delete@@YAXPEAX_K@Z
    ??2@YAPEAX_KPEAX@Z
    ??0exception@std@@QEAA@QEBDH@Z
    ??0exception@std@@QEAA@AEBV01@@Z
    ??1exception@std@@UEAA@XZ
    ?what@exception@std@@UEBAPEBDXZ
    ??0bad_alloc@std@@AEAA@QEBD@Z
    ??1bad_alloc@std@@UEAA@XZ
    ??0bad_alloc@std@@QEAA@AEBV01@@Z
    ??0bad_array_new_length@std@@QEAA@XZ
    ??1bad_array_new_length@std@@UEAA@XZ
    ??0bad_array_new_length@std@@QEAA@AEBV01@@Z
    ?_Throw_bad_array_new_length@std@@YAXXZ
    ?_Allocate@_Default_allocate_traits@std@@SAPEAX_K@Z
    ?_Adjust_manually_vector_aligned@std@@YAXAEAPEAXAEA_K@Z
    ?_Orphan_all@_Container_base0@std@@QEAAXXZ
    ?_Swap_proxy_and_iterators@_Container_base0@std@@QEAAXAEAU12@@Z
    ?_Alloc_proxy@_Container_base0@std@@QEAAXAEBU_Fake_allocator@2@@Z
    ?_Adopt@_Iterator_base0@std@@QEAAXPEBX@Z
    ??0_Fake_proxy_ptr_impl@std@@QEAA@AEBU_Fake_allocator@1@AEBU_Container_base0@1@@Z
    ?_Release@_Fake_proxy_ptr_impl@std@@QEAAXXZ
    ??MGlib@@YA_NAEBVustring@0@0@Z
    ?gobj@VariantType@Glib@@QEAAPEAU_GVariantType@@XZ
    ?gobj@VariantType@Glib@@QEBAPEBU_GVariantType@@XZ
    ?_Throw_tree_length_error@std@@YAXXZ
    ?gobj@VariantBase@Glib@@QEAAPEAU_GVariant@@XZ
    ?gobj@VariantBase@Glib@@QEBAPEBU_GVariant@@XZ
    ??1VariantStringBase@Glib@@QEAA@XZ
    ??1VariantContainerBase@Glib@@QEAA@XZ
    ??0VariantContainerBase@Glib@@QEAA@$$QEAV01@@Z
    ??1?$Variant@VVariantBase@Glib@@@Glib@@QEAA@XZ
    ??1?$Variant@Vustring@Glib@@@Glib@@QEAA@XZ
    ?get_type@Class@Glib@@QEBA_KXZ
    ?data_to_slot@SignalProxyBase@Glib@@SAPEAVslot_base@sigc@@PEAX@Z
    ?to_c_type@?$TypeTraits@Vustring@Glib@@@Container_Helpers@Glib@@SAPEBDAEBVustring@3@@Z
    ?to_cpp_type@?$TypeTraits@Vustring@Glib@@@Container_Helpers@Glib@@SA?AVustring@3@PEBD@Z
    ?release_c_type@?$TypeTraits@Vustring@Glib@@@Container_Helpers@Glib@@SAXPEBD@Z
    ?convert_const_gchar_ptr_to_ustring@Glib@@YA?AVustring@1@PEBD@Z
    ?convert_return_gchar_ptr_to_ustring@Glib@@YA?AVustring@1@PEAD@Z
    ??$make_unique_ptr_gfree@D@Glib@@YA?AV?$unique_ptr@$$BY0A@DP6AXPEAX@Z@std@@PEAD@Z
    ??1?$unique_ptr@$$BY0A@DP6AXPEAX@Z@std@@QEAA@XZ
    ?get_deleter@?$unique_ptr@$$BY0A@DP6AXPEAX@Z@std@@QEAAAEAP6AXPEAX@ZXZ
    ?get@?$unique_ptr@$$BY0A@DP6AXPEAX@Z@std@@QEBAPEADXZ
    ?release@?$unique_ptr@$$BY0A@DP6AXPEAX@Z@std@@QEAAPEADXZ
    ?_Get_first@?$_Compressed_pair@P6AXPEAX@ZPEAD$0A@@std@@QEAAAEAP6AXPEAX@ZXZ
    ??R?$less@Vustring@Glib@@@std@@QEBA_NAEBVustring@Glib@@0@Z
    ?gobj@AsyncResult@Gio@@QEAAPEAU_GAsyncResult@@XZ
    ?gobj@Connection@DBus@Gio@@QEAAPEAU_GDBusConnection@@XZ
    ?gobj@ObjectProxy@DBus@Gio@@QEAAPEAU_GDBusObjectProxy@@XZ
    ?gobj@Proxy@DBus@Gio@@QEAAPEAU_GDBusProxy@@XZ
    ?value_type@?$Value@W4ObjectManagerClientFlags@DBus@Gio@@@Glib@@SA_KXZ
    ??0ObjectManagerClient@DBus@Gio@@IEAA@AEBVConstructParams@Glib@@@Z
    ??0ObjectManagerClient@DBus@Gio@@IEAA@PEAU_GDBusObjectManagerClient@@@Z
    ??0ObjectManagerClient@DBus@Gio@@QEAA@$$QEAV012@@Z
    ??4ObjectManagerClient@DBus@Gio@@QEAAAEAV012@$$QEAV012@@Z
    ??1ObjectManagerClient@DBus@Gio@@UEAA@XZ
    ?get_type@ObjectManagerClient@DBus@Gio@@SA_KXZ
    ?get_base_type@ObjectManagerClient@DBus@Gio@@SA_KXZ
    ?gobj@ObjectManagerClient@DBus@Gio@@QEAAPEAU_GDBusObjectManagerClient@@XZ
    ?gobj@ObjectManagerClient@DBus@Gio@@QEBAPEBU_GDBusObjectManagerClient@@XZ
    ?gobj_copy@ObjectManagerClient@DBus@Gio@@QEAAPEAU_GDBusObjectManagerClient@@XZ
    ??0ObjectManagerClient@DBus@Gio@@IEAA@AEBV?$RefPtr@VConnection@DBus@Gio@@@Glib@@AEBVustring@4@1AEBV?$slot@XAEAV?$RefPtr@VAsyncResult@Gio@@@Glib@@Unil@sigc@@U34@U34@U34@U34@U34@@sigc@@AEBV?$RefPtr@VCancellable@Gio@@@4@AEBV?$slot@$$A6A_KAEBV?$RefPtr@VObjectManagerClient@DBus@Gio@@@Glib@@AEBVustring@2@1@ZUnil@sigc@@U45@U45@U45@U45@U45@U45@@7@W4ObjectManagerClientFlags@12@@Z
    ??0ObjectManagerClient@DBus@Gio@@IEAA@W4BusType@12@AEBVustring@Glib@@1AEBV?$slot@XAEAV?$RefPtr@VAsyncResult@Gio@@@Glib@@Unil@sigc@@U34@U34@U34@U34@U34@@sigc@@AEBV?$RefPtr@VCancellable@Gio@@@5@AEBV?$slot@$$A6A_KAEBV?$RefPtr@VObjectManagerClient@DBus@Gio@@@Glib@@AEBVustring@2@1@ZUnil@sigc@@U45@U45@U45@U45@U45@U45@@7@W4ObjectManagerClientFlags@12@@Z
    ?create@ObjectManagerClient@DBus@Gio@@SAXAEBV?$RefPtr@VConnection@DBus@Gio@@@Glib@@AEBVustring@5@1AEBV?$slot@XAEAV?$RefPtr@VAsyncResult@Gio@@@Glib@@Unil@sigc@@U34@U34@U34@U34@U34@@sigc@@AEBV?$RefPtr@VCancellable@Gio@@@5@AEBV?$slot@$$A6A_KAEBV?$RefPtr@VObjectManagerClient@DBus@Gio@@@Glib@@AEBVustring@2@1@ZUnil@sigc@@U45@U45@U45@U45@U45@U45@@8@W4ObjectManagerClientFlags@23@@Z
    ?create_finish@ObjectManagerClient@DBus@Gio@@SA?AV?$RefPtr@VObjectManagerClient@DBus@Gio@@@Glib@@AEBV?$RefPtr@VAsyncResult@Gio@@@5@@Z
    ?create_sync@ObjectManagerClient@DBus@Gio@@SA?AV?$RefPtr@VObjectManagerClient@DBus@Gio@@@Glib@@AEBV?$RefPtr@VConnection@DBus@Gio@@@5@AEBVustring@5@1AEBV?$RefPtr@VCancellable@Gio@@@5@AEBV?$slot@$$A6A_KAEBV?$RefPtr@VObjectManagerClient@DBus@Gio@@@Glib@@AEBVustring@2@1@ZUnil@sigc@@U45@U45@U45@U45@U45@U45@@sigc@@W4ObjectManagerClientFlags@23@@Z
    ?create_for_bus@ObjectManagerClient@DBus@Gio@@SAXW4BusType@23@AEBVustring@Glib@@1AEBV?$slot@XAEAV?$RefPtr@VAsyncResult@Gio@@@Glib@@Unil@sigc@@U34@U34@U34@U34@U34@@sigc@@AEBV?$RefPtr@VCancellable@Gio@@@6@AEBV?$slot@$$A6A_KAEBV?$RefPtr@VObjectManagerClient@DBus@Gio@@@Glib@@AEBVustring@2@1@ZUnil@sigc@@U45@U45@U45@U45@U45@U45@@8@W4ObjectManagerClientFlags@23@@Z
    ?create_for_bus_finish@ObjectManagerClient@DBus@Gio@@SA?AV?$RefPtr@VObjectManagerClient@DBus@Gio@@@Glib@@AEBV?$RefPtr@VAsyncResult@Gio@@@5@@Z
    ?create_for_bus_sync@ObjectManagerClient@DBus@Gio@@SA?AV?$RefPtr@VObjectManagerClient@DBus@Gio@@@Glib@@W4BusType@23@AEBVustring@5@1AEBV?$RefPtr@VCancellable@Gio@@@5@AEBV?$slot@$$A6A_KAEBV?$RefPtr@VObjectManagerClient@DBus@Gio@@@Glib@@AEBVustring@2@1@ZUnil@sigc@@U45@U45@U45@U45@U45@U45@@sigc@@W4ObjectManagerClientFlags@23@@Z
    ?get_connection@ObjectManagerClient@DBus@Gio@@QEAA?AV?$RefPtr@VConnection@DBus@Gio@@@Glib@@XZ
    ?get_connection@ObjectManagerClient@DBus@Gio@@QEBA?AV?$RefPtr@$$CBVConnection@DBus@Gio@@@Glib@@XZ
    ?get_flags@ObjectManagerClient@DBus@Gio@@QEBA?AW4ObjectManagerClientFlags@23@XZ
    ?get_name@ObjectManagerClient@DBus@Gio@@QEBA?AVustring@Glib@@XZ
    ?get_name_owner@ObjectManagerClient@DBus@Gio@@QEBA?AVustring@Glib@@XZ
    ?property_connection@ObjectManagerClient@DBus@Gio@@QEBA?AV?$PropertyProxy_ReadOnly@V?$RefPtr@VConnection@DBus@Gio@@@Glib@@@Glib@@XZ
    ?property_flags@ObjectManagerClient@DBus@Gio@@QEBA?AV?$PropertyProxy_ReadOnly@W4ObjectManagerClientFlags@DBus@Gio@@@Glib@@XZ
    ?property_object_path@ObjectManagerClient@DBus@Gio@@QEBA?AV?$PropertyProxy_ReadOnly@Vustring@Glib@@@Glib@@XZ
    ?property_name@ObjectManagerClient@DBus@Gio@@QEBA?AV?$PropertyProxy_ReadOnly@Vustring@Glib@@@Glib@@XZ
    ?property_name_owner@ObjectManagerClient@DBus@Gio@@QEBA?AV?$PropertyProxy_ReadOnly@Vustring@Glib@@@Glib@@XZ
    ?signal_interface_proxy_signal@ObjectManagerClient@DBus@Gio@@QEAA?AV?$SignalProxy@XAEBV?$RefPtr@VObjectProxy@DBus@Gio@@@Glib@@AEBV?$RefPtr@VProxy@DBus@Gio@@@2@AEBVustring@2@AEBV42@AEBVVariantContainerBase@2@@Glib@@XZ
    ?signal_interface_proxy_properties_changed@ObjectManagerClient@DBus@Gio@@QEAA?AV?$SignalProxy@XAEBV?$RefPtr@VObjectProxy@DBus@Gio@@@Glib@@AEBV?$RefPtr@VProxy@DBus@Gio@@@2@AEBV?$map@Vustring@Glib@@VVariantBase@2@U?$less@Vustring@Glib@@@std@@V?$allocator@U?$pair@$$CBVustring@Glib@@VVariantBase@2@@std@@@5@@std@@AEBV?$vector@Vustring@Glib@@V?$allocator@Vustring@Glib@@@std@@@5@@Glib@@XZ
    ?on_interface_proxy_signal@ObjectManagerClient@DBus@Gio@@MEAAXAEBV?$RefPtr@VObjectProxy@DBus@Gio@@@Glib@@AEBV?$RefPtr@VProxy@DBus@Gio@@@5@AEBVustring@5@2AEBVVariantContainerBase@5@@Z
    ?on_interface_proxy_properties_changed@ObjectManagerClient@DBus@Gio@@MEAAXAEBV?$RefPtr@VObjectProxy@DBus@Gio@@@Glib@@AEBV?$RefPtr@VProxy@DBus@Gio@@@5@AEBV?$map@Vustring@Glib@@VVariantBase@2@U?$less@Vustring@Glib@@@std@@V?$allocator@U?$pair@$$CBVustring@Glib@@VVariantBase@2@@std@@@5@@std@@AEBV?$vector@Vustring@Glib@@V?$allocator@Vustring@Glib@@@std@@@8@@Z
    ??_DObjectManagerClient@DBus@Gio@@QEAAXXZ
    ??R?$slot@$$A6A_KAEBV?$RefPtr@VObjectManagerClient@DBus@Gio@@@Glib@@AEBVustring@2@1@ZUnil@sigc@@U45@U45@U45@U45@U45@U45@@sigc@@QEBA_KAEBV?$RefPtr@VObjectManagerClient@DBus@Gio@@@Glib@@AEBVustring@3@1@Z
    ??0?$slot@$$A6A_KAEBV?$RefPtr@VObjectManagerClient@DBus@Gio@@@Glib@@AEBVustring@2@1@ZUnil@sigc@@U45@U45@U45@U45@U45@U45@@sigc@@QEAA@AEBV01@@Z
    ??1?$slot@$$A6A_KAEBV?$RefPtr@VObjectManagerClient@DBus@Gio@@@Glib@@AEBVustring@2@1@ZUnil@sigc@@U45@U45@U45@U45@U45@U45@@sigc@@QEAA@XZ
    ??B?$RefPtr@VCancellable@Gio@@@Glib@@QEBA_NXZ
    ?wrap@Glib@@YA?AV?$RefPtr@VObjectManagerClient@DBus@Gio@@@1@PEAU_GDBusObjectManagerClient@@_N@Z
    ?init@ObjectManagerClient_Class@DBus@Gio@@QEAAAEBVClass@Glib@@XZ
    ?class_init_function@ObjectManagerClient_Class@DBus@Gio@@SAXPEAX0@Z
    ?wrap_new@ObjectManagerClient_Class@DBus@Gio@@SAPEAVObjectBase@Glib@@PEAU_GObject@@@Z
    ?interface_proxy_signal_callback@ObjectManagerClient_Class@DBus@Gio@@KAXPEAU_GDBusObjectManagerClient@@PEAU_GDBusObjectProxy@@PEAU_GDBusProxy@@PEBD3PEAU_GVariant@@@Z
    ?interface_proxy_properties_changed_callback@ObjectManagerClient_Class@DBus@Gio@@KAXPEAU_GDBusObjectManagerClient@@PEAU_GDBusObjectProxy@@PEAU_GDBusProxy@@PEAU_GVariant@@PEBQEBD@Z
    ??1?$RefPtr@VObjectManagerClient@DBus@Gio@@@Glib@@QEAA@XZ
    ??0?$RefPtr@VObjectManagerClient@DBus@Gio@@@Glib@@QEAA@PEAVObjectManagerClient@DBus@Gio@@@Z
    ??0?$RefPtr@VObjectManagerClient@DBus@Gio@@@Glib@@QEAA@$$QEAV01@@Z
    ??1?$RefPtr@VConnection@DBus@Gio@@@Glib@@QEAA@XZ
    ??0?$RefPtr@VConnection@DBus@Gio@@@Glib@@QEAA@$$QEAV01@@Z
    ??C?$RefPtr@VConnection@DBus@Gio@@@Glib@@QEBAPEAVConnection@DBus@Gio@@XZ
    ??B?$RefPtr@VConnection@DBus@Gio@@@Glib@@QEBA_NXZ
    ?release@?$RefPtr@VConnection@DBus@Gio@@@Glib@@QEAAPEAVConnection@DBus@Gio@@XZ
    ??$unwrap@VConnection@DBus@Gio@@@Glib@@YAPEAU_GDBusConnection@@AEBV?$RefPtr@VConnection@DBus@Gio@@@0@@Z
    ??$c_str_or_nullptr@Vustring@Glib@@@Glib@@YAPEBDAEBVustring@0@@Z
    ??$destroy_notify_delete@V?$slot@$$A6A_KAEBV?$RefPtr@VObjectManagerClient@DBus@Gio@@@Glib@@AEBVustring@2@1@ZUnil@sigc@@U45@U45@U45@U45@U45@U45@@sigc@@@Glib@@YAXPEAX@Z
    ??0?$slot1@XAEAV?$RefPtr@VAsyncResult@Gio@@@Glib@@@sigc@@QEAA@XZ
    ??1?$slot1@XAEAV?$RefPtr@VAsyncResult@Gio@@@Glib@@@sigc@@QEAA@XZ
    ??0?$slot@XAEAV?$RefPtr@VAsyncResult@Gio@@@Glib@@Unil@sigc@@U34@U34@U34@U34@U34@@sigc@@QEAA@XZ
    ??1?$slot@XAEAV?$RefPtr@VAsyncResult@Gio@@@Glib@@Unil@sigc@@U34@U34@U34@U34@U34@@sigc@@QEAA@XZ
    ??R?$slot5@XAEBV?$RefPtr@VObjectProxy@DBus@Gio@@@Glib@@AEBV?$RefPtr@VProxy@DBus@Gio@@@2@AEBVustring@2@AEBV42@AEBVVariantContainerBase@2@@sigc@@QEBAXAEBV?$RefPtr@VObjectProxy@DBus@Gio@@@Glib@@AEBV?$RefPtr@VProxy@DBus@Gio@@@3@AEBVustring@3@2AEBVVariantContainerBase@3@@Z
    ??1?$RefPtr@VObjectProxy@DBus@Gio@@@Glib@@QEAA@XZ
    ??C?$RefPtr@VObjectProxy@DBus@Gio@@@Glib@@QEBAPEAVObjectProxy@DBus@Gio@@XZ
    ??B?$RefPtr@VObjectProxy@DBus@Gio@@@Glib@@QEBA_NXZ
    ??1?$RefPtr@VProxy@DBus@Gio@@@Glib@@QEAA@XZ
    ??C?$RefPtr@VProxy@DBus@Gio@@@Glib@@QEBAPEAVProxy@DBus@Gio@@XZ
    ??B?$RefPtr@VProxy@DBus@Gio@@@Glib@@QEBA_NXZ
    ??R?$slot4@XAEBV?$RefPtr@VObjectProxy@DBus@Gio@@@Glib@@AEBV?$RefPtr@VProxy@DBus@Gio@@@2@AEBV?$map@Vustring@Glib@@VVariantBase@2@U?$less@Vustring@Glib@@@std@@V?$allocator@U?$pair@$$CBVustring@Glib@@VVariantBase@2@@std@@@5@@std@@AEBV?$vector@Vustring@Glib@@V?$allocator@Vustring@Glib@@@std@@@5@@sigc@@QEBAXAEBV?$RefPtr@VObjectProxy@DBus@Gio@@@Glib@@AEBV?$RefPtr@VProxy@DBus@Gio@@@3@AEBV?$map@Vustring@Glib@@VVariantBase@2@U?$less@Vustring@Glib@@@std@@V?$allocator@U?$pair@$$CBVustring@Glib@@VVariantBase@2@@std@@@5@@std@@AEBV?$vector@Vustring@Glib@@V?$allocator@Vustring@Glib@@@std@@@6@@Z
    ??0?$Variant@V?$map@Vustring@Glib@@VVariantBase@2@U?$less@Vustring@Glib@@@std@@V?$allocator@U?$pair@$$CBVustring@Glib@@VVariantBase@2@@std@@@5@@std@@@Glib@@QEAA@PEAU_GVariant@@_N@Z
    ?variant_type@?$Variant@V?$map@Vustring@Glib@@VVariantBase@2@U?$less@Vustring@Glib@@@std@@V?$allocator@U?$pair@$$CBVustring@Glib@@VVariantBase@2@@std@@@5@@std@@@Glib@@SAAEBVVariantType@2@XZ
    ?create@?$Variant@V?$map@Vustring@Glib@@VVariantBase@2@U?$less@Vustring@Glib@@@std@@V?$allocator@U?$pair@$$CBVustring@Glib@@VVariantBase@2@@std@@@5@@std@@@Glib@@SA?AV12@AEBV?$map@Vustring@Glib@@VVariantBase@2@U?$less@Vustring@Glib@@@std@@V?$allocator@U?$pair@$$CBVustring@Glib@@VVariantBase@2@@std@@@5@@std@@@Z
    ?get@?$Variant@V?$map@Vustring@Glib@@VVariantBase@2@U?$less@Vustring@Glib@@@std@@V?$allocator@U?$pair@$$CBVustring@Glib@@VVariantBase@2@@std@@@5@@std@@@Glib@@QEBA?AV?$map@Vustring@Glib@@VVariantBase@2@U?$less@Vustring@Glib@@@std@@V?$allocator@U?$pair@$$CBVustring@Glib@@VVariantBase@2@@std@@@5@@std@@XZ
    ?get_iter@?$Variant@V?$map@Vustring@Glib@@VVariantBase@2@U?$less@Vustring@Glib@@@std@@V?$allocator@U?$pair@$$CBVustring@Glib@@VVariantBase@2@@std@@@5@@std@@@Glib@@QEBA?AVVariantIter@2@XZ
    ??1?$Variant@V?$map@Vustring@Glib@@VVariantBase@2@U?$less@Vustring@Glib@@@std@@V?$allocator@U?$pair@$$CBVustring@Glib@@VVariantBase@2@@std@@@5@@std@@@Glib@@QEAA@XZ
    ??0?$Variant@V?$map@Vustring@Glib@@VVariantBase@2@U?$less@Vustring@Glib@@@std@@V?$allocator@U?$pair@$$CBVustring@Glib@@VVariantBase@2@@std@@@5@@std@@@Glib@@QEAA@$$QEAV01@@Z
    ??0?$allocator@U?$_Tree_node@U?$pair@$$CBVustring@Glib@@VVariantBase@2@@std@@PEAX@std@@@std@@QEAA@XZ
    ?deallocate@?$allocator@U?$_Tree_node@U?$pair@$$CBVustring@Glib@@VVariantBase@2@@std@@PEAX@std@@@std@@QEAAXQEAU?$_Tree_node@U?$pair@$$CBVustring@Glib@@VVariantBase@2@@std@@PEAX@2@_K@Z
    ?allocate@?$allocator@U?$_Tree_node@U?$pair@$$CBVustring@Glib@@VVariantBase@2@@std@@PEAX@std@@@std@@QEAAPEAU?$_Tree_node@U?$pair@$$CBVustring@Glib@@VVariantBase@2@@std@@PEAX@2@_K@Z
    ?deallocate@?$_Default_allocator_traits@V?$allocator@U?$_Tree_node@U?$pair@$$CBVustring@Glib@@VVariantBase@2@@std@@PEAX@std@@@std@@@std@@SAXAEAV?$allocator@U?$_Tree_node@U?$pair@$$CBVustring@Glib@@VVariantBase@2@@std@@PEAX@std@@@2@QEAU?$_Tree_node@U?$pair@$$CBVustring@Glib@@VVariantBase@2@@std@@PEAX@2@_K@Z
    ?max_size@?$_Default_allocator_traits@V?$allocator@U?$_Tree_node@U?$pair@$$CBVustring@Glib@@VVariantBase@2@@std@@PEAX@std@@@std@@@std@@SA_KAEBV?$allocator@U?$_Tree_node@U?$pair@$$CBVustring@Glib@@VVariantBase@2@@std@@PEAX@std@@@2@@Z
    ??0?$_Tree@V?$_Tmap_traits@Vustring@Glib@@VVariantBase@2@U?$less@Vustring@Glib@@@std@@V?$allocator@U?$pair@$$CBVustring@Glib@@VVariantBase@2@@std@@@5@$0A@@std@@@std@@QEAA@AEBU?$less@Vustring@Glib@@@1@@Z
    ??0?$_Tree@V?$_Tmap_traits@Vustring@Glib@@VVariantBase@2@U?$less@Vustring@Glib@@@std@@V?$allocator@U?$pair@$$CBVustring@Glib@@VVariantBase@2@@std@@@5@$0A@@std@@@std@@QEAA@$$QEAV01@@Z
    ?_Swap_val_excluding_comp@?$_Tree@V?$_Tmap_traits@Vustring@Glib@@VVariantBase@2@U?$less@Vustring@Glib@@@std@@V?$allocator@U?$pair@$$CBVustring@Glib@@VVariantBase@2@@std@@@5@$0A@@std@@@std@@AEAAXAEAV12@@Z
    ??1?$_Tree@V?$_Tmap_traits@Vustring@Glib@@VVariantBase@2@U?$less@Vustring@Glib@@@std@@V?$allocator@U?$pair@$$CBVustring@Glib@@VVariantBase@2@@std@@@5@$0A@@std@@@std@@QEAA@XZ
    ?_Unchecked_begin@?$_Tree@V?$_Tmap_traits@Vustring@Glib@@VVariantBase@2@U?$less@Vustring@Glib@@@std@@V?$allocator@U?$pair@$$CBVustring@Glib@@VVariantBase@2@@std@@@5@$0A@@std@@@std@@QEBA?AV?$_Tree_unchecked_const_iterator@V?$_Tree_val@U?$_Tree_simple_types@U?$pair@$$CBVustring@Glib@@VVariantBase@2@@std@@@std@@@std@@U_Iterator_base0@2@@2@XZ
    ?_Unchecked_end@?$_Tree@V?$_Tmap_traits@Vustring@Glib@@VVariantBase@2@U?$less@Vustring@Glib@@@std@@V?$allocator@U?$pair@$$CBVustring@Glib@@VVariantBase@2@@std@@@5@$0A@@std@@@std@@QEBA?AU_Default_sentinel@2@XZ
    ?max_size@?$_Tree@V?$_Tmap_traits@Vustring@Glib@@VVariantBase@2@U?$less@Vustring@Glib@@@std@@V?$allocator@U?$pair@$$CBVustring@Glib@@VVariantBase@2@@std@@@5@$0A@@std@@@std@@QEBA_KXZ
    ?key_comp@?$_Tree@V?$_Tmap_traits@Vustring@Glib@@VVariantBase@2@U?$less@Vustring@Glib@@@std@@V?$allocator@U?$pair@$$CBVustring@Glib@@VVariantBase@2@@std@@@5@$0A@@std@@@std@@QEBA?AU?$less@Vustring@Glib@@@2@XZ
    ?_Check_grow_by_1@?$_Tree@V?$_Tmap_traits@Vustring@Glib@@VVariantBase@2@U?$less@Vustring@Glib@@@std@@V?$allocator@U?$pair@$$CBVustring@Glib@@VVariantBase@2@@std@@@5@$0A@@std@@@std@@IEAAXXZ
    ?_Alloc_sentinel_and_proxy@?$_Tree@V?$_Tmap_traits@Vustring@Glib@@VVariantBase@2@U?$less@Vustring@Glib@@@std@@V?$allocator@U?$pair@$$CBVustring@Glib@@VVariantBase@2@@std@@@5@$0A@@std@@@std@@IEAAXXZ
    ?_Getcomp@?$_Tree@V?$_Tmap_traits@Vustring@Glib@@VVariantBase@2@U?$less@Vustring@Glib@@@std@@V?$allocator@U?$pair@$$CBVustring@Glib@@VVariantBase@2@@std@@@5@$0A@@std@@@std@@IEBAAEBU?$less@Vustring@Glib@@@2@XZ
    ?_Getal@?$_Tree@V?$_Tmap_traits@Vustring@Glib@@VVariantBase@2@U?$less@Vustring@Glib@@@std@@V?$allocator@U?$pair@$$CBVustring@Glib@@VVariantBase@2@@std@@@5@$0A@@std@@@std@@IEAAAEAV?$allocator@U?$_Tree_node@U?$pair@$$CBVustring@Glib@@VVariantBase@2@@std@@PEAX@std@@@2@XZ
    ?_Getal@?$_Tree@V?$_Tmap_traits@Vustring@Glib@@VVariantBase@2@U?$less@Vustring@Glib@@@std@@V?$allocator@U?$pair@$$CBVustring@Glib@@VVariantBase@2@@std@@@5@$0A@@std@@@std@@IEBAAEBV?$allocator@U?$_Tree_node@U?$pair@$$CBVustring@Glib@@VVariantBase@2@@std@@PEAX@std@@@2@XZ
    ?_Get_scary@?$_Tree@V?$_Tmap_traits@Vustring@Glib@@VVariantBase@2@U?$less@Vustring@Glib@@@std@@V?$allocator@U?$pair@$$CBVustring@Glib@@VVariantBase@2@@std@@@5@$0A@@std@@@std@@IEAAPEAV?$_Tree_val@U?$_Tree_simple_types@U?$pair@$$CBVustring@Glib@@VVariantBase@2@@std@@@std@@@2@XZ
    ?_Get_scary@?$_Tree@V?$_Tmap_traits@Vustring@Glib@@VVariantBase@2@U?$less@Vustring@Glib@@@std@@V?$allocator@U?$pair@$$CBVustring@Glib@@VVariantBase@2@@std@@@5@$0A@@std@@@std@@IEBAPEBV?$_Tree_val@U?$_Tree_simple_types@U?$pair@$$CBVustring@Glib@@VVariantBase@2@@std@@@std@@@2@XZ
    ??0?$_Tree_val@U?$_Tree_simple_types@U?$pair@$$CBVustring@Glib@@VVariantBase@2@@std@@@std@@@std@@QEAA@XZ
    ?_Min@?$_Tree_val@U?$_Tree_simple_types@U?$pair@$$CBVustring@Glib@@VVariantBase@2@@std@@@std@@@std@@SAPEAU?$_Tree_node@U?$pair@$$CBVustring@Glib@@VVariantBase@2@@std@@PEAX@2@PEAU32@@Z
    ?_Lrotate@?$_Tree_val@U?$_Tree_simple_types@U?$pair@$$CBVustring@Glib@@VVariantBase@2@@std@@@std@@@std@@QEAAXPEAU?$_Tree_node@U?$pair@$$CBVustring@Glib@@VVariantBase@2@@std@@PEAX@2@@Z
    ?_Rrotate@?$_Tree_val@U?$_Tree_simple_types@U?$pair@$$CBVustring@Glib@@VVariantBase@2@@std@@@std@@@std@@QEAAXPEAU?$_Tree_node@U?$pair@$$CBVustring@Glib@@VVariantBase@2@@std@@PEAX@2@@Z
    ?_Insert_node@?$_Tree_val@U?$_Tree_simple_types@U?$pair@$$CBVustring@Glib@@VVariantBase@2@@std@@@std@@@std@@QEAAPEAU?$_Tree_node@U?$pair@$$CBVustring@Glib@@VVariantBase@2@@std@@PEAX@2@U?$_Tree_id@PEAU?$_Tree_node@U?$pair@$$CBVustring@Glib@@VVariantBase@2@@std@@PEAX@std@@@2@QEAU32@@Z
    ?_Get_first@?$_Compressed_pair@V?$allocator@U?$_Tree_node@U?$pair@$$CBVustring@Glib@@VVariantBase@2@@std@@PEAX@std@@@std@@V?$_Tree_val@U?$_Tree_simple_types@U?$pair@$$CBVustring@Glib@@VVariantBase@2@@std@@@std@@@2@$00@std@@QEAAAEAV?$allocator@U?$_Tree_node@U?$pair@$$CBVustring@Glib@@VVariantBase@2@@std@@PEAX@std@@@2@XZ
    ?_Get_first@?$_Compressed_pair@V?$allocator@U?$_Tree_node@U?$pair@$$CBVustring@Glib@@VVariantBase@2@@std@@PEAX@std@@@std@@V?$_Tree_val@U?$_Tree_simple_types@U?$pair@$$CBVustring@Glib@@VVariantBase@2@@std@@@std@@@2@$00@std@@QEBAAEBV?$allocator@U?$_Tree_node@U?$pair@$$CBVustring@Glib@@VVariantBase@2@@std@@PEAX@std@@@2@XZ
    ?_Get_first@?$_Compressed_pair@U?$less@Vustring@Glib@@@std@@V?$_Compressed_pair@V?$allocator@U?$_Tree_node@U?$pair@$$CBVustring@Glib@@VVariantBase@2@@std@@PEAX@std@@@std@@V?$_Tree_val@U?$_Tree_simple_types@U?$pair@$$CBVustring@Glib@@VVariantBase@2@@std@@@std@@@2@$00@2@$00@std@@QEBAAEBU?$less@Vustring@Glib@@@2@XZ
    ??0?$map@Vustring@Glib@@VVariantBase@2@U?$less@Vustring@Glib@@@std@@V?$allocator@U?$pair@$$CBVustring@Glib@@VVariantBase@2@@std@@@5@@std@@QEAA@XZ
    ??0?$map@Vustring@Glib@@VVariantBase@2@U?$less@Vustring@Glib@@@std@@V?$allocator@U?$pair@$$CBVustring@Glib@@VVariantBase@2@@std@@@5@@std@@QEAA@$$QEAV01@@Z
    ??1?$map@Vustring@Glib@@VVariantBase@2@U?$less@Vustring@Glib@@@std@@V?$allocator@U?$pair@$$CBVustring@Glib@@VVariantBase@2@@std@@@5@@std@@QEAA@XZ
    ?array_to_vector@?$ArrayHandler@Vustring@Glib@@U?$TypeTraits@Vustring@Glib@@@Container_Helpers@2@@Glib@@SA?AV?$vector@Vustring@Glib@@V?$allocator@Vustring@Glib@@@std@@@std@@PEBQEBD_KW4OwnershipType@2@@Z
    ?array_to_vector@?$ArrayHandler@Vustring@Glib@@U?$TypeTraits@Vustring@Glib@@@Container_Helpers@2@@Glib@@SA?AV?$vector@Vustring@Glib@@V?$allocator@Vustring@Glib@@@std@@@std@@PEBQEBDW4OwnershipType@2@@Z
    ?vector_to_array@?$ArrayHandler@Vustring@Glib@@U?$TypeTraits@Vustring@Glib@@@Container_Helpers@2@@Glib@@SA?AV?$ArrayKeeper@U?$TypeTraits@Vustring@Glib@@@Container_Helpers@Glib@@@Container_Helpers@2@AEBV?$vector@Vustring@Glib@@V?$allocator@Vustring@Glib@@@std@@@std@@@Z
    ??0?$allocator@Vustring@Glib@@@std@@QEAA@XZ
    ?deallocate@?$allocator@Vustring@Glib@@@std@@QEAAXQEAVustring@Glib@@_K@Z
    ?allocate@?$allocator@Vustring@Glib@@@std@@QEAAPEAVustring@Glib@@_K@Z
    ?max_size@?$_Default_allocator_traits@V?$allocator@Vustring@Glib@@@std@@@std@@SA_KAEBV?$allocator@Vustring@Glib@@@2@@Z
    ??0?$vector@Vustring@Glib@@V?$allocator@Vustring@Glib@@@std@@@std@@QEAA@XZ
    ??1?$vector@Vustring@Glib@@V?$allocator@Vustring@Glib@@@std@@@std@@QEAA@XZ
    ?begin@?$vector@Vustring@Glib@@V?$allocator@Vustring@Glib@@@std@@@std@@QEBA?AV?$_Vector_const_iterator@V?$_Vector_val@U?$_Simple_types@Vustring@Glib@@@std@@@std@@@2@XZ
    ?size@?$vector@Vustring@Glib@@V?$allocator@Vustring@Glib@@@std@@@std@@QEBA_KXZ
    ?max_size@?$vector@Vustring@Glib@@V?$allocator@Vustring@Glib@@@std@@@std@@QEBA_KXZ
    ?_Buy_raw@?$vector@Vustring@Glib@@V?$allocator@Vustring@Glib@@@std@@@std@@AEAAX_K@Z
    ?_Buy_nonzero@?$vector@Vustring@Glib@@V?$allocator@Vustring@Glib@@@std@@@std@@AEAAX_K@Z
    ?_Tidy@?$vector@Vustring@Glib@@V?$allocator@Vustring@Glib@@@std@@@std@@AEAAXXZ
    ?_Xlength@?$vector@Vustring@Glib@@V?$allocator@Vustring@Glib@@@std@@@std@@CAXXZ
    ?_Getal@?$vector@Vustring@Glib@@V?$allocator@Vustring@Glib@@@std@@@std@@AEAAAEAV?$allocator@Vustring@Glib@@@2@XZ
    ?_Getal@?$vector@Vustring@Glib@@V?$allocator@Vustring@Glib@@@std@@@std@@AEBAAEBV?$allocator@Vustring@Glib@@@2@XZ
    ??0?$_Vector_val@U?$_Simple_types@Vustring@Glib@@@std@@@std@@QEAA@XZ
    ?_Get_first@?$_Compressed_pair@V?$allocator@Vustring@Glib@@@std@@V?$_Vector_val@U?$_Simple_types@Vustring@Glib@@@std@@@2@$00@std@@QEAAAEAV?$allocator@Vustring@Glib@@@2@XZ
    ?_Get_first@?$_Compressed_pair@V?$allocator@Vustring@Glib@@@std@@V?$_Vector_val@U?$_Simple_types@Vustring@Glib@@@std@@@2@$00@std@@QEBAAEBV?$allocator@Vustring@Glib@@@2@XZ
    ??$move@AEAVObjectManagerClient@DBus@Gio@@@std@@YA$$QEAVObjectManagerClient@DBus@Gio@@AEAV123@@Z
    ??C?$RefPtr@VAsyncResult@Gio@@@Glib@@QEBAPEAVAsyncResult@Gio@@XZ
    ??B?$RefPtr@VAsyncResult@Gio@@@Glib@@QEBA_NXZ
    ??$unwrap@VAsyncResult@Gio@@@Glib@@YAPEAU_GAsyncResult@@AEBV?$RefPtr@VAsyncResult@Gio@@@0@@Z
    ??1?$RefPtr@$$CBVConnection@DBus@Gio@@@Glib@@QEAA@XZ
    ??$?0VConnection@DBus@Gio@@@?$RefPtr@$$CBVConnection@DBus@Gio@@@Glib@@QEAA@$$QEAV?$RefPtr@VConnection@DBus@Gio@@@1@@Z
    ??0?$SignalProxy@XAEBV?$RefPtr@VObjectProxy@DBus@Gio@@@Glib@@AEBV?$RefPtr@VProxy@DBus@Gio@@@2@AEBVustring@2@AEBV42@AEBVVariantContainerBase@2@@Glib@@QEAA@PEAVObjectBase@1@PEBUSignalProxyInfo@1@@Z
    ??1?$SignalProxy@XAEBV?$RefPtr@VObjectProxy@DBus@Gio@@@Glib@@AEBV?$RefPtr@VProxy@DBus@Gio@@@2@AEBVustring@2@AEBV42@AEBVVariantContainerBase@2@@Glib@@QEAA@XZ
    ??0?$SignalProxy@XAEBV?$RefPtr@VObjectProxy@DBus@Gio@@@Glib@@AEBV?$RefPtr@VProxy@DBus@Gio@@@2@AEBV?$map@Vustring@Glib@@VVariantBase@2@U?$less@Vustring@Glib@@@std@@V?$allocator@U?$pair@$$CBVustring@Glib@@VVariantBase@2@@std@@@5@@std@@AEBV?$vector@Vustring@Glib@@V?$allocator@Vustring@Glib@@@std@@@5@@Glib@@QEAA@PEAVObjectBase@1@PEBUSignalProxyInfo@1@@Z
    ??1?$SignalProxy@XAEBV?$RefPtr@VObjectProxy@DBus@Gio@@@Glib@@AEBV?$RefPtr@VProxy@DBus@Gio@@@2@AEBV?$map@Vustring@Glib@@VVariantBase@2@U?$less@Vustring@Glib@@@std@@V?$allocator@U?$pair@$$CBVustring@Glib@@VVariantBase@2@@std@@@5@@std@@AEBV?$vector@Vustring@Glib@@V?$allocator@Vustring@Glib@@@std@@@5@@Glib@@QEAA@XZ
    ??0?$PropertyProxy_ReadOnly@V?$RefPtr@VConnection@DBus@Gio@@@Glib@@@Glib@@QEAA@PEBVObjectBase@1@PEBD@Z
    ??0?$PropertyProxy_ReadOnly@W4ObjectManagerClientFlags@DBus@Gio@@@Glib@@QEAA@PEBVObjectBase@1@PEBD@Z
    ??0?$PropertyProxy_ReadOnly@Vustring@Glib@@@Glib@@QEAA@PEBVObjectBase@1@PEBD@Z
    ??$unwrap@VObjectProxy@DBus@Gio@@@Glib@@YAPEAU_GDBusObjectProxy@@AEBV?$RefPtr@VObjectProxy@DBus@Gio@@@0@@Z
    ??$unwrap@VProxy@DBus@Gio@@@Glib@@YAPEAU_GDBusProxy@@AEBV?$RefPtr@VProxy@DBus@Gio@@@0@@Z
    ??0?$ArrayKeeper@U?$TypeTraits@Vustring@Glib@@@Container_Helpers@Glib@@@Container_Helpers@Glib@@QEAA@PEBQEBD_KW4OwnershipType@2@@Z
    ??1?$ArrayKeeper@U?$TypeTraits@Vustring@Glib@@@Container_Helpers@Glib@@@Container_Helpers@Glib@@QEAA@XZ
    ?data@?$ArrayKeeper@U?$TypeTraits@Vustring@Glib@@@Container_Helpers@Glib@@@Container_Helpers@Glib@@QEBAPEAPEBDXZ
    ??$min@_K@std@@YAAEB_KAEB_K0@Z
    ??$?0PEADP6AXPEAX@Z$0A@$0A@@?$unique_ptr@$$BY0A@DP6AXPEAX@Z@std@@QEAA@PEAD$$QEAP6AXPEAX@Z@Z
    ??$?0P6AXPEAX@Z$0A@@?$unique_ptr@$$BY0A@DP6AXPEAX@Z@std@@QEAA@$$QEAV01@@Z
    ??0?$Variant@U?$pair@Vustring@Glib@@VVariantBase@2@@std@@@Glib@@QEAA@XZ
    ??0?$Variant@U?$pair@Vustring@Glib@@VVariantBase@2@@std@@@Glib@@QEAA@PEAU_GVariant@@_N@Z
    ?variant_type@?$Variant@U?$pair@Vustring@Glib@@VVariantBase@2@@std@@@Glib@@SAAEBVVariantType@2@XZ
    ?create@?$Variant@U?$pair@Vustring@Glib@@VVariantBase@2@@std@@@Glib@@SA?AV12@AEBU?$pair@Vustring@Glib@@VVariantBase@2@@std@@@Z
    ?get@?$Variant@U?$pair@Vustring@Glib@@VVariantBase@2@@std@@@Glib@@QEBA?AU?$pair@Vustring@Glib@@VVariantBase@2@@std@@XZ
    ??1?$Variant@U?$pair@Vustring@Glib@@VVariantBase@2@@std@@@Glib@@QEAA@XZ
    ??0?$Variant@U?$pair@Vustring@Glib@@VVariantBase@2@@std@@@Glib@@QEAA@$$QEAV01@@Z
    ??0?$_Tree_unchecked_const_iterator@V?$_Tree_val@U?$_Tree_simple_types@U?$pair@$$CBVustring@Glib@@VVariantBase@2@@std@@@std@@@std@@U_Iterator_base0@2@@std@@QEAA@PEAU?$_Tree_node@U?$pair@$$CBVustring@Glib@@VVariantBase@2@@std@@PEAX@1@PEBV?$_Tree_val@U?$_Tree_simple_types@U?$pair@$$CBVustring@Glib@@VVariantBase@2@@std@@@std@@@1@@Z
    ??D?$_Tree_unchecked_const_iterator@V?$_Tree_val@U?$_Tree_simple_types@U?$pair@$$CBVustring@Glib@@VVariantBase@2@@std@@@std@@@std@@U_Iterator_base0@2@@std@@QEBAAEBU?$pair@$$CBVustring@Glib@@VVariantBase@2@@1@XZ
    ??E?$_Tree_unchecked_const_iterator@V?$_Tree_val@U?$_Tree_simple_types@U?$pair@$$CBVustring@Glib@@VVariantBase@2@@std@@@std@@@std@@U_Iterator_base0@2@@std@@QEAAAEAV01@XZ
    ??9?$_Tree_unchecked_const_iterator@V?$_Tree_val@U?$_Tree_simple_types@U?$pair@$$CBVustring@Glib@@VVariantBase@2@@std@@@std@@@std@@U_Iterator_base0@2@@std@@QEBA_NU_Default_sentinel@1@@Z
    ??1?$pair@$$CBVustring@Glib@@VVariantBase@2@@std@@QEAA@XZ
    ??0?$pair@Vustring@Glib@@VVariantBase@2@@std@@QEAA@$$QEAU01@@Z
    ??1?$pair@Vustring@Glib@@VVariantBase@2@@std@@QEAA@XZ
    ??$?0$$CBVustring@Glib@@VVariantBase@1@$0A@@?$pair@Vustring@Glib@@VVariantBase@2@@std@@QEAA@AEBU?$pair@$$CBVustring@Glib@@VVariantBase@2@@1@@Z
    ??$?0Vustring@Glib@@VVariantBase@1@$0A@@?$pair@$$CBVustring@Glib@@VVariantBase@2@@std@@QEAA@$$QEAU?$pair@Vustring@Glib@@VVariantBase@2@@1@@Z
    ??$insert@U?$pair@Vustring@Glib@@VVariantBase@2@@std@@$0A@@?$map@Vustring@Glib@@VVariantBase@2@U?$less@Vustring@Glib@@@std@@V?$allocator@U?$pair@$$CBVustring@Glib@@VVariantBase@2@@std@@@5@@std@@QEAA?AU?$pair@V?$_Tree_iterator@V?$_Tree_val@U?$_Tree_simple_types@U?$pair@$$CBVustring@Glib@@VVariantBase@2@@std@@@std@@@std@@@std@@_N@1@$$QEAU?$pair@Vustring@Glib@@VVariantBase@2@@1@@Z
    ??0?$_Tree_const_iterator@V?$_Tree_val@U?$_Tree_simple_types@U?$pair@$$CBVustring@Glib@@VVariantBase@2@@std@@@std@@@std@@@std@@QEAA@PEAU?$_Tree_node@U?$pair@$$CBVustring@Glib@@VVariantBase@2@@std@@PEAX@1@PEBV?$_Tree_val@U?$_Tree_simple_types@U?$pair@$$CBVustring@Glib@@VVariantBase@2@@std@@@std@@@1@@Z
    ??0?$_Tree_iterator@V?$_Tree_val@U?$_Tree_simple_types@U?$pair@$$CBVustring@Glib@@VVariantBase@2@@std@@@std@@@std@@@std@@QEAA@PEAU?$_Tree_node@U?$pair@$$CBVustring@Glib@@VVariantBase@2@@std@@PEAX@1@PEBV?$_Tree_val@U?$_Tree_simple_types@U?$pair@$$CBVustring@Glib@@VVariantBase@2@@std@@@std@@@1@@Z
    ??$compute_array_size2@PEBD@Container_Helpers@Glib@@YA_KPEBQEBD@Z
    ??0?$_Vector_const_iterator@V?$_Vector_val@U?$_Simple_types@Vustring@Glib@@@std@@@std@@@std@@QEAA@PEAVustring@Glib@@PEBU_Container_base0@1@@Z
    ??D?$_Vector_const_iterator@V?$_Vector_val@U?$_Simple_types@Vustring@Glib@@@std@@@std@@@std@@QEBAAEBVustring@Glib@@XZ
    ??E?$_Vector_const_iterator@V?$_Vector_val@U?$_Simple_types@Vustring@Glib@@@std@@@std@@@std@@QEAAAEAV01@XZ
    ??$create_array@U?$TypeTraits@Vustring@Glib@@@Container_Helpers@Glib@@@Container_Helpers@Glib@@YAPEAPEBDV?$_Vector_const_iterator@V?$_Vector_val@U?$_Simple_types@Vustring@Glib@@@std@@@std@@@std@@_K@Z
    ??$_Erase_head@V?$allocator@U?$_Tree_node@U?$pair@$$CBVustring@Glib@@VVariantBase@2@@std@@PEAX@std@@@std@@@?$_Tree_val@U?$_Tree_simple_types@U?$pair@$$CBVustring@Glib@@VVariantBase@2@@std@@@std@@@std@@QEAAXAEAV?$allocator@U?$_Tree_node@U?$pair@$$CBVustring@Glib@@VVariantBase@2@@std@@PEAX@std@@@1@@Z
    ??$function_pointer_cast@P6AXPEAUslot_rep@internal@sigc@@AEBV?$RefPtr@VObjectProxy@DBus@Gio@@@Glib@@AEBV?$RefPtr@VProxy@DBus@Gio@@@5@AEBV?$map@Vustring@Glib@@VVariantBase@2@U?$less@Vustring@Glib@@@std@@V?$allocator@U?$pair@$$CBVustring@Glib@@VVariantBase@2@@std@@@5@@std@@AEBV?$vector@Vustring@Glib@@V?$allocator@Vustring@Glib@@@std@@@8@@ZP6APEAXPEAX@Z@internal@sigc@@YAP6AXPEAUslot_rep@01@AEBV?$RefPtr@VObjectProxy@DBus@Gio@@@Glib@@AEBV?$RefPtr@VProxy@DBus@Gio@@@4@AEBV?$map@Vustring@Glib@@VVariantBase@2@U?$less@Vustring@Glib@@@std@@V?$allocator@U?$pair@$$CBVustring@Glib@@VVariantBase@2@@std@@@5@@std@@AEBV?$vector@Vustring@Glib@@V?$allocator@Vustring@Glib@@@std@@@7@@ZP6APEAXPEAX@Z@Z
    ??$function_pointer_cast@P6AXPEAUslot_rep@internal@sigc@@AEBV?$RefPtr@VObjectProxy@DBus@Gio@@@Glib@@AEBV?$RefPtr@VProxy@DBus@Gio@@@5@AEBVustring@5@3AEBVVariantContainerBase@5@@ZP6APEAXPEAX@Z@internal@sigc@@YAP6AXPEAUslot_rep@01@AEBV?$RefPtr@VObjectProxy@DBus@Gio@@@Glib@@AEBV?$RefPtr@VProxy@DBus@Gio@@@4@AEBVustring@4@3AEBVVariantContainerBase@4@@ZP6APEAXPEAX@Z@Z
    ??$function_pointer_cast@P6A_KPEAUslot_rep@internal@sigc@@AEBV?$RefPtr@VObjectManagerClient@DBus@Gio@@@Glib@@AEBVustring@5@2@ZP6APEAXPEAX@Z@internal@sigc@@YAP6A_KPEAUslot_rep@01@AEBV?$RefPtr@VObjectManagerClient@DBus@Gio@@@Glib@@AEBVustring@4@2@ZP6APEAXPEAX@Z@Z
    ??$_Convert_size@_K_K@std@@YA_K_K@Z
    ??$move@AEAP6AXPEAX@Z@std@@YA$$QEAP6AXPEAX@ZAEAP6AX0@Z@Z
    ??$?0P6AXPEAX@ZAEAPEAD@?$_Compressed_pair@P6AXPEAX@ZPEAD$0A@@std@@QEAA@U_One_then_variadic_args_t@1@$$QEAP6AXPEAX@ZAEAPEAD@Z
    ??$forward@P6AXPEAX@Z@std@@YA$$QEAP6AXPEAX@ZAEAP6AX0@Z@Z
    ??$?0P6AXPEAX@ZPEAD@?$_Compressed_pair@P6AXPEAX@ZPEAD$0A@@std@@QEAA@U_One_then_variadic_args_t@1@$$QEAP6AXPEAX@Z$$QEAPEAD@Z
    ??$forward@U?$pair@Vustring@Glib@@VVariantBase@2@@std@@@std@@YA$$QEAU?$pair@Vustring@Glib@@VVariantBase@2@@0@AEAU10@@Z
    ??$emplace@U?$pair@Vustring@Glib@@VVariantBase@2@@std@@@?$_Tree@V?$_Tmap_traits@Vustring@Glib@@VVariantBase@2@U?$less@Vustring@Glib@@@std@@V?$allocator@U?$pair@$$CBVustring@Glib@@VVariantBase@2@@std@@@5@$0A@@std@@@std@@QEAA?AU?$pair@V?$_Tree_iterator@V?$_Tree_val@U?$_Tree_simple_types@U?$pair@$$CBVustring@Glib@@VVariantBase@2@@std@@@std@@@std@@@std@@_N@1@$$QEAU?$pair@Vustring@Glib@@VVariantBase@2@@1@@Z
    ??$_Erase_tree@V?$allocator@U?$_Tree_node@U?$pair@$$CBVustring@Glib@@VVariantBase@2@@std@@PEAX@std@@@std@@@?$_Tree_val@U?$_Tree_simple_types@U?$pair@$$CBVustring@Glib@@VVariantBase@2@@std@@@std@@@std@@QEAAXAEAV?$allocator@U?$_Tree_node@U?$pair@$$CBVustring@Glib@@VVariantBase@2@@std@@PEAX@std@@@1@PEAU?$_Tree_node@U?$pair@$$CBVustring@Glib@@VVariantBase@2@@std@@PEAX@1@@Z
    ??$_Freenode0@V?$allocator@U?$_Tree_node@U?$pair@$$CBVustring@Glib@@VVariantBase@2@@std@@PEAX@std@@@std@@@?$_Tree_node@U?$pair@$$CBVustring@Glib@@VVariantBase@2@@std@@PEAX@std@@SAXAEAV?$allocator@U?$_Tree_node@U?$pair@$$CBVustring@Glib@@VVariantBase@2@@std@@PEAX@std@@@1@PEAU01@@Z
    ??0?$ArrayIterator@U?$TypeTraits@Vustring@Glib@@@Container_Helpers@Glib@@@Container_Helpers@Glib@@QEAA@PEBQEBD@Z
    ??D?$ArrayIterator@U?$TypeTraits@Vustring@Glib@@@Container_Helpers@Glib@@@Container_Helpers@Glib@@QEBA?AVustring@2@XZ
    ??E?$ArrayIterator@U?$TypeTraits@Vustring@Glib@@@Container_Helpers@Glib@@@Container_Helpers@Glib@@QEAAAEAV012@XZ
    ??G?$ArrayIterator@U?$TypeTraits@Vustring@Glib@@@Container_Helpers@Glib@@@Container_Helpers@Glib@@QEBA_JAEBV012@@Z
    ??9?$ArrayIterator@U?$TypeTraits@Vustring@Glib@@@Container_Helpers@Glib@@@Container_Helpers@Glib@@QEBA_NAEBV012@@Z
    ??$?0V?$ArrayIterator@U?$TypeTraits@Vustring@Glib@@@Container_Helpers@Glib@@@Container_Helpers@Glib@@$0A@@?$vector@Vustring@Glib@@V?$allocator@Vustring@Glib@@@std@@@std@@QEAA@V?$ArrayIterator@U?$TypeTraits@Vustring@Glib@@@Container_Helpers@Glib@@@Container_Helpers@Glib@@0AEBV?$allocator@Vustring@Glib@@@1@@Z
    ??$?0Vustring@Glib@@VVariantBase@1@$0A@@?$pair@Vustring@Glib@@VVariantBase@2@@std@@QEAA@$$QEAVustring@Glib@@$$QEAVVariantBase@3@@Z
    ??$addressof@V?$_Tree_val@U?$_Tree_simple_types@U?$pair@$$CBVustring@Glib@@VVariantBase@2@@std@@@std@@@std@@@std@@YAPEAV?$_Tree_val@U?$_Tree_simple_types@U?$pair@$$CBVustring@Glib@@VVariantBase@2@@std@@@std@@@0@AEAV10@@Z
    ??$move@AEAV?$map@Vustring@Glib@@VVariantBase@2@U?$less@Vustring@Glib@@@std@@V?$allocator@U?$pair@$$CBVustring@Glib@@VVariantBase@2@@std@@@5@@std@@@std@@YA$$QEAV?$map@Vustring@Glib@@VVariantBase@2@U?$less@Vustring@Glib@@@std@@V?$allocator@U?$pair@$$CBVustring@Glib@@VVariantBase@2@@std@@@5@@0@AEAV10@@Z
    ??$_Destroy_range@V?$allocator@Vustring@Glib@@@std@@@std@@YAXPEAVustring@Glib@@QEAV12@AEAV?$allocator@Vustring@Glib@@@0@@Z
    ??$addressof@$$CBV?$_Vector_val@U?$_Simple_types@Vustring@Glib@@@std@@@std@@@std@@YAPEBV?$_Vector_val@U?$_Simple_types@Vustring@Glib@@@std@@@0@AEBV10@@Z
    ??$_Deallocate@$0BA@@std@@YAXPEAX_K@Z
    ??$forward@AEAPEAD@std@@YAAEAPEADAEAPEAD@Z
    ??$forward@PEAD@std@@YA$$QEAPEADAEAPEAD@Z
    ??$_Emplace@U?$pair@Vustring@Glib@@VVariantBase@2@@std@@@?$_Tree@V?$_Tmap_traits@Vustring@Glib@@VVariantBase@2@U?$less@Vustring@Glib@@@std@@V?$allocator@U?$pair@$$CBVustring@Glib@@VVariantBase@2@@std@@@5@$0A@@std@@@std@@IEAA?AU?$pair@PEAU?$_Tree_node@U?$pair@$$CBVustring@Glib@@VVariantBase@2@@std@@PEAX@std@@_N@1@$$QEAU?$pair@Vustring@Glib@@VVariantBase@2@@1@@Z
    ??$?0V?$_Tree_iterator@V?$_Tree_val@U?$_Tree_simple_types@U?$pair@$$CBVustring@Glib@@VVariantBase@2@@std@@@std@@@std@@@std@@AEB_N$0A@@?$pair@V?$_Tree_iterator@V?$_Tree_val@U?$_Tree_simple_types@U?$pair@$$CBVustring@Glib@@VVariantBase@2@@std@@@std@@@std@@@std@@_N@std@@QEAA@$$QEAV?$_Tree_iterator@V?$_Tree_val@U?$_Tree_simple_types@U?$pair@$$CBVustring@Glib@@VVariantBase@2@@std@@@std@@@std@@@1@AEB_N@Z
    ??$exchange@PEAU?$_Tree_node@U?$pair@$$CBVustring@Glib@@VVariantBase@2@@std@@PEAX@std@@AEAPEAU12@@std@@YAPEAU?$_Tree_node@U?$pair@$$CBVustring@Glib@@VVariantBase@2@@std@@PEAX@0@AEAPEAU10@0@Z
    ??$_Freenode@V?$allocator@U?$_Tree_node@U?$pair@$$CBVustring@Glib@@VVariantBase@2@@std@@PEAX@std@@@std@@@?$_Tree_node@U?$pair@$$CBVustring@Glib@@VVariantBase@2@@std@@PEAX@std@@SAXAEAV?$allocator@U?$_Tree_node@U?$pair@$$CBVustring@Glib@@VVariantBase@2@@std@@PEAX@std@@@1@PEAU01@@Z
    ??$_Destroy_in_place@PEAU?$_Tree_node@U?$pair@$$CBVustring@Glib@@VVariantBase@2@@std@@PEAX@std@@@std@@YAXAEAPEAU?$_Tree_node@U?$pair@$$CBVustring@Glib@@VVariantBase@2@@std@@PEAX@0@@Z
    ??$?0AEBV?$allocator@Vustring@Glib@@@std@@$$V@?$_Compressed_pair@V?$allocator@Vustring@Glib@@@std@@V?$_Vector_val@U?$_Simple_types@Vustring@Glib@@@std@@@2@$00@std@@QEAA@U_One_then_variadic_args_t@1@AEBV?$allocator@Vustring@Glib@@@1@@Z
    ??$_Adl_verify_range@V?$ArrayIterator@U?$TypeTraits@Vustring@Glib@@@Container_Helpers@Glib@@@Container_Helpers@Glib@@V123@@std@@YAXAEBV?$ArrayIterator@U?$TypeTraits@Vustring@Glib@@@Container_Helpers@Glib@@@Container_Helpers@Glib@@0@Z
    ??$_Get_unwrapped@AEAV?$ArrayIterator@U?$TypeTraits@Vustring@Glib@@@Container_Helpers@Glib@@@Container_Helpers@Glib@@@std@@YA?A_TAEAV?$ArrayIterator@U?$TypeTraits@Vustring@Glib@@@Container_Helpers@Glib@@@Container_Helpers@Glib@@@Z
    ??$distance@V?$ArrayIterator@U?$TypeTraits@Vustring@Glib@@@Container_Helpers@Glib@@@Container_Helpers@Glib@@@std@@YA_JV?$ArrayIterator@U?$TypeTraits@Vustring@Glib@@@Container_Helpers@Glib@@@Container_Helpers@Glib@@0@Z
    ??$move@AEAV?$ArrayIterator@U?$TypeTraits@Vustring@Glib@@@Container_Helpers@Glib@@@Container_Helpers@Glib@@@std@@YA$$QEAV?$ArrayIterator@U?$TypeTraits@Vustring@Glib@@@Container_Helpers@Glib@@@Container_Helpers@Glib@@AEAV123@@Z
    ??$_Construct_n@V?$ArrayIterator@U?$TypeTraits@Vustring@Glib@@@Container_Helpers@Glib@@@Container_Helpers@Glib@@V123@@?$vector@Vustring@Glib@@V?$allocator@Vustring@Glib@@@std@@@std@@AEAAX_K$$QEAV?$ArrayIterator@U?$TypeTraits@Vustring@Glib@@@Container_Helpers@Glib@@@Container_Helpers@Glib@@1@Z
    ??$forward@Vustring@Glib@@@std@@YA$$QEAVustring@Glib@@AEAV12@@Z
    ??$forward@VVariantBase@Glib@@@std@@YA$$QEAVVariantBase@Glib@@AEAV12@@Z
    ??$_Unfancy@Vustring@Glib@@@std@@YAPEAVustring@Glib@@PEAV12@@Z
    ??$destroy@Vustring@Glib@@@?$_Default_allocator_traits@V?$allocator@Vustring@Glib@@@std@@@std@@SAXAEAV?$allocator@Vustring@Glib@@@1@QEAVustring@Glib@@@Z
    ??$addressof@$$CBV?$_Tree_val@U?$_Tree_simple_types@U?$pair@$$CBVustring@Glib@@VVariantBase@2@@std@@@std@@@std@@@std@@YAPEBV?$_Tree_val@U?$_Tree_simple_types@U?$pair@$$CBVustring@Glib@@VVariantBase@2@@std@@@std@@@0@AEBV10@@Z
    ??$move@AEAV?$allocator@U?$_Tree_node@U?$pair@$$CBVustring@Glib@@VVariantBase@2@@std@@PEAX@std@@@std@@@std@@YA$$QEAV?$allocator@U?$_Tree_node@U?$pair@$$CBVustring@Glib@@VVariantBase@2@@std@@PEAX@std@@@0@AEAV10@@Z
    ??$?0U?$less@Vustring@Glib@@@std@@U_One_then_variadic_args_t@1@V?$allocator@U?$_Tree_node@U?$pair@$$CBVustring@Glib@@VVariantBase@2@@std@@PEAX@std@@@1@@?$_Compressed_pair@U?$less@Vustring@Glib@@@std@@V?$_Compressed_pair@V?$allocator@U?$_Tree_node@U?$pair@$$CBVustring@Glib@@VVariantBase@2@@std@@PEAX@std@@@std@@V?$_Tree_val@U?$_Tree_simple_types@U?$pair@$$CBVustring@Glib@@VVariantBase@2@@std@@@std@@@2@$00@2@$00@std@@QEAA@U_One_then_variadic_args_t@1@$$QEAU?$less@Vustring@Glib@@@1@$$QEAU21@$$QEAV?$allocator@U?$_Tree_node@U?$pair@$$CBVustring@Glib@@VVariantBase@2@@std@@PEAX@std@@@1@@Z
    ??$?0V?$allocator@U?$_Tree_node@U?$pair@$$CBVustring@Glib@@VVariantBase@2@@std@@PEAX@std@@@std@@$$V@?$_Compressed_pair@V?$allocator@U?$_Tree_node@U?$pair@$$CBVustring@Glib@@VVariantBase@2@@std@@PEAX@std@@@std@@V?$_Tree_val@U?$_Tree_simple_types@U?$pair@$$CBVustring@Glib@@VVariantBase@2@@std@@@std@@@2@$00@std@@QEAA@U_One_then_variadic_args_t@1@$$QEAV?$allocator@U?$_Tree_node@U?$pair@$$CBVustring@Glib@@VVariantBase@2@@std@@PEAX@std@@@1@@Z
    ??$?0AEBU?$less@Vustring@Glib@@@std@@U_Zero_then_variadic_args_t@1@@?$_Compressed_pair@U?$less@Vustring@Glib@@@std@@V?$_Compressed_pair@V?$allocator@U?$_Tree_node@U?$pair@$$CBVustring@Glib@@VVariantBase@2@@std@@PEAX@std@@@std@@V?$_Tree_val@U?$_Tree_simple_types@U?$pair@$$CBVustring@Glib@@VVariantBase@2@@std@@@std@@@2@$00@2@$00@std@@QEAA@U_One_then_variadic_args_t@1@AEBU?$less@Vustring@Glib@@@1@$$QEAU_Zero_then_variadic_args_t@1@@Z
    ??$?0$$V@?$_Compressed_pair@V?$allocator@U?$_Tree_node@U?$pair@$$CBVustring@Glib@@VVariantBase@2@@std@@PEAX@std@@@std@@V?$_Tree_val@U?$_Tree_simple_types@U?$pair@$$CBVustring@Glib@@VVariantBase@2@@std@@@std@@@2@$00@std@@QEAA@U_Zero_then_variadic_args_t@1@@Z
    ??$exchange@PEAD$$T@std@@YAPEADAEAPEAD$$QEA$$T@Z
    ??$_Get_size_of_n@$0CA@@std@@YA_K_K@Z
    ??$_Allocate@$0BA@U_Default_allocate_traits@std@@@std@@YAPEAX_K@Z
    ??$?0$$V@?$_Compressed_pair@V?$allocator@Vustring@Glib@@@std@@V?$_Vector_val@U?$_Simple_types@Vustring@Glib@@@std@@@2@$00@std@@QEAA@U_Zero_then_variadic_args_t@1@@Z
    ??$_Max_limit@_J@std@@YA_JXZ
    ?_Extract@?$_In_place_key_extract_map_impl@Vustring@Glib@@U?$pair@Vustring@Glib@@VVariantBase@2@@std@@@std@@SAAEBVustring@Glib@@AEBU?$pair@Vustring@Glib@@VVariantBase@2@@2@@Z
    ??$_Find_lower_bound@Vustring@Glib@@@?$_Tree@V?$_Tmap_traits@Vustring@Glib@@VVariantBase@2@U?$less@Vustring@Glib@@@std@@V?$allocator@U?$pair@$$CBVustring@Glib@@VVariantBase@2@@std@@@5@$0A@@std@@@std@@IEBA?AU?$_Tree_find_result@PEAU?$_Tree_node@U?$pair@$$CBVustring@Glib@@VVariantBase@2@@std@@PEAX@std@@@1@AEBVustring@Glib@@@Z
