LIBRARY glibmm_generate_extra_defs-2.4
EXPORTS
    ?__empty_global_delete@@YAXPEAX@Z
    ?__empty_global_delete@@YAXPEAX_K@Z
    ?_Fnv1a_append_bytes@std@@YA_K_KQEBE_K@Z
    ??2@YAPEAX_KPEAX@Z
    ??0exception@std@@QEAA@QEBDH@Z
    ??0exception@std@@QEAA@AEBV01@@Z
    ??1exception@std@@UEAA@XZ
    ?what@exception@std@@UEBAPEBDXZ
    ??0bad_alloc@std@@AEAA@QEBD@Z
    ??1bad_alloc@std@@UEAA@XZ
    ??0bad_alloc@std@@QEAA@AEBV01@@Z
    ??0bad_array_new_length@std@@QEAA@XZ
    ??1bad_array_new_length@std@@UEAA@XZ
    ??0bad_array_new_length@std@@QEAA@AEBV01@@Z
    ?copy@?$_Char_traits@DH@std@@SAPEADQEADQEBD_K@Z
    ?move@?$_Char_traits@DH@std@@SAPEADQEADQEBD_K@Z
    ?compare@?$_Narrow_char_traits@DH@std@@SAHQEBD0_K@Z
    ?length@?$_Narrow_char_traits@DH@std@@SA_KQEBD@Z
    ?assign@?$_Narrow_char_traits@DH@std@@SAPEADQEAD_KD@Z
    ?assign@?$_Narrow_char_traits@DH@std@@SAXAEADAEBD@Z
    ?eq@?$_Narrow_char_traits@DH@std@@SA_NDD@Z
    ?to_char_type@?$_Narrow_char_traits@DH@std@@SADH@Z
    ?to_int_type@?$_Narrow_char_traits@DH@std@@SAHD@Z
    ?eq_int_type@?$_Narrow_char_traits@DH@std@@SA_NHH@Z
    ?not_eof@?$_Narrow_char_traits@DH@std@@SAHH@Z
    ?eof@?$_Narrow_char_traits@DH@std@@SAHXZ
    ?_Throw_bad_array_new_length@std@@YAXXZ
    ?_Allocate@_Default_allocate_traits@std@@SAPEAX_K@Z
    ?_Adjust_manually_vector_aligned@std@@YAXAEAPEAXAEA_K@Z
    ??0_Container_proxy@std@@QEAA@XZ
    ??0_Container_proxy@std@@QEAA@PEAU_Container_base12@1@@Z
    ??0_Container_base12@std@@QEAA@XZ
    ?_Orphan_all@_Container_base12@std@@QEAAXXZ
    ?_Swap_proxy_and_iterators@_Container_base12@std@@QEAAXAEAU12@@Z
    ?_Orphan_all_unlocked_v3@_Container_base12@std@@AEAAXXZ
    ?_Swap_proxy_and_iterators_unlocked@_Container_base12@std@@AEAAXAEAU12@@Z
    ?_Orphan_all_locked_v3@_Container_base12@std@@AEAAXXZ
    ?_Swap_proxy_and_iterators_locked@_Container_base12@std@@AEAAXAEAU12@@Z
    ??0_Iterator_base12@std@@QEAA@XZ
    ??0_Iterator_base12@std@@QEAA@AEBU01@@Z
    ??4_Iterator_base12@std@@QEAAAEAU01@AEBU01@@Z
    ??1_Iterator_base12@std@@QEAA@XZ
    ?_Adopt@_Iterator_base12@std@@QEAAXPEBU_Container_base12@2@@Z
    ?_Getcont@_Iterator_base12@std@@QEBAPEBU_Container_base12@2@XZ
    ?_Assign_unlocked@_Iterator_base12@std@@AEAAXAEBU12@@Z
    ?_Assign_locked@_Iterator_base12@std@@AEAAXAEBU12@@Z
    ?_Adopt_unlocked@_Iterator_base12@std@@AEAAXPEBU_Container_base12@2@@Z
    ?_Adopt_locked@_Iterator_base12@std@@AEAAXPEBU_Container_base12@2@@Z
    ?_Orphan_me_unlocked_v3@_Iterator_base12@std@@AEAAXXZ
    ?_Orphan_me_locked_v3@_Iterator_base12@std@@AEAAXXZ
    ??$exchange@PEAU_Iterator_base12@std@@$$T@std@@YAPEAU_Iterator_base12@0@AEAPEAU10@$$QEA$$T@Z
    ?_Release@_Basic_container_proxy_ptr12@std@@QEAAXXZ
    ??0_Basic_container_proxy_ptr12@std@@IEAA@XZ
    ?_Xlen_string@std@@YAXXZ
    ??0?$allocator@D@std@@QEAA@XZ
    ?deallocate@?$allocator@D@std@@QEAAXQEAD_K@Z
    ?allocate@?$allocator@D@std@@QEAAPEAD_K@Z
    ?max_size@?$_Default_allocator_traits@V?$allocator@D@std@@@std@@SA_KAEBV?$allocator@D@2@@Z
    ?select_on_container_copy_construction@?$_Default_allocator_traits@V?$allocator@D@std@@@std@@SA?AV?$allocator@D@2@AEBV32@@Z
    ??0?$_String_val@U?$_Simple_types@D@std@@@std@@QEAA@XZ
    ?_Myptr@?$_String_val@U?$_Simple_types@D@std@@@std@@QEAAPEADXZ
    ?_Myptr@?$_String_val@U?$_Simple_types@D@std@@@std@@QEBAPEBDXZ
    ?_Large_mode_engaged@?$_String_val@U?$_Simple_types@D@std@@@std@@QEBA_NXZ
    ?_Activate_SSO_buffer@?$_String_val@U?$_Simple_types@D@std@@@std@@QEAAXXZ
    ?_Check_offset@?$_String_val@U?$_Simple_types@D@std@@@std@@QEBAX_K@Z
    ?_Xran@?$_String_val@U?$_Simple_types@D@std@@@std@@SAXXZ
    ??0_Bxty@?$_String_val@U?$_Simple_types@D@std@@@std@@QEAA@XZ
    ??1_Bxty@?$_String_val@U?$_Simple_types@D@std@@@std@@QEAA@XZ
    ?_Switch_to_buf@_Bxty@?$_String_val@U?$_Simple_types@D@std@@@std@@QEAAXXZ
    ??1?$_String_val@U?$_Simple_types@D@std@@@std@@QEAA@XZ
    ??0?$basic_string@DU?$char_traits@D@std@@V?$allocator@D@2@@std@@QEAA@XZ
    ??0?$basic_string@DU?$char_traits@D@std@@V?$allocator@D@2@@std@@QEAA@AEBV?$allocator@D@1@@Z
    ??0?$basic_string@DU?$char_traits@D@std@@V?$allocator@D@2@@std@@QEAA@QEBD@Z
    ?_Deallocate_for_capacity@?$basic_string@DU?$char_traits@D@std@@V?$allocator@D@2@@std@@CAXAEAV?$allocator@D@2@QEAD_K@Z
    ?_Construct_empty@?$basic_string@DU?$char_traits@D@std@@V?$allocator@D@2@@std@@AEAAXXZ
    ??0?$basic_string@DU?$char_traits@D@std@@V?$allocator@D@2@@std@@QEAA@$$QEAV01@@Z
    ??0?$basic_string@DU?$char_traits@D@std@@V?$allocator@D@2@@std@@QEAA@U_String_constructor_concat_tag@1@AEBV01@QEBD_K23@Z
    ??4?$basic_string@DU?$char_traits@D@std@@V?$allocator@D@2@@std@@QEAAAEAV01@$$QEAV01@@Z
    ?_Take_contents@?$basic_string@DU?$char_traits@D@std@@V?$allocator@D@2@@std@@AEAAXAEAV12@@Z
    ??1?$basic_string@DU?$char_traits@D@std@@V?$allocator@D@2@@std@@QEAA@XZ
    ??4?$basic_string@DU?$char_traits@D@std@@V?$allocator@D@2@@std@@QEAAAEAV01@QEBD@Z
    ??Y?$basic_string@DU?$char_traits@D@std@@V?$allocator@D@2@@std@@QEAAAEAV01@AEBV01@@Z
    ??Y?$basic_string@DU?$char_traits@D@std@@V?$allocator@D@2@@std@@QEAAAEAV01@QEBD@Z
    ?append@?$basic_string@DU?$char_traits@D@std@@V?$allocator@D@2@@std@@QEAAAEAV12@AEBV12@@Z
    ?append@?$basic_string@DU?$char_traits@D@std@@V?$allocator@D@2@@std@@QEAAAEAV12@QEBD_K@Z
    ?append@?$basic_string@DU?$char_traits@D@std@@V?$allocator@D@2@@std@@QEAAAEAV12@QEBD@Z
    ?append@?$basic_string@DU?$char_traits@D@std@@V?$allocator@D@2@@std@@QEAAAEAV12@_KD@Z
    ?assign@?$basic_string@DU?$char_traits@D@std@@V?$allocator@D@2@@std@@QEAAAEAV12@QEBD_K@Z
    ?assign@?$basic_string@DU?$char_traits@D@std@@V?$allocator@D@2@@std@@QEAAAEAV12@QEBD@Z
    ?insert@?$basic_string@DU?$char_traits@D@std@@V?$allocator@D@2@@std@@QEAAAEAV12@_KQEBD0@Z
    ?insert@?$basic_string@DU?$char_traits@D@std@@V?$allocator@D@2@@std@@QEAAAEAV12@_KQEBD@Z
    ?begin@?$basic_string@DU?$char_traits@D@std@@V?$allocator@D@2@@std@@QEAA?AV?$_String_iterator@V?$_String_val@U?$_Simple_types@D@std@@@std@@@2@XZ
    ?begin@?$basic_string@DU?$char_traits@D@std@@V?$allocator@D@2@@std@@QEBA?AV?$_String_const_iterator@V?$_String_val@U?$_Simple_types@D@std@@@std@@@2@XZ
    ?end@?$basic_string@DU?$char_traits@D@std@@V?$allocator@D@2@@std@@QEAA?AV?$_String_iterator@V?$_String_val@U?$_Simple_types@D@std@@@std@@@2@XZ
    ?end@?$basic_string@DU?$char_traits@D@std@@V?$allocator@D@2@@std@@QEBA?AV?$_String_const_iterator@V?$_String_val@U?$_Simple_types@D@std@@@std@@@2@XZ
    ??A?$basic_string@DU?$char_traits@D@std@@V?$allocator@D@2@@std@@QEAAAEAD_K@Z
    ?push_back@?$basic_string@DU?$char_traits@D@std@@V?$allocator@D@2@@std@@QEAAXD@Z
    ?c_str@?$basic_string@DU?$char_traits@D@std@@V?$allocator@D@2@@std@@QEBAPEBDXZ
    ?data@?$basic_string@DU?$char_traits@D@std@@V?$allocator@D@2@@std@@QEBAPEBDXZ
    ?size@?$basic_string@DU?$char_traits@D@std@@V?$allocator@D@2@@std@@QEBA_KXZ
    ?max_size@?$basic_string@DU?$char_traits@D@std@@V?$allocator@D@2@@std@@QEBA_KXZ
    ?resize@?$basic_string@DU?$char_traits@D@std@@V?$allocator@D@2@@std@@QEAAX_KD@Z
    ?empty@?$basic_string@DU?$char_traits@D@std@@V?$allocator@D@2@@std@@QEBA_NXZ
    ?_Equal@?$basic_string@DU?$char_traits@D@std@@V?$allocator@D@2@@std@@QEBA_NAEBV12@@Z
    ?_Equal@?$basic_string@DU?$char_traits@D@std@@V?$allocator@D@2@@std@@QEBA_NQEBD@Z
    ?_Calculate_growth@?$basic_string@DU?$char_traits@D@std@@V?$allocator@D@2@@std@@CA_K_K00@Z
    ?_Calculate_growth@?$basic_string@DU?$char_traits@D@std@@V?$allocator@D@2@@std@@AEBA_K_K@Z
    ?_Eos@?$basic_string@DU?$char_traits@D@std@@V?$allocator@D@2@@std@@AEAAX_K@Z
    ?_Tidy_deallocate@?$basic_string@DU?$char_traits@D@std@@V?$allocator@D@2@@std@@AEAAXXZ
    ?_Swap_proxy_and_iterators@?$basic_string@DU?$char_traits@D@std@@V?$allocator@D@2@@std@@AEAAXAEAV12@@Z
    ?_Getal@?$basic_string@DU?$char_traits@D@std@@V?$allocator@D@2@@std@@AEAAAEAV?$allocator@D@2@XZ
    ?_Getal@?$basic_string@DU?$char_traits@D@std@@V?$allocator@D@2@@std@@AEBAAEBV?$allocator@D@2@XZ
    ?_Get_first@?$_Compressed_pair@V?$allocator@D@std@@V?$_String_val@U?$_Simple_types@D@std@@@2@$00@std@@QEAAAEAV?$allocator@D@2@XZ
    ?_Get_first@?$_Compressed_pair@V?$allocator@D@std@@V?$_String_val@U?$_Simple_types@D@std@@@2@$00@std@@QEBAAEBV?$allocator@D@2@XZ
    ??1?$_Compressed_pair@V?$allocator@D@std@@V?$_String_val@U?$_Simple_types@D@std@@@2@$00@std@@QEAA@XZ
    ??0bad_cast@std@@QEAA@XZ
    ??1bad_cast@std@@UEAA@XZ
    ??0bad_cast@std@@QEAA@AEBV01@@Z
    ?_Throw_bad_cast@std@@YAXXZ
    ??$_LStrcoll@D@std@@YAHPEBD000PEBU_Collvec@@@Z
    ??$_LStrxfrm@D@std@@YA_KPEAD0PEBD1PEBU_Collvec@@@Z
    ??0locale@std@@QEAA@XZ
    ??1locale@std@@QEAA@XZ
    ?name@locale@std@@QEBA?AV?$basic_string@DU?$char_traits@D@std@@V?$allocator@D@2@@2@XZ
    ?_Getfacet@locale@std@@QEBAPEBVfacet@12@_K@Z
    ??$_Adl_verify_range@PEBDPEBD@std@@YAXAEBQEBD0@Z
    ??$_Adl_verify_range@PEADPEAD@std@@YAXAEBQEAD0@Z
    ??$use_facet@V?$ctype@D@std@@@std@@YAAEBV?$ctype@D@0@AEBVlocale@0@@Z
    ?_Maklocwcs@std@@YAPEA_WPEB_W@Z
    ?gtype_is_a_pointer@@YA_N_K@Z
    ?get_defs@@YA?AV?$basic_string@DU?$char_traits@D@std@@V?$allocator@D@2@@std@@_KP6A_N0@Z@Z
    ?get_property_with_node_name@@YA?AV?$basic_string@DU?$char_traits@D@std@@V?$allocator@D@2@@std@@PEAU_GParamSpec@@AEBV12@1@Z
    ?get_properties@@YA?AV?$basic_string@DU?$char_traits@D@std@@V?$allocator@D@2@@std@@_K@Z
    ?get_type_name@@YA?AV?$basic_string@DU?$char_traits@D@std@@V?$allocator@D@2@@std@@_KP6A_N0@Z@Z
    ?get_type_name_parameter@@YA?AV?$basic_string@DU?$char_traits@D@std@@V?$allocator@D@2@@std@@_KP6A_N0@Z@Z
    ?get_type_name_signal@@YA?AV?$basic_string@DU?$char_traits@D@std@@V?$allocator@D@2@@std@@_KP6A_N0@Z@Z
    ?get_signals@@YA?AV?$basic_string@DU?$char_traits@D@std@@V?$allocator@D@2@@std@@_KP6A_N0@Z@Z
    ??$_Getvals@_W@?$time_get@DV?$istreambuf_iterator@DU?$char_traits@D@std@@@std@@@std@@IEAAX_WAEBV_Locinfo@1@@Z
    ??$_Getvals@_W@?$time_get@_WV?$istreambuf_iterator@_WU?$char_traits@_W@std@@@std@@@std@@IEAAX_WAEBV_Locinfo@1@@Z
    ?transform@?$collate@D@std@@QEBA?AV?$basic_string@DU?$char_traits@D@std@@V?$allocator@D@2@@2@PEBD0@Z
    ??0?$collate@D@std@@QEAA@AEBV_Locinfo@1@_K@Z
    ?_Getcat@?$collate@D@std@@SA_KPEAPEBVfacet@locale@2@PEBV42@@Z
    ??1?$collate@D@std@@MEAA@XZ
    ?_Init@?$collate@D@std@@IEAAXAEBV_Locinfo@2@@Z
    ?do_compare@?$collate@D@std@@MEBAHPEBD000@Z
    ?do_transform@?$collate@D@std@@MEBA?AV?$basic_string@DU?$char_traits@D@std@@V?$allocator@D@2@@2@PEBD0@Z
    ?do_hash@?$collate@D@std@@MEBAJPEBD0@Z
    ??Iregex_constants@std@@YA?AW4syntax_option_type@01@W4201@0@Z
    ??Uregex_constants@std@@YA?AW4syntax_option_type@01@W4201@0@Z
    ??Iregex_constants@std@@YA?AW4match_flag_type@01@W4201@0@Z
    ??Uregex_constants@std@@YA?AW4match_flag_type@01@W4201@0@Z
    ??_4regex_constants@std@@YAAEAW4match_flag_type@01@AEAW4201@W4201@@Z
    ??_5regex_constants@std@@YAAEAW4match_flag_type@01@AEAW4201@W4201@@Z
    ??Sregex_constants@std@@YA?AW4match_flag_type@01@W4201@@Z
    ?length@?$_Regex_traits@D@std@@SA_KPEBD@Z
    ??0?$_Regex_traits@D@std@@QEAA@XZ
    ?translate@?$_Regex_traits@D@std@@QEBADD@Z
    ?translate_nocase@?$_Regex_traits@D@std@@QEBADD@Z
    ?isctype@?$_Regex_traits@D@std@@QEBA_NDF@Z
    ?_Getcoll@?$_Regex_traits@D@std@@QEBAPEBV?$collate@D@2@XZ
    ?_Getctype@?$_Regex_traits@D@std@@QEBAPEBV?$ctype@D@2@XZ
    ?_Cache_locale@?$_Regex_traits@D@std@@AEAAXXZ
    ??1?$_Regex_traits@D@std@@QEAA@XZ
    ?value@?$regex_traits@D@std@@QEBAHDH@Z
    ??0?$regex_traits@D@std@@QEAA@XZ
    ??1?$regex_traits@D@std@@QEAA@XZ
    ?_Is_word@std@@YA_NE@Z
    ??$_Max_limit@E@std@@YAEXZ
    ?_Is_word@std@@YA_ND@Z
    ??Istd@@YA?AW4_Node_flags@0@W410@0@Z
    ??Ustd@@YA?AW4_Node_flags@0@W410@0@Z
    ??Tstd@@YA?AW4_Node_flags@0@W410@0@Z
    ??_5std@@YAAEAW4_Node_flags@0@AEAW410@W410@@Z
    ??_6std@@YAAEAW4_Node_flags@0@AEAW410@W410@@Z
    ??0_Bitmap@std@@QEAA@XZ
    ??0_Node_base@std@@QEAA@W4_Node_type@1@W4_Node_flags@1@@Z
    ??1_Node_base@std@@UEAA@XZ
    ?_Destroy_node@std@@YAXPEAV_Node_base@1@0@Z
    ??0_Root_node@std@@QEAA@XZ
    ??1_Root_node@std@@UEAA@XZ
    ??0_Node_end_group@std@@QEAA@W4_Node_type@1@W4_Node_flags@1@PEAV_Node_base@1@@Z
    ??1_Node_end_group@std@@UEAA@XZ
    ??0_Node_assert@std@@QEAA@W4_Node_type@1@W4_Node_flags@1@@Z
    ??1_Node_assert@std@@UEAA@XZ
    ??0_Node_capture@std@@QEAA@I@Z
    ??1_Node_capture@std@@UEAA@XZ
    ??0_Node_back@std@@QEAA@I@Z
    ??1_Node_back@std@@UEAA@XZ
    ??0_Node_endif@std@@QEAA@XZ
    ??1_Node_endif@std@@UEAA@XZ
    ??0_Node_if@std@@QEAA@PEAV_Node_base@1@@Z
    ??1_Node_if@std@@UEAA@XZ
    ??0_Node_end_rep@std@@QEAA@XZ
    ??1_Node_end_rep@std@@UEAA@XZ
    ??0_Node_rep@std@@QEAA@_NHHPEAV_Node_end_rep@1@I@Z
    ??1_Node_rep@std@@UEAA@XZ
    ??0?$allocator@_N@std@@QEAA@XZ
    ?deallocate@?$allocator@I@std@@QEAAXQEAI_K@Z
    ?allocate@?$allocator@I@std@@QEAAPEAI_K@Z
    ?max_size@?$_Default_allocator_traits@V?$allocator@I@std@@@std@@SA_KAEBV?$allocator@I@2@@Z
    ?select_on_container_copy_construction@?$_Default_allocator_traits@V?$allocator@I@std@@@std@@SA?AV?$allocator@I@2@AEBV32@@Z
    ??0?$_Vb_val@V?$allocator@_N@std@@@std@@QEAA@AEBV?$allocator@_N@1@@Z
    ??0?$_Vb_val@V?$allocator@_N@std@@@std@@QEAA@AEBV01@@Z
    ??1?$_Vb_val@V?$allocator@_N@std@@@std@@QEAA@XZ
    ?_Getal@?$_Vb_val@V?$allocator@_N@std@@@std@@QEAAAEAV?$allocator@I@2@XZ
    ?_Getal@?$_Vb_val@V?$allocator@_N@std@@@std@@QEBAAEBV?$allocator@I@2@XZ
    ?_Nw@?$_Vb_val@V?$allocator@_N@std@@@std@@SA_K_K@Z
    ??0?$vector@IV?$allocator@I@std@@@std@@QEAA@AEBV?$allocator@I@1@@Z
    ??0?$vector@IV?$allocator@I@std@@@std@@QEAA@AEBV01@@Z
    ??1?$vector@IV?$allocator@I@std@@@std@@QEAA@XZ
    ??4?$vector@IV?$allocator@I@std@@@std@@QEAAAEAV01@AEBV01@@Z
    ?resize@?$vector@IV?$allocator@I@std@@@std@@QEAAX_KAEBI@Z
    ?_Clear_and_reserve_geometric@?$vector@IV?$allocator@I@std@@@std@@AEAAX_K@Z
    ?erase@?$vector@IV?$allocator@I@std@@@std@@QEAA?AV?$_Vector_iterator@V?$_Vector_val@U?$_Simple_types@I@std@@@std@@@2@V?$_Vector_const_iterator@V?$_Vector_val@U?$_Simple_types@I@std@@@std@@@2@0@Z
    ?data@?$vector@IV?$allocator@I@std@@@std@@QEAAPEAIXZ
    ?data@?$vector@IV?$allocator@I@std@@@std@@QEBAPEBIXZ
    ?begin@?$vector@IV?$allocator@I@std@@@std@@QEAA?AV?$_Vector_iterator@V?$_Vector_val@U?$_Simple_types@I@std@@@std@@@2@XZ
    ?end@?$vector@IV?$allocator@I@std@@@std@@QEAA?AV?$_Vector_iterator@V?$_Vector_val@U?$_Simple_types@I@std@@@std@@@2@XZ
    ?size@?$vector@IV?$allocator@I@std@@@std@@QEBA_KXZ
    ?max_size@?$vector@IV?$allocator@I@std@@@std@@QEBA_KXZ
    ?capacity@?$vector@IV?$allocator@I@std@@@std@@QEBA_KXZ
    ??A?$vector@IV?$allocator@I@std@@@std@@QEAAAEAI_K@Z
    ?_Calculate_growth@?$vector@IV?$allocator@I@std@@@std@@AEBA_K_K@Z
    ?_Buy_raw@?$vector@IV?$allocator@I@std@@@std@@AEAAX_K@Z
    ?_Buy_nonzero@?$vector@IV?$allocator@I@std@@@std@@AEAAX_K@Z
    ?_Change_array@?$vector@IV?$allocator@I@std@@@std@@AEAAXQEAI_K1@Z
    ?_Tidy@?$vector@IV?$allocator@I@std@@@std@@AEAAXXZ
    ?_Xlength@?$vector@IV?$allocator@I@std@@@std@@CAXXZ
    ?_Orphan_range_unlocked@?$vector@IV?$allocator@I@std@@@std@@AEBAXPEAI0@Z
    ?_Orphan_range_locked@?$vector@IV?$allocator@I@std@@@std@@AEBAXPEAI0@Z
    ?_Orphan_range@?$vector@IV?$allocator@I@std@@@std@@AEBAXPEAI0@Z
    ?_Getal@?$vector@IV?$allocator@I@std@@@std@@AEAAAEAV?$allocator@I@2@XZ
    ?_Getal@?$vector@IV?$allocator@I@std@@@std@@AEBAAEBV?$allocator@I@2@XZ
    ??0?$_Vector_val@U?$_Simple_types@I@std@@@std@@QEAA@XZ
    ?_Get_first@?$_Compressed_pair@V?$allocator@I@std@@V?$_Vector_val@U?$_Simple_types@I@std@@@2@$00@std@@QEAAAEAV?$allocator@I@2@XZ
    ?_Get_first@?$_Compressed_pair@V?$allocator@I@std@@V?$_Vector_val@U?$_Simple_types@I@std@@@2@$00@std@@QEBAAEBV?$allocator@I@2@XZ
    ??0?$vector@_NV?$allocator@_N@std@@@std@@QEAA@XZ
    ??0?$vector@_NV?$allocator@_N@std@@@std@@QEAA@AEBV01@@Z
    ??1?$vector@_NV?$allocator@_N@std@@@std@@QEAA@XZ
    ??4?$vector@_NV?$allocator@_N@std@@@std@@QEAAAEAV01@AEBV01@@Z
    ?capacity@?$vector@_NV?$allocator@_N@std@@@std@@QEBA_KXZ
    ?begin@?$vector@_NV?$allocator@_N@std@@@std@@QEAA?AV?$_Vb_iterator@U?$_Wrap_alloc@V?$allocator@I@std@@@std@@@2@XZ
    ?end@?$vector@_NV?$allocator@_N@std@@@std@@QEAA?AV?$_Vb_iterator@U?$_Wrap_alloc@V?$allocator@I@std@@@std@@@2@XZ
    ?_Make_iter@?$vector@_NV?$allocator@_N@std@@@std@@QEAA?AV?$_Vb_iterator@U?$_Wrap_alloc@V?$allocator@I@std@@@std@@@2@V?$_Vb_const_iterator@U?$_Wrap_alloc@V?$allocator@I@std@@@std@@@2@@Z
    ?resize@?$vector@_NV?$allocator@_N@std@@@std@@QEAAX_K_N@Z
    ?size@?$vector@_NV?$allocator@_N@std@@@std@@QEBA_KXZ
    ?max_size@?$vector@_NV?$allocator@_N@std@@@std@@QEBA_KXZ
    ?empty@?$vector@_NV?$allocator@_N@std@@@std@@QEBA_NXZ
    ??A?$vector@_NV?$allocator@_N@std@@@std@@QEAA?AV?$_Vb_reference@U?$_Wrap_alloc@V?$allocator@I@std@@@std@@@1@_K@Z
    ?erase@?$vector@_NV?$allocator@_N@std@@@std@@QEAA?AV?$_Vb_iterator@U?$_Wrap_alloc@V?$allocator@I@std@@@std@@@2@V?$_Vb_const_iterator@U?$_Wrap_alloc@V?$allocator@I@std@@@std@@@2@0@Z
    ?_Insert_n@?$vector@_NV?$allocator@_N@std@@@std@@QEAA?AV?$_Vb_iterator@U?$_Wrap_alloc@V?$allocator@I@std@@@std@@@2@V?$_Vb_const_iterator@U?$_Wrap_alloc@V?$allocator@I@std@@@std@@@2@_KAEB_N@Z
    ?_Insert_x@?$vector@_NV?$allocator@_N@std@@@std@@QEAA_KV?$_Vb_const_iterator@U?$_Wrap_alloc@V?$allocator@I@std@@@std@@@2@_K@Z
    ?_Orphan_range_unlocked@?$vector@_NV?$allocator@_N@std@@@std@@QEBAX_K0@Z
    ?_Orphan_range_locked@?$vector@_NV?$allocator@_N@std@@@std@@QEBAX_K0@Z
    ?_Orphan_range@?$vector@_NV?$allocator@_N@std@@@std@@QEBAX_K0@Z
    ?_Trim@?$vector@_NV?$allocator@_N@std@@@std@@QEAAX_K@Z
    ?_Xlen@?$vector@_NV?$allocator@_N@std@@@std@@SAXXZ
    ??0?$allocator@U_Loop_vals_t@std@@@std@@QEAA@XZ
    ?deallocate@?$allocator@U_Loop_vals_t@std@@@std@@QEAAXQEAU_Loop_vals_t@2@_K@Z
    ?allocate@?$allocator@U_Loop_vals_t@std@@@std@@QEAAPEAU_Loop_vals_t@2@_K@Z
    ?max_size@?$_Default_allocator_traits@V?$allocator@U_Loop_vals_t@std@@@std@@@std@@SA_KAEBV?$allocator@U_Loop_vals_t@std@@@2@@Z
    ??0?$vector@U_Loop_vals_t@std@@V?$allocator@U_Loop_vals_t@std@@@2@@std@@QEAA@XZ
    ??1?$vector@U_Loop_vals_t@std@@V?$allocator@U_Loop_vals_t@std@@@2@@std@@QEAA@XZ
    ?resize@?$vector@U_Loop_vals_t@std@@V?$allocator@U_Loop_vals_t@std@@@2@@std@@QEAAX_K@Z
    ?max_size@?$vector@U_Loop_vals_t@std@@V?$allocator@U_Loop_vals_t@std@@@2@@std@@QEBA_KXZ
    ?capacity@?$vector@U_Loop_vals_t@std@@V?$allocator@U_Loop_vals_t@std@@@2@@std@@QEBA_KXZ
    ??A?$vector@U_Loop_vals_t@std@@V?$allocator@U_Loop_vals_t@std@@@2@@std@@QEAAAEAU_Loop_vals_t@1@_K@Z
    ?_Calculate_growth@?$vector@U_Loop_vals_t@std@@V?$allocator@U_Loop_vals_t@std@@@2@@std@@AEBA_K_K@Z
    ?_Change_array@?$vector@U_Loop_vals_t@std@@V?$allocator@U_Loop_vals_t@std@@@2@@std@@AEAAXQEAU_Loop_vals_t@2@_K1@Z
    ?_Tidy@?$vector@U_Loop_vals_t@std@@V?$allocator@U_Loop_vals_t@std@@@2@@std@@AEAAXXZ
    ?_Xlength@?$vector@U_Loop_vals_t@std@@V?$allocator@U_Loop_vals_t@std@@@2@@std@@CAXXZ
    ?_Orphan_range_unlocked@?$vector@U_Loop_vals_t@std@@V?$allocator@U_Loop_vals_t@std@@@2@@std@@AEBAXPEAU_Loop_vals_t@2@0@Z
    ?_Orphan_range_locked@?$vector@U_Loop_vals_t@std@@V?$allocator@U_Loop_vals_t@std@@@2@@std@@AEBAXPEAU_Loop_vals_t@2@0@Z
    ?_Orphan_range@?$vector@U_Loop_vals_t@std@@V?$allocator@U_Loop_vals_t@std@@@2@@std@@AEBAXPEAU_Loop_vals_t@2@0@Z
    ?_Getal@?$vector@U_Loop_vals_t@std@@V?$allocator@U_Loop_vals_t@std@@@2@@std@@AEAAAEAV?$allocator@U_Loop_vals_t@std@@@2@XZ
    ?_Getal@?$vector@U_Loop_vals_t@std@@V?$allocator@U_Loop_vals_t@std@@@2@@std@@AEBAAEBV?$allocator@U_Loop_vals_t@std@@@2@XZ
    ??0?$_Vector_val@U?$_Simple_types@U_Loop_vals_t@std@@@std@@@std@@QEAA@XZ
    ?_Get_first@?$_Compressed_pair@V?$allocator@U_Loop_vals_t@std@@@std@@V?$_Vector_val@U?$_Simple_types@U_Loop_vals_t@std@@@std@@@2@$00@std@@QEAAAEAV?$allocator@U_Loop_vals_t@std@@@2@XZ
    ?_Get_first@?$_Compressed_pair@V?$allocator@U_Loop_vals_t@std@@@std@@V?$_Vector_val@U?$_Simple_types@U_Loop_vals_t@std@@@std@@@2@$00@std@@QEBAAEBV?$allocator@U_Loop_vals_t@std@@@2@XZ
    ??0_Regex_base@std@@QEAA@XZ
    ??1_Regex_base@std@@QEAA@XZ
    ??0?$_String_const_iterator@V?$_String_val@U?$_Simple_types@D@std@@@std@@@std@@QEAA@PEBDPEBU_Container_base12@1@@Z
    ??8?$_String_const_iterator@V?$_String_val@U?$_Simple_types@D@std@@@std@@@std@@QEBA_NAEBV01@@Z
    ??9?$_String_const_iterator@V?$_String_val@U?$_Simple_types@D@std@@@std@@@std@@QEBA_NAEBV01@@Z
    ?_Compat@?$_String_const_iterator@V?$_String_val@U?$_Simple_types@D@std@@@std@@@std@@QEBAXAEBV12@@Z
    ?_Verify_range@std@@YAXAEBV?$_String_const_iterator@V?$_String_val@U?$_Simple_types@D@std@@@std@@@1@0@Z
    ?_Unwrapped@?$_String_const_iterator@V?$_String_val@U?$_Simple_types@D@std@@@std@@@std@@QEBAPEBDXZ
    ??1?$_String_const_iterator@V?$_String_val@U?$_Simple_types@D@std@@@std@@@std@@QEAA@XZ
    ??0?$_String_const_iterator@V?$_String_val@U?$_Simple_types@D@std@@@std@@@std@@QEAA@AEBV01@@Z
    ?_Calculate_loop_simplicity@std@@YAXPEAV_Node_base@1@0PEAV_Node_rep@1@@Z
    ?_Unwrapped@?$_String_iterator@V?$_String_val@U?$_Simple_types@D@std@@@std@@@std@@QEBAPEADXZ
    ??1?$_String_iterator@V?$_String_val@U?$_Simple_types@D@std@@@std@@@std@@QEAA@XZ
    ??0?$_String_iterator@V?$_String_val@U?$_Simple_types@D@std@@@std@@@std@@QEAA@AEBV01@@Z
    ??0?$_String_iterator@V?$_String_val@U?$_Simple_types@D@std@@@std@@@std@@QEAA@PEBDPEBU_Container_base12@1@@Z
    ??$replace@V?$_String_iterator@V?$_String_val@U?$_Simple_types@D@std@@@std@@@std@@D@std@@YAXV?$_String_iterator@V?$_String_val@U?$_Simple_types@D@std@@@std@@@0@0AEBD1@Z
    ??$?HDU?$char_traits@D@std@@V?$allocator@D@1@@std@@YA?AV?$basic_string@DU?$char_traits@D@std@@V?$allocator@D@2@@0@QEBDAEBV10@@Z
    ??$?HDU?$char_traits@D@std@@V?$allocator@D@1@@std@@YA?AV?$basic_string@DU?$char_traits@D@std@@V?$allocator@D@2@@0@QEBD$$QEAV10@@Z
    ??$?HDU?$char_traits@D@std@@V?$allocator@D@1@@std@@YA?AV?$basic_string@DU?$char_traits@D@std@@V?$allocator@D@2@@0@$$QEAV10@QEBD@Z
    ??$?HDU?$char_traits@D@std@@V?$allocator@D@1@@std@@YA?AV?$basic_string@DU?$char_traits@D@std@@V?$allocator@D@2@@0@$$QEAV10@AEBV10@@Z
    ??0?$basic_regex@DV?$regex_traits@D@std@@@std@@QEAA@PEBDW4syntax_option_type@regex_constants@1@@Z
    ??1?$basic_regex@DV?$regex_traits@D@std@@@std@@QEAA@XZ
    ?mark_count@?$basic_regex@DV?$regex_traits@D@std@@@std@@QEBAIXZ
    ?flags@?$basic_regex@DV?$regex_traits@D@std@@@std@@QEBA?AW4syntax_option_type@regex_constants@2@XZ
    ?_Get@?$basic_regex@DV?$regex_traits@D@std@@@std@@QEBAPEAV_Root_node@2@XZ
    ?_Empty@?$basic_regex@DV?$regex_traits@D@std@@@std@@QEBA_NXZ
    ?_Get_traits@?$basic_regex@DV?$regex_traits@D@std@@@std@@QEBAAEBV?$regex_traits@D@2@XZ
    ?_Tidy@?$basic_regex@DV?$regex_traits@D@std@@@std@@AEAAXXZ
    ?_Reset@?$basic_regex@DV?$regex_traits@D@std@@@std@@AEAAXPEAV_Root_node@2@@Z
    ??$regex_replace@V?$regex_traits@D@std@@D@std@@YA?AV?$basic_string@DU?$char_traits@D@std@@V?$allocator@D@2@@0@PEBDAEBV?$basic_regex@DV?$regex_traits@D@std@@@0@0W4match_flag_type@regex_constants@0@@Z
    ??0?$basic_ostringstream@DU?$char_traits@D@std@@V?$allocator@D@2@@std@@QEAA@XZ
    ??1?$basic_ostringstream@DU?$char_traits@D@std@@V?$allocator@D@2@@std@@UEAA@XZ
    ?str@?$basic_ostringstream@DU?$char_traits@D@std@@V?$allocator@D@2@@std@@QEBA?AV?$basic_string@DU?$char_traits@D@std@@V?$allocator@D@2@@2@XZ
    ??0?$basic_stringbuf@DU?$char_traits@D@std@@V?$allocator@D@2@@std@@QEAA@H@Z
    ??1?$basic_stringbuf@DU?$char_traits@D@std@@V?$allocator@D@2@@std@@UEAA@XZ
    ?_Get_buffer_view@?$basic_stringbuf@DU?$char_traits@D@std@@V?$allocator@D@2@@std@@QEBA?AU_Buffer_view@12@XZ
    ?str@?$basic_stringbuf@DU?$char_traits@D@std@@V?$allocator@D@2@@std@@QEBA?AV?$basic_string@DU?$char_traits@D@std@@V?$allocator@D@2@@2@XZ
    ?overflow@?$basic_stringbuf@DU?$char_traits@D@std@@V?$allocator@D@2@@std@@MEAAHH@Z
    ?pbackfail@?$basic_stringbuf@DU?$char_traits@D@std@@V?$allocator@D@2@@std@@MEAAHH@Z
    ?underflow@?$basic_stringbuf@DU?$char_traits@D@std@@V?$allocator@D@2@@std@@MEAAHXZ
    ?seekoff@?$basic_stringbuf@DU?$char_traits@D@std@@V?$allocator@D@2@@std@@MEAA?AV?$fpos@U_Mbstatet@@@2@_JHH@Z
    ?seekpos@?$basic_stringbuf@DU?$char_traits@D@std@@V?$allocator@D@2@@std@@MEAA?AV?$fpos@U_Mbstatet@@@2@V32@H@Z
    ?_Tidy@?$basic_stringbuf@DU?$char_traits@D@std@@V?$allocator@D@2@@std@@IEAAXXZ
    ?_Getstate@?$basic_stringbuf@DU?$char_traits@D@std@@V?$allocator@D@2@@std@@CAHH@Z
    ??_D?$basic_ostringstream@DU?$char_traits@D@std@@V?$allocator@D@2@@std@@QEAAXXZ
    ??$?8DU?$char_traits@D@std@@V?$allocator@D@1@@std@@YA_NAEBV?$basic_string@DU?$char_traits@D@std@@V?$allocator@D@2@@0@QEBD@Z
    ??$min@_K@std@@YAAEB_KAEB_K0@Z
    ??$_Get_index@$0A@@id@locale@std@@QEAA_KXZ
    ??R?$default_delete@V_Facet_base@std@@@std@@QEBAXPEAV_Facet_base@1@@Z
    ??1?$unique_ptr@V_Facet_base@std@@U?$default_delete@V_Facet_base@std@@@2@@std@@QEAA@XZ
    ?release@?$unique_ptr@V_Facet_base@std@@U?$default_delete@V_Facet_base@std@@@2@@std@@QEAAPEAV_Facet_base@2@XZ
    ?_Get_first@?$_Compressed_pair@U?$default_delete@V_Facet_base@std@@@std@@PEAV_Facet_base@2@$00@std@@QEAAAEAU?$default_delete@V_Facet_base@std@@@2@XZ
    ??$?0U?$default_delete@V_Facet_base@std@@@std@@$0A@@?$unique_ptr@V_Facet_base@std@@U?$default_delete@V_Facet_base@std@@@2@@std@@QEAA@PEAV_Facet_base@1@@Z
    ??$_Adl_verify_range@V?$_String_iterator@V?$_String_val@U?$_Simple_types@D@std@@@std@@@std@@V12@@std@@YAXAEBV?$_String_iterator@V?$_String_val@U?$_Simple_types@D@std@@@std@@@0@0@Z
    ??$_Get_unwrapped@AEBV?$_String_iterator@V?$_String_val@U?$_Simple_types@D@std@@@std@@@std@@@std@@YA?A_TAEBV?$_String_iterator@V?$_String_val@U?$_Simple_types@D@std@@@std@@@0@@Z
    ??$_Convert_size@_K_K@std@@YA_K_K@Z
    ??$move@AEAV?$basic_string@DU?$char_traits@D@std@@V?$allocator@D@2@@std@@@std@@YA$$QEAV?$basic_string@DU?$char_traits@D@std@@V?$allocator@D@2@@0@AEAV10@@Z
    ??$back_inserter@V?$basic_string@DU?$char_traits@D@std@@V?$allocator@D@2@@std@@@std@@YA?AV?$back_insert_iterator@V?$basic_string@DU?$char_traits@D@std@@V?$allocator@D@2@@std@@@0@AEAV?$basic_string@DU?$char_traits@D@std@@V?$allocator@D@2@@0@@Z
    ??0?$back_insert_iterator@V?$basic_string@DU?$char_traits@D@std@@V?$allocator@D@2@@std@@@std@@QEAA@AEAV?$basic_string@DU?$char_traits@D@std@@V?$allocator@D@2@@1@@Z
    ??4?$back_insert_iterator@V?$basic_string@DU?$char_traits@D@std@@V?$allocator@D@2@@std@@@std@@QEAAAEAV01@AEBD@Z
    ??4?$back_insert_iterator@V?$basic_string@DU?$char_traits@D@std@@V?$allocator@D@2@@std@@@std@@QEAAAEAV01@$$QEAD@Z
    ??D?$back_insert_iterator@V?$basic_string@DU?$char_traits@D@std@@V?$allocator@D@2@@std@@@std@@QEAAAEAV01@XZ
    ??E?$back_insert_iterator@V?$basic_string@DU?$char_traits@D@std@@V?$allocator@D@2@@std@@@std@@QEAAAEAV01@XZ
    ??E?$back_insert_iterator@V?$basic_string@DU?$char_traits@D@std@@V?$allocator@D@2@@std@@@std@@QEAA?AV01@H@Z
    ??$regex_replace@V?$back_insert_iterator@V?$basic_string@DU?$char_traits@D@std@@V?$allocator@D@2@@std@@@std@@V?$_String_const_iterator@V?$_String_val@U?$_Simple_types@D@std@@@std@@@2@V?$regex_traits@D@2@DU?$char_traits@D@2@V?$allocator@D@2@@std@@YA?AV?$back_insert_iterator@V?$basic_string@DU?$char_traits@D@std@@V?$allocator@D@2@@std@@@0@V10@V?$_String_const_iterator@V?$_String_val@U?$_Simple_types@D@std@@@std@@@0@1AEBV?$basic_regex@DV?$regex_traits@D@std@@@0@AEBV?$basic_string@DU?$char_traits@D@std@@V?$allocator@D@2@@0@W4match_flag_type@regex_constants@0@@Z
    ??$_Reset@PEBD@?$basic_regex@DV?$regex_traits@D@std@@@std@@AEAAXPEBD0W4syntax_option_type@regex_constants@1@@Z
    ??$_Hash_array_representation@D@std@@YA_KQEBD_K@Z
    ?allocate@?$allocator@U_Container_proxy@std@@@std@@QEAAPEAU_Container_proxy@2@_K@Z
    ??$_Delete_plain_internal@V?$allocator@U_Container_proxy@std@@@std@@@std@@YAXAEAV?$allocator@U_Container_proxy@std@@@0@QEAU_Container_proxy@0@@Z
    ??$_Alloc_proxy@V?$allocator@U_Container_proxy@std@@@std@@@_Container_base12@std@@QEAAX$$QEAV?$allocator@U_Container_proxy@std@@@1@@Z
    ??$_Refancy@PEAD$0A@@std@@YAPEADPEAD@Z
    ?pointer_to@?$pointer_traits@PEAD@std@@SAPEADAEAD@Z
    ??$addressof@V?$_String_val@U?$_Simple_types@D@std@@@std@@@std@@YAPEAV?$_String_val@U?$_Simple_types@D@std@@@0@AEAV10@@Z
    ??$?0D@?$allocator@U_Container_proxy@std@@@std@@QEAA@AEBV?$allocator@D@1@@Z
    ??$addressof@V?$basic_string@DU?$char_traits@D@std@@V?$allocator@D@2@@std@@@std@@YAPEAV?$basic_string@DU?$char_traits@D@std@@V?$allocator@D@2@@0@AEAV10@@Z
    ??$_Pocma@V?$allocator@D@std@@@std@@YAXAEAV?$allocator@D@0@0@Z
    ??$move@AEAV?$allocator@D@std@@@std@@YA$$QEAV?$allocator@D@0@AEAV10@@Z
    ??$?0V?$allocator@D@std@@$$V@?$_Compressed_pair@V?$allocator@D@std@@V?$_String_val@U?$_Simple_types@D@std@@@2@$00@std@@QEAA@U_One_then_variadic_args_t@1@$$QEAV?$allocator@D@1@@Z
    ??$?0$$V@?$_Compressed_pair@V?$allocator@D@std@@V?$_String_val@U?$_Simple_types@D@std@@@2@$00@std@@QEAA@U_Zero_then_variadic_args_t@1@@Z
    ??$_Construct@$00PEBD@?$basic_string@DU?$char_traits@D@std@@V?$allocator@D@2@@std@@AEAAXQEBD_K@Z
    ??0?$fpos@U_Mbstatet@@@std@@QEAA@_J@Z
    ??B?$fpos@U_Mbstatet@@@std@@QEBA_JXZ
    ??$addressof@V?$basic_stringbuf@DU?$char_traits@D@std@@V?$allocator@D@2@@std@@@std@@YAPEAV?$basic_stringbuf@DU?$char_traits@D@std@@V?$allocator@D@2@@0@AEAV10@@Z
    ??$max@PEAD@std@@YAAEBQEADAEBQEAD0@Z
    ??$_Allocate_at_least_helper@V?$allocator@D@std@@@std@@YAPEADAEAV?$allocator@D@0@AEA_K@Z
    ??$_Unfancy@D@std@@YAPEADPEAD@Z
    ??$?0AEAPEAV_Facet_base@std@@@?$_Compressed_pair@U?$default_delete@V_Facet_base@std@@@std@@PEAV_Facet_base@2@$00@std@@QEAA@U_Zero_then_variadic_args_t@1@AEAPEAV_Facet_base@1@@Z
    ??$?0AEBV?$allocator@D@std@@$$V@?$_Compressed_pair@V?$allocator@D@std@@V?$_String_val@U?$_Simple_types@D@std@@@2@$00@std@@QEAA@U_One_then_variadic_args_t@1@AEBV?$allocator@D@1@@Z
    ??$_Get_unwrapped@AEAPEAD@std@@YA?A_TAEAPEAD@Z
    ??$_Adl_verify_range@V?$_String_const_iterator@V?$_String_val@U?$_Simple_types@D@std@@@std@@@std@@V12@@std@@YAXAEBV?$_String_const_iterator@V?$_String_val@U?$_Simple_types@D@std@@@std@@@0@0@Z
    ??$_Get_unwrapped_unverified@AEAV?$back_insert_iterator@V?$basic_string@DU?$char_traits@D@std@@V?$allocator@D@2@@std@@@std@@@std@@YA?A_TAEAV?$back_insert_iterator@V?$basic_string@DU?$char_traits@D@std@@V?$allocator@D@2@@std@@@0@@Z
    ??$_Get_unwrapped@AEAV?$_String_const_iterator@V?$_String_val@U?$_Simple_types@D@std@@@std@@@std@@@std@@YA?A_TAEAV?$_String_const_iterator@V?$_String_val@U?$_Simple_types@D@std@@@std@@@0@@Z
    ??$_Regex_replace1@V?$back_insert_iterator@V?$basic_string@DU?$char_traits@D@std@@V?$allocator@D@2@@std@@@std@@PEBDV?$regex_traits@D@2@DU?$char_traits@D@2@V?$allocator@D@2@@std@@YA?AV?$back_insert_iterator@V?$basic_string@DU?$char_traits@D@std@@V?$allocator@D@2@@std@@@0@V10@PEBD1AEBV?$basic_regex@DV?$regex_traits@D@std@@@0@AEBV?$basic_string@DU?$char_traits@D@std@@V?$allocator@D@2@@0@W4match_flag_type@regex_constants@0@@Z
    ??$_Seek_wrapped@V?$back_insert_iterator@V?$basic_string@DU?$char_traits@D@std@@V?$allocator@D@2@@std@@@std@@V12@@std@@YAXAEAV?$back_insert_iterator@V?$basic_string@DU?$char_traits@D@std@@V?$allocator@D@2@@std@@@0@$$QEAV10@@Z
    ??$assign@PEBD$0A@@?$basic_string@DU?$char_traits@D@std@@V?$allocator@D@2@@std@@QEAAAEAV01@QEBD0@Z
    ??0?$_Parser@PEBDDV?$regex_traits@D@std@@@std@@QEAA@AEBV?$regex_traits@D@1@PEBD1W4syntax_option_type@regex_constants@1@@Z
    ?_Compile@?$_Parser@PEBDDV?$regex_traits@D@std@@@std@@QEAAPEAV_Root_node@2@XZ
    ?_Mark_count@?$_Parser@PEBDDV?$regex_traits@D@std@@@std@@QEBAIXZ
    ?_Error@?$_Parser@PEBDDV?$regex_traits@D@std@@@std@@AEAAXW4error_type@regex_constants@2@@Z
    ?_Is_esc@?$_Parser@PEBDDV?$regex_traits@D@std@@@std@@AEBA_NXZ
    ?_Trans@?$_Parser@PEBDDV?$regex_traits@D@std@@@std@@AEAAXXZ
    ?_Next@?$_Parser@PEBDDV?$regex_traits@D@std@@@std@@AEAAXXZ
    ?_Expect@?$_Parser@PEBDDV?$regex_traits@D@std@@@std@@AEAAXW4_Meta_type@2@W4error_type@regex_constants@2@@Z
    ?_Do_digits@?$_Parser@PEBDDV?$regex_traits@D@std@@@std@@AEAAHHHW4error_type@regex_constants@2@@Z
    ?_DecimalDigits2@?$_Parser@PEBDDV?$regex_traits@D@std@@@std@@AEAA_NW4error_type@regex_constants@2@H@Z
    ?_HexDigits@?$_Parser@PEBDDV?$regex_traits@D@std@@@std@@AEAAXH@Z
    ?_OctalDigits@?$_Parser@PEBDDV?$regex_traits@D@std@@@std@@AEAA_NXZ
    ?_Do_ex_class@?$_Parser@PEBDDV?$regex_traits@D@std@@@std@@AEAAXW4_Meta_type@2@@Z
    ?_CharacterClassEscape@?$_Parser@PEBDDV?$regex_traits@D@std@@@std@@AEAA_N_N@Z
    ?_ClassEscape2@?$_Parser@PEBDDV?$regex_traits@D@std@@@std@@AEAA?AW4_Prs_ret@2@XZ
    ?_ClassAtom@?$_Parser@PEBDDV?$regex_traits@D@std@@@std@@AEAA?AW4_Prs_ret@2@XZ
    ?_ClassRanges@?$_Parser@PEBDDV?$regex_traits@D@std@@@std@@AEAAXXZ
    ?_CharacterClass@?$_Parser@PEBDDV?$regex_traits@D@std@@@std@@AEAAXXZ
    ?_IdentityEscape@?$_Parser@PEBDDV?$regex_traits@D@std@@@std@@AEAA_NXZ
    ?_IsIdentityEscape@?$_Parser@PEBDDV?$regex_traits@D@std@@@std@@AEBA_NXZ
    ?_Do_ffn@?$_Parser@PEBDDV?$regex_traits@D@std@@@std@@AEAA_ND@Z
    ?_Do_ffnx@?$_Parser@PEBDDV?$regex_traits@D@std@@@std@@AEAA_ND@Z
    ?_CharacterEscape@?$_Parser@PEBDDV?$regex_traits@D@std@@@std@@AEAA_NXZ
    ?_AtomEscape@?$_Parser@PEBDDV?$regex_traits@D@std@@@std@@AEAAXXZ
    ?_Do_capture_group@?$_Parser@PEBDDV?$regex_traits@D@std@@@std@@AEAAXXZ
    ?_Do_noncapture_group@?$_Parser@PEBDDV?$regex_traits@D@std@@@std@@AEAAXXZ
    ?_Do_assert_group@?$_Parser@PEBDDV?$regex_traits@D@std@@@std@@AEAAX_N@Z
    ?_Wrapped_disjunction@?$_Parser@PEBDDV?$regex_traits@D@std@@@std@@AEAA_NXZ
    ?_Quantifier@?$_Parser@PEBDDV?$regex_traits@D@std@@@std@@AEAAXXZ
    ?_Alternative@?$_Parser@PEBDDV?$regex_traits@D@std@@@std@@AEAA_NXZ
    ?_Disjunction@?$_Parser@PEBDDV?$regex_traits@D@std@@@std@@AEAAXXZ
    ??0?$_Builder@PEBDDV?$regex_traits@D@std@@@std@@QEAA@AEBV?$regex_traits@D@1@W4syntax_option_type@regex_constants@1@@Z
    ?_Beg_expr@?$_Builder@PEBDDV?$regex_traits@D@std@@@std@@QEBA_NXZ
    ?_Setlong@?$_Builder@PEBDDV?$regex_traits@D@std@@@std@@QEAAXXZ
    ?_Tidy@?$_Builder@PEBDDV?$regex_traits@D@std@@@std@@QEAAXXZ
    ?_Getmark@?$_Builder@PEBDDV?$regex_traits@D@std@@@std@@QEBAPEAV_Node_base@2@XZ
    ?_Add_bol@?$_Builder@PEBDDV?$regex_traits@D@std@@@std@@QEAAXXZ
    ?_Add_eol@?$_Builder@PEBDDV?$regex_traits@D@std@@@std@@QEAAXXZ
    ?_Add_wbound@?$_Builder@PEBDDV?$regex_traits@D@std@@@std@@QEAAXXZ
    ?_Add_dot@?$_Builder@PEBDDV?$regex_traits@D@std@@@std@@QEAAXXZ
    ?_Add_char@?$_Builder@PEBDDV?$regex_traits@D@std@@@std@@QEAAXD@Z
    ?_Add_class@?$_Builder@PEBDDV?$regex_traits@D@std@@@std@@QEAAXXZ
    ?_Add_char_to_class@?$_Builder@PEBDDV?$regex_traits@D@std@@@std@@QEAAXD@Z
    ?_Add_range2@?$_Builder@PEBDDV?$regex_traits@D@std@@@std@@QEAAXDD@Z
    ?_Add_named_class@?$_Builder@PEBDDV?$regex_traits@D@std@@@std@@QEAAXF_N@Z
    ?_Add_equiv@?$_Builder@PEBDDV?$regex_traits@D@std@@@std@@QEAAXPEBD0_J@Z
    ?_Add_coll@?$_Builder@PEBDDV?$regex_traits@D@std@@@std@@QEAAXPEBD0_J@Z
    ?_Begin_group@?$_Builder@PEBDDV?$regex_traits@D@std@@@std@@QEAAPEAV_Node_base@2@XZ
    ?_End_group@?$_Builder@PEBDDV?$regex_traits@D@std@@@std@@QEAAXPEAV_Node_base@2@@Z
    ?_Begin_assert_group@?$_Builder@PEBDDV?$regex_traits@D@std@@@std@@QEAAPEAV_Node_base@2@_N@Z
    ?_End_assert_group@?$_Builder@PEBDDV?$regex_traits@D@std@@@std@@QEAAXPEAV_Node_base@2@@Z
    ?_Begin_capture_group@?$_Builder@PEBDDV?$regex_traits@D@std@@@std@@QEAAPEAV_Node_base@2@I@Z
    ?_Add_backreference@?$_Builder@PEBDDV?$regex_traits@D@std@@@std@@QEAAXI@Z
    ?_Begin_if@?$_Builder@PEBDDV?$regex_traits@D@std@@@std@@QEAAPEAV_Node_base@2@PEAV32@@Z
    ?_Else_if@?$_Builder@PEBDDV?$regex_traits@D@std@@@std@@QEAAXPEAV_Node_base@2@0@Z
    ?_Add_rep@?$_Builder@PEBDDV?$regex_traits@D@std@@@std@@QEAAXHH_N@Z
    ?_Negate@?$_Builder@PEBDDV?$regex_traits@D@std@@@std@@QEAAXXZ
    ?_Mark_final@?$_Builder@PEBDDV?$regex_traits@D@std@@@std@@QEAAXXZ
    ?_End_pattern@?$_Builder@PEBDDV?$regex_traits@D@std@@@std@@QEAAPEAV_Root_node@2@XZ
    ?_Link_node@?$_Builder@PEBDDV?$regex_traits@D@std@@@std@@AEAAPEAV_Node_base@2@PEAV32@@Z
    ?_Insert_node@?$_Builder@PEBDDV?$regex_traits@D@std@@@std@@CAXPEAV_Node_base@2@0@Z
    ?_New_node@?$_Builder@PEBDDV?$regex_traits@D@std@@@std@@AEAAPEAV_Node_base@2@W4_Node_type@2@@Z
    ?_Add_str_node@?$_Builder@PEBDDV?$regex_traits@D@std@@@std@@AEAAXXZ
    ?_Beg_expr@?$_Builder@PEBDDV?$regex_traits@D@std@@@std@@AEBA_NPEAV_Node_base@2@@Z
    ?_Add_char_to_bitmap@?$_Builder@PEBDDV?$regex_traits@D@std@@@std@@AEAAXD@Z
    ?_Add_char_to_array@?$_Builder@PEBDDV?$regex_traits@D@std@@@std@@AEAAXD@Z
    ?_Add_elts@?$_Builder@PEBDDV?$regex_traits@D@std@@@std@@AEAAXPEAV?$_Node_class@DV?$regex_traits@D@std@@@2@F_N@Z
    ?_Char_to_elts@?$_Builder@PEBDDV?$regex_traits@D@std@@@std@@AEAAXPEBD0_JPEAPEAU?$_Sequence@D@2@@Z
    ?_Get_bmax@?$_Builder@PEBDDV?$regex_traits@D@std@@@std@@AEBAIXZ
    ?_Get_tmax@?$_Builder@PEBDDV?$regex_traits@D@std@@@std@@AEBAIXZ
    ??1?$_Parser@PEBDDV?$regex_traits@D@std@@@std@@QEAA@XZ
    ??$_Deallocate_plain@V?$allocator@U_Container_proxy@std@@@std@@@std@@YAXAEAV?$allocator@U_Container_proxy@std@@@0@QEAU_Container_proxy@0@@Z
    ??0?$_Container_proxy_ptr12@V?$allocator@U_Container_proxy@std@@@std@@@std@@QEAA@AEAV?$allocator@U_Container_proxy@std@@@1@AEAU_Container_base12@1@@Z
    ??1?$_Container_proxy_ptr12@V?$allocator@U_Container_proxy@std@@@std@@@std@@QEAA@XZ
    ??$_Unfancy@U_Container_proxy@std@@@std@@YAPEAU_Container_proxy@0@PEAU10@@Z
    ??$_Construct_in_place@U_Container_proxy@std@@PEAU_Container_base12@2@@std@@YAXAEAU_Container_proxy@0@$$QEAPEAU_Container_base12@0@@Z
    ??$forward@V?$allocator@D@std@@@std@@YA$$QEAV?$allocator@D@0@AEAV10@@Z
    ??$_Allocate_for_capacity@$0A@@?$basic_string@DU?$char_traits@D@std@@V?$allocator@D@2@@std@@CAPEADAEAV?$allocator@D@1@AEA_K@Z
    ??$_Construct_in_place@PEADAEBQEAD@std@@YAXAEAPEADAEBQEAD@Z
    ??$exchange@PEAV_Facet_base@std@@$$T@std@@YAPEAV_Facet_base@0@AEAPEAV10@$$QEA$$T@Z
    ??$addressof@D@std@@YAPEADAEAD@Z
    ??$_Unfancy_maybe_null@$$CBD@std@@YAPEBDPEBD@Z
    ??$_Traits_equal@U?$char_traits@D@std@@@std@@YA_NQEBD_K01@Z
    ??$max@_K@std@@YAAEB_KAEB_K0@Z
    ??$_Max_limit@_J@std@@YA_JXZ
    ??R<lambda_319d5e083f45f90dcdce5dce53cbb275>@@QEBA@QEADQEBD_KD@Z
    ??$_Reallocate_grow_by@V<lambda_319d5e083f45f90dcdce5dce53cbb275>@@D@?$basic_string@DU?$char_traits@D@std@@V?$allocator@D@2@@std@@AEAAAEAV01@_KV<lambda_319d5e083f45f90dcdce5dce53cbb275>@@D@Z
    ??$_Refancy@PEBD$0A@@std@@YAPEBDPEBD@Z
    ??$addressof@$$CBV?$_String_val@U?$_Simple_types@D@std@@@std@@@std@@YAPEBV?$_String_val@U?$_Simple_types@D@std@@@0@AEBV10@@Z
    ??R<lambda_e1befb086ad3257e3f042a63030725f7>@@QEBA@QEADQEBD_K2D@Z
    ??$_Reallocate_grow_by@V<lambda_e1befb086ad3257e3f042a63030725f7>@@_KD@?$basic_string@DU?$char_traits@D@std@@V?$allocator@D@2@@std@@AEAAAEAV01@_KV<lambda_e1befb086ad3257e3f042a63030725f7>@@_KD@Z
    ??R<lambda_65e615be2a453ca0576c979606f46740>@@QEBA@QEADQEBD_K12@Z
    ??$_Reallocate_grow_by@V<lambda_65e615be2a453ca0576c979606f46740>@@PEBD_K@?$basic_string@DU?$char_traits@D@std@@V?$allocator@D@2@@std@@AEAAAEAV01@_KV<lambda_65e615be2a453ca0576c979606f46740>@@PEBD_K@Z
    ??$_Construct_in_place@PEADAEAPEAD@std@@YAXAEAPEAD0@Z
    ??$_Deallocate@$0BA@@std@@YAXPEAX_K@Z
    ??$forward@AEAPEAV_Facet_base@std@@@std@@YAAEAPEAV_Facet_base@0@AEAPEAV10@@Z
    ??$forward@AEBV?$allocator@D@std@@@std@@YAAEBV?$allocator@D@0@AEBV10@@Z
    ??0?$allocator@V?$sub_match@PEBD@std@@@std@@QEAA@XZ
    ?deallocate@?$allocator@V?$sub_match@PEBD@std@@@std@@QEAAXQEAV?$sub_match@PEBD@2@_K@Z
    ?allocate@?$allocator@V?$sub_match@PEBD@std@@@std@@QEAAPEAV?$sub_match@PEBD@2@_K@Z
    ?max_size@?$_Default_allocator_traits@V?$allocator@V?$sub_match@PEBD@std@@@std@@@std@@SA_KAEBV?$allocator@V?$sub_match@PEBD@std@@@2@@Z
    ??0?$vector@V?$sub_match@PEBD@std@@V?$allocator@V?$sub_match@PEBD@std@@@2@@std@@QEAA@XZ
    ??1?$vector@V?$sub_match@PEBD@std@@V?$allocator@V?$sub_match@PEBD@std@@@2@@std@@QEAA@XZ
    ?resize@?$vector@V?$sub_match@PEBD@std@@V?$allocator@V?$sub_match@PEBD@std@@@2@@std@@QEAAX_K@Z
    ?size@?$vector@V?$sub_match@PEBD@std@@V?$allocator@V?$sub_match@PEBD@std@@@2@@std@@QEBA_KXZ
    ?max_size@?$vector@V?$sub_match@PEBD@std@@V?$allocator@V?$sub_match@PEBD@std@@@2@@std@@QEBA_KXZ
    ?capacity@?$vector@V?$sub_match@PEBD@std@@V?$allocator@V?$sub_match@PEBD@std@@@2@@std@@QEBA_KXZ
    ??A?$vector@V?$sub_match@PEBD@std@@V?$allocator@V?$sub_match@PEBD@std@@@2@@std@@QEAAAEAV?$sub_match@PEBD@1@_K@Z
    ??A?$vector@V?$sub_match@PEBD@std@@V?$allocator@V?$sub_match@PEBD@std@@@2@@std@@QEBAAEBV?$sub_match@PEBD@1@_K@Z
    ?_Calculate_growth@?$vector@V?$sub_match@PEBD@std@@V?$allocator@V?$sub_match@PEBD@std@@@2@@std@@AEBA_K_K@Z
    ?_Change_array@?$vector@V?$sub_match@PEBD@std@@V?$allocator@V?$sub_match@PEBD@std@@@2@@std@@AEAAXQEAV?$sub_match@PEBD@2@_K1@Z
    ?_Tidy@?$vector@V?$sub_match@PEBD@std@@V?$allocator@V?$sub_match@PEBD@std@@@2@@std@@AEAAXXZ
    ?_Xlength@?$vector@V?$sub_match@PEBD@std@@V?$allocator@V?$sub_match@PEBD@std@@@2@@std@@CAXXZ
    ?_Orphan_range_unlocked@?$vector@V?$sub_match@PEBD@std@@V?$allocator@V?$sub_match@PEBD@std@@@2@@std@@AEBAXPEAV?$sub_match@PEBD@2@0@Z
    ?_Orphan_range_locked@?$vector@V?$sub_match@PEBD@std@@V?$allocator@V?$sub_match@PEBD@std@@@2@@std@@AEBAXPEAV?$sub_match@PEBD@2@0@Z
    ?_Orphan_range@?$vector@V?$sub_match@PEBD@std@@V?$allocator@V?$sub_match@PEBD@std@@@2@@std@@AEBAXPEAV?$sub_match@PEBD@2@0@Z
    ?_Getal@?$vector@V?$sub_match@PEBD@std@@V?$allocator@V?$sub_match@PEBD@std@@@2@@std@@AEAAAEAV?$allocator@V?$sub_match@PEBD@std@@@2@XZ
    ?_Getal@?$vector@V?$sub_match@PEBD@std@@V?$allocator@V?$sub_match@PEBD@std@@@2@@std@@AEBAAEBV?$allocator@V?$sub_match@PEBD@std@@@2@XZ
    ??0?$_Vector_val@U?$_Simple_types@V?$sub_match@PEBD@std@@@std@@@std@@QEAA@XZ
    ?_Get_first@?$_Compressed_pair@V?$allocator@V?$sub_match@PEBD@std@@@std@@V?$_Vector_val@U?$_Simple_types@V?$sub_match@PEBD@std@@@std@@@2@$00@std@@QEAAAEAV?$allocator@V?$sub_match@PEBD@std@@@2@XZ
    ?_Get_first@?$_Compressed_pair@V?$allocator@V?$sub_match@PEBD@std@@@std@@V?$_Vector_val@U?$_Simple_types@V?$sub_match@PEBD@std@@@std@@@2@$00@std@@QEBAAEBV?$allocator@V?$sub_match@PEBD@std@@@2@XZ
    ??0?$match_results@PEBDV?$allocator@V?$sub_match@PEBD@std@@@std@@@std@@QEAA@XZ
    ?size@?$match_results@PEBDV?$allocator@V?$sub_match@PEBD@std@@@std@@@std@@QEBA_KXZ
    ??A?$match_results@PEBDV?$allocator@V?$sub_match@PEBD@std@@@std@@@std@@QEBAAEBV?$sub_match@PEBD@1@_K@Z
    ?prefix@?$match_results@PEBDV?$allocator@V?$sub_match@PEBD@std@@@std@@@std@@QEBAAEBV?$sub_match@PEBD@2@XZ
    ?suffix@?$match_results@PEBDV?$allocator@V?$sub_match@PEBD@std@@@std@@@std@@QEBAAEBV?$sub_match@PEBD@2@XZ
    ?_Resize@?$match_results@PEBDV?$allocator@V?$sub_match@PEBD@std@@@std@@@std@@QEAAXI@Z
    ?_Pfx@?$match_results@PEBDV?$allocator@V?$sub_match@PEBD@std@@@std@@@std@@QEAAAEAV?$sub_match@PEBD@2@XZ
    ?_Sfx@?$match_results@PEBDV?$allocator@V?$sub_match@PEBD@std@@@std@@@std@@QEAAAEAV?$sub_match@PEBD@2@XZ
    ?_Null@?$match_results@PEBDV?$allocator@V?$sub_match@PEBD@std@@@std@@@std@@QEAAAEAV?$sub_match@PEBD@2@XZ
    ?_At@?$match_results@PEBDV?$allocator@V?$sub_match@PEBD@std@@@std@@@std@@QEAAAEAV?$sub_match@PEBD@2@I@Z
    ?_At@?$match_results@PEBDV?$allocator@V?$sub_match@PEBD@std@@@std@@@std@@QEBA?AV?$sub_match@PEBD@2@I@Z
    ??0?$sub_match@PEBD@std@@QEAA@XZ
    ??$?0PEBDPEBD$0A@@?$pair@PEBDPEBD@std@@QEAA@XZ
    ??1?$match_results@PEBDV?$allocator@V?$sub_match@PEBD@std@@@std@@@std@@QEAA@XZ
    ??$addressof@V?$match_results@PEBDV?$allocator@V?$sub_match@PEBD@std@@@std@@@std@@@std@@YAPEAV?$match_results@PEBDV?$allocator@V?$sub_match@PEBD@std@@@std@@@0@AEAV10@@Z
    ??$_Regex_search2@PEBDV?$allocator@V?$sub_match@PEBD@std@@@std@@DV?$regex_traits@D@2@PEBD@std@@YA_NPEBD0PEAV?$match_results@PEBDV?$allocator@V?$sub_match@PEBD@std@@@std@@@0@AEBV?$basic_regex@DV?$regex_traits@D@std@@@0@W4match_flag_type@regex_constants@0@0@Z
    ??$copy@PEBDV?$back_insert_iterator@V?$basic_string@DU?$char_traits@D@std@@V?$allocator@D@2@@std@@@std@@@std@@YA?AV?$back_insert_iterator@V?$basic_string@DU?$char_traits@D@std@@V?$allocator@D@2@@std@@@0@PEBD0V10@@Z
    ??$_Format1@V?$back_insert_iterator@V?$basic_string@DU?$char_traits@D@std@@V?$allocator@D@2@@std@@@std@@@?$match_results@PEBDV?$allocator@V?$sub_match@PEBD@std@@@std@@@std@@QEBA?AV?$back_insert_iterator@V?$basic_string@DU?$char_traits@D@std@@V?$allocator@D@2@@std@@@1@V21@PEBD1W4match_flag_type@regex_constants@1@@Z
    ??$_Copy_unchecked@PEBDPEBDV?$back_insert_iterator@V?$basic_string@DU?$char_traits@D@std@@V?$allocator@D@2@@std@@@std@@@std@@YA?AV?$back_insert_iterator@V?$basic_string@DU?$char_traits@D@std@@V?$allocator@D@2@@std@@@0@PEBD0V10@@Z
    ??$forward@V?$back_insert_iterator@V?$basic_string@DU?$char_traits@D@std@@V?$allocator@D@2@@std@@@std@@@std@@YA$$QEAV?$back_insert_iterator@V?$basic_string@DU?$char_traits@D@std@@V?$allocator@D@2@@std@@@0@AEAV10@@Z
    ??$_Get_unwrapped@AEBQEBD@std@@YA?A_TAEBQEBD@Z
    ??$_To_address@PEBD@std@@YA?A_PAEBQEBD@Z
    ??$_To_address@PEAD@std@@YA?A_PAEBQEAD@Z
    ?deallocate@?$_Default_allocator_traits@V?$allocator@U_Container_proxy@std@@@std@@@std@@SAXAEAV?$allocator@U_Container_proxy@std@@@2@QEAU_Container_proxy@2@_K@Z
    ??$addressof@U_Container_proxy@std@@@std@@YAPEAU_Container_proxy@0@AEAU10@@Z
    ??$forward@PEAU_Container_base12@std@@@std@@YA$$QEAPEAU_Container_base12@0@AEAPEAU10@@Z
    ??$addressof@PEAD@std@@YAPEAPEADAEAPEAD@Z
    ??$forward@AEBQEAD@std@@YAAEBQEADAEBQEAD@Z
    ??$forward@AEAPEAD@std@@YAAEAPEADAEAPEAD@Z
    ??1?$_Tidy_guard@V?$_Builder@PEBDDV?$regex_traits@D@std@@@std@@@std@@QEAA@XZ
    ??$addressof@V?$_Builder@PEBDDV?$regex_traits@D@std@@@std@@@std@@YAPEAV?$_Builder@PEBDDV?$regex_traits@D@std@@@0@AEAV10@@Z
    ??$addressof@U_Container_base12@std@@@std@@YAPEAU_Container_base12@0@AEAU10@@Z
    ??$_Get_size_of_n@$0BA@@std@@YA_K_K@Z
    ??$_Allocate@$0BA@U_Default_allocate_traits@std@@@std@@YAPEAX_K@Z
    ??$use_facet@V?$collate@D@std@@@std@@YAAEBV?$collate@D@0@AEBVlocale@0@@Z
    ??$addressof@$$CBV?$collate@D@std@@@std@@YAPEBV?$collate@D@0@AEBV10@@Z
    ??$addressof@$$CBV?$ctype@D@std@@@std@@YAPEBV?$ctype@D@0@AEBV10@@Z
    ??$_Destroy_in_place@PEAD@std@@YAXAEAPEAD@Z
    ??R<lambda_f3a66ab6a0570788f31503db83886f49>@@QEBA@QEADQEBD_K212@Z
    ??$_Reallocate_grow_by@V<lambda_f3a66ab6a0570788f31503db83886f49>@@_KPEBD_K@?$basic_string@DU?$char_traits@D@std@@V?$allocator@D@2@@std@@AEAAAEAV01@_KV<lambda_f3a66ab6a0570788f31503db83886f49>@@_KPEBD2@Z
    ??R<lambda_66f57f934f28d61049862f64df852ff0>@@QEBA@QEAD_KQEBD@Z
    ??$_Reallocate_for@V<lambda_66f57f934f28d61049862f64df852ff0>@@PEBD@?$basic_string@DU?$char_traits@D@std@@V?$allocator@D@2@@std@@AEAAAEAV01@_KV<lambda_66f57f934f28d61049862f64df852ff0>@@PEBD@Z
    ??$_Get_size_of_n@$00@std@@YA_K_K@Z
    ??0?$_Matcher@PEBDDV?$regex_traits@D@std@@PEBD@std@@QEAA@PEBD0AEBV?$regex_traits@D@1@PEAV_Root_node@1@IW4syntax_option_type@regex_constants@1@W4match_flag_type@51@@Z
    ?_Setf@?$_Matcher@PEBDDV?$regex_traits@D@std@@PEBD@std@@QEAAXW4match_flag_type@regex_constants@2@@Z
    ?_Clearf@?$_Matcher@PEBDDV?$regex_traits@D@std@@PEBD@std@@QEAAXW4match_flag_type@regex_constants@2@@Z
    ?_Skip@?$_Matcher@PEBDDV?$regex_traits@D@std@@PEBD@std@@QEAAPEBDPEBD0PEAV_Node_base@2@@Z
    ??0?$_Bt_state_t@PEBD@std@@QEAA@XZ
    ??1?$_Bt_state_t@PEBD@std@@QEAA@XZ
    ??0?$_Bt_state_t@PEBD@std@@QEAA@AEBV01@@Z
    ??4?$_Bt_state_t@PEBD@std@@QEAAAEAV01@AEBV01@@Z
    ??0?$allocator@U_Grp_t@?$_Tgt_state_t@PEBD@std@@@std@@QEAA@XZ
    ?deallocate@?$allocator@U_Grp_t@?$_Tgt_state_t@PEBD@std@@@std@@QEAAXQEAU_Grp_t@?$_Tgt_state_t@PEBD@2@_K@Z
    ?allocate@?$allocator@U_Grp_t@?$_Tgt_state_t@PEBD@std@@@std@@QEAAPEAU_Grp_t@?$_Tgt_state_t@PEBD@2@_K@Z
    ?max_size@?$_Default_allocator_traits@V?$allocator@U_Grp_t@?$_Tgt_state_t@PEBD@std@@@std@@@std@@SA_KAEBV?$allocator@U_Grp_t@?$_Tgt_state_t@PEBD@std@@@2@@Z
    ?select_on_container_copy_construction@?$_Default_allocator_traits@V?$allocator@U_Grp_t@?$_Tgt_state_t@PEBD@std@@@std@@@std@@SA?AV?$allocator@U_Grp_t@?$_Tgt_state_t@PEBD@std@@@2@AEBV32@@Z
    ??0?$vector@U_Grp_t@?$_Tgt_state_t@PEBD@std@@V?$allocator@U_Grp_t@?$_Tgt_state_t@PEBD@std@@@3@@std@@QEAA@XZ
    ??0?$vector@U_Grp_t@?$_Tgt_state_t@PEBD@std@@V?$allocator@U_Grp_t@?$_Tgt_state_t@PEBD@std@@@3@@std@@QEAA@AEBV01@@Z
    ??1?$vector@U_Grp_t@?$_Tgt_state_t@PEBD@std@@V?$allocator@U_Grp_t@?$_Tgt_state_t@PEBD@std@@@3@@std@@QEAA@XZ
    ??4?$vector@U_Grp_t@?$_Tgt_state_t@PEBD@std@@V?$allocator@U_Grp_t@?$_Tgt_state_t@PEBD@std@@@3@@std@@QEAAAEAV01@AEBV01@@Z
    ?resize@?$vector@U_Grp_t@?$_Tgt_state_t@PEBD@std@@V?$allocator@U_Grp_t@?$_Tgt_state_t@PEBD@std@@@3@@std@@QEAAX_K@Z
    ?_Clear_and_reserve_geometric@?$vector@U_Grp_t@?$_Tgt_state_t@PEBD@std@@V?$allocator@U_Grp_t@?$_Tgt_state_t@PEBD@std@@@3@@std@@AEAAX_K@Z
    ?max_size@?$vector@U_Grp_t@?$_Tgt_state_t@PEBD@std@@V?$allocator@U_Grp_t@?$_Tgt_state_t@PEBD@std@@@3@@std@@QEBA_KXZ
    ?capacity@?$vector@U_Grp_t@?$_Tgt_state_t@PEBD@std@@V?$allocator@U_Grp_t@?$_Tgt_state_t@PEBD@std@@@3@@std@@QEBA_KXZ
    ??A?$vector@U_Grp_t@?$_Tgt_state_t@PEBD@std@@V?$allocator@U_Grp_t@?$_Tgt_state_t@PEBD@std@@@3@@std@@QEAAAEAU_Grp_t@?$_Tgt_state_t@PEBD@1@_K@Z
    ?_Calculate_growth@?$vector@U_Grp_t@?$_Tgt_state_t@PEBD@std@@V?$allocator@U_Grp_t@?$_Tgt_state_t@PEBD@std@@@3@@std@@AEBA_K_K@Z
    ?_Buy_raw@?$vector@U_Grp_t@?$_Tgt_state_t@PEBD@std@@V?$allocator@U_Grp_t@?$_Tgt_state_t@PEBD@std@@@3@@std@@AEAAX_K@Z
    ?_Buy_nonzero@?$vector@U_Grp_t@?$_Tgt_state_t@PEBD@std@@V?$allocator@U_Grp_t@?$_Tgt_state_t@PEBD@std@@@3@@std@@AEAAX_K@Z
    ?_Change_array@?$vector@U_Grp_t@?$_Tgt_state_t@PEBD@std@@V?$allocator@U_Grp_t@?$_Tgt_state_t@PEBD@std@@@3@@std@@AEAAXQEAU_Grp_t@?$_Tgt_state_t@PEBD@2@_K1@Z
    ?_Tidy@?$vector@U_Grp_t@?$_Tgt_state_t@PEBD@std@@V?$allocator@U_Grp_t@?$_Tgt_state_t@PEBD@std@@@3@@std@@AEAAXXZ
    ?_Xlength@?$vector@U_Grp_t@?$_Tgt_state_t@PEBD@std@@V?$allocator@U_Grp_t@?$_Tgt_state_t@PEBD@std@@@3@@std@@CAXXZ
    ?_Orphan_range_unlocked@?$vector@U_Grp_t@?$_Tgt_state_t@PEBD@std@@V?$allocator@U_Grp_t@?$_Tgt_state_t@PEBD@std@@@3@@std@@AEBAXPEAU_Grp_t@?$_Tgt_state_t@PEBD@2@0@Z
    ?_Orphan_range_locked@?$vector@U_Grp_t@?$_Tgt_state_t@PEBD@std@@V?$allocator@U_Grp_t@?$_Tgt_state_t@PEBD@std@@@3@@std@@AEBAXPEAU_Grp_t@?$_Tgt_state_t@PEBD@2@0@Z
    ?_Orphan_range@?$vector@U_Grp_t@?$_Tgt_state_t@PEBD@std@@V?$allocator@U_Grp_t@?$_Tgt_state_t@PEBD@std@@@3@@std@@AEBAXPEAU_Grp_t@?$_Tgt_state_t@PEBD@2@0@Z
    ?_Getal@?$vector@U_Grp_t@?$_Tgt_state_t@PEBD@std@@V?$allocator@U_Grp_t@?$_Tgt_state_t@PEBD@std@@@3@@std@@AEAAAEAV?$allocator@U_Grp_t@?$_Tgt_state_t@PEBD@std@@@2@XZ
    ?_Getal@?$vector@U_Grp_t@?$_Tgt_state_t@PEBD@std@@V?$allocator@U_Grp_t@?$_Tgt_state_t@PEBD@std@@@3@@std@@AEBAAEBV?$allocator@U_Grp_t@?$_Tgt_state_t@PEBD@std@@@2@XZ
    ??0?$_Vector_val@U?$_Simple_types@U_Grp_t@?$_Tgt_state_t@PEBD@std@@@std@@@std@@QEAA@XZ
    ?_Get_first@?$_Compressed_pair@V?$allocator@U_Grp_t@?$_Tgt_state_t@PEBD@std@@@std@@V?$_Vector_val@U?$_Simple_types@U_Grp_t@?$_Tgt_state_t@PEBD@std@@@std@@@2@$00@std@@QEAAAEAV?$allocator@U_Grp_t@?$_Tgt_state_t@PEBD@std@@@2@XZ
    ?_Get_first@?$_Compressed_pair@V?$allocator@U_Grp_t@?$_Tgt_state_t@PEBD@std@@@std@@V?$_Vector_val@U?$_Simple_types@U_Grp_t@?$_Tgt_state_t@PEBD@std@@@std@@@2@$00@std@@QEBAAEBV?$allocator@U_Grp_t@?$_Tgt_state_t@PEBD@std@@@2@XZ
    ??4?$_Tgt_state_t@PEBD@std@@QEAAXAEBV?$_Bt_state_t@PEBD@1@@Z
    ??0?$_Tgt_state_t@PEBD@std@@QEAA@XZ
    ??1?$_Tgt_state_t@PEBD@std@@QEAA@XZ
    ??0?$_Tgt_state_t@PEBD@std@@QEAA@AEBV01@@Z
    ??4?$_Tgt_state_t@PEBD@std@@QEAAAEAV01@AEBV01@@Z
    ?_Do_if@?$_Matcher@PEBDDV?$regex_traits@D@std@@PEBD@std@@AEAA_NPEAV_Node_if@2@@Z
    ?_Do_rep0@?$_Matcher@PEBDDV?$regex_traits@D@std@@PEBD@std@@AEAA_NPEAV_Node_rep@2@_N@Z
    ?_Do_rep@?$_Matcher@PEBDDV?$regex_traits@D@std@@PEBD@std@@AEAA_NPEAV_Node_rep@2@_NH@Z
    ?_Do_class@?$_Matcher@PEBDDV?$regex_traits@D@std@@PEBD@std@@AEAA_NPEAV_Node_base@2@@Z
    ?_Match_pat@?$_Matcher@PEBDDV?$regex_traits@D@std@@PEBD@std@@AEAA_NPEAV_Node_base@2@@Z
    ?_Better_match@?$_Matcher@PEBDDV?$regex_traits@D@std@@PEBD@std@@AEAA_NXZ
    ?_Is_wbound@?$_Matcher@PEBDDV?$regex_traits@D@std@@PEBD@std@@AEBA_NXZ
    ?_Get_ncap@?$_Matcher@PEBDDV?$regex_traits@D@std@@PEBD@std@@AEBAIXZ
    ??1?$_Matcher@PEBDDV?$regex_traits@D@std@@PEBD@std@@QEAA@XZ
    ??$_Match@V?$allocator@V?$sub_match@PEBD@std@@@std@@@?$_Matcher@PEBDDV?$regex_traits@D@std@@PEBD@std@@QEAA_NPEAV?$match_results@PEBDV?$allocator@V?$sub_match@PEBD@std@@@std@@@1@_N@Z
    ??$_Match@V?$allocator@V?$sub_match@PEBD@std@@@std@@@?$_Matcher@PEBDDV?$regex_traits@D@std@@PEBD@std@@QEAA_NPEBDPEAV?$match_results@PEBDV?$allocator@V?$sub_match@PEBD@std@@@std@@@1@_N@Z
    ??$_Get_unwrapped@AEAPEBD@std@@YA?A_TAEAPEBD@Z
    ??$move@AEAV?$back_insert_iterator@V?$basic_string@DU?$char_traits@D@std@@V?$allocator@D@2@@std@@@std@@@std@@YA$$QEAV?$back_insert_iterator@V?$basic_string@DU?$char_traits@D@std@@V?$allocator@D@2@@std@@@0@AEAV10@@Z
    ??$_Idl_distance@PEBDPEBD@std@@YA?A_PAEBQEBD0@Z
    ??$_Get_unwrapped_n@V?$back_insert_iterator@V?$basic_string@DU?$char_traits@D@std@@V?$allocator@D@2@@std@@@std@@_J@std@@YA?A_T$$QEAV?$back_insert_iterator@V?$basic_string@DU?$char_traits@D@std@@V?$allocator@D@2@@std@@@0@_J@Z
    ??$_Format_sed@PEBDV?$allocator@V?$sub_match@PEBD@std@@@std@@PEBDV?$back_insert_iterator@V?$basic_string@DU?$char_traits@D@std@@V?$allocator@D@2@@std@@@2@@std@@YA?AV?$back_insert_iterator@V?$basic_string@DU?$char_traits@D@std@@V?$allocator@D@2@@std@@@0@AEBV?$match_results@PEBDV?$allocator@V?$sub_match@PEBD@std@@@std@@@0@V10@PEBD2W4match_flag_type@regex_constants@0@@Z
    ??$_Format_default@PEBDV?$allocator@V?$sub_match@PEBD@std@@@std@@PEBDV?$back_insert_iterator@V?$basic_string@DU?$char_traits@D@std@@V?$allocator@D@2@@std@@@2@@std@@YA?AV?$back_insert_iterator@V?$basic_string@DU?$char_traits@D@std@@V?$allocator@D@2@@std@@@0@AEBV?$match_results@PEBDV?$allocator@V?$sub_match@PEBD@std@@@std@@@0@V10@PEBD2W4match_flag_type@regex_constants@0@@Z
    ??$_Max_limit@D@std@@YADXZ
    ??$move@AEAD@std@@YA$$QEADAEAD@Z
    ??$_Allocate_manually_vector_aligned@U_Default_allocate_traits@std@@@std@@YAPEAX_K@Z
    ??$?0V?$sub_match@PEBD@std@@@?$allocator@U_Container_proxy@std@@@std@@QEAA@AEBV?$allocator@V?$sub_match@PEBD@std@@@1@@Z
    ??$exchange@PEAU_Container_proxy@std@@$$T@std@@YAPEAU_Container_proxy@0@AEAPEAU10@$$QEA$$T@Z
    ??$?0$$V@?$_Compressed_pair@V?$allocator@V?$sub_match@PEBD@std@@@std@@V?$_Vector_val@U?$_Simple_types@V?$sub_match@PEBD@std@@@std@@@2@$00@std@@QEAA@U_Zero_then_variadic_args_t@1@@Z
    ??$?0I@?$allocator@U_Container_proxy@std@@@std@@QEAA@AEBV?$allocator@I@1@@Z
    ??0?$_Vb_iter_base@U?$_Wrap_alloc@V?$allocator@I@std@@@std@@@std@@QEAA@PEBI_KPEBU_Container_base12@1@@Z
    ?_Advance@?$_Vb_iter_base@U?$_Wrap_alloc@V?$allocator@I@std@@@std@@@std@@QEAAX_K@Z
    ?_Total_off@?$_Vb_iter_base@U?$_Wrap_alloc@V?$allocator@I@std@@@std@@@std@@QEBA_JPEBV?$vector@_NV?$allocator@_N@std@@@2@@Z
    ??1?$_Vb_iter_base@U?$_Wrap_alloc@V?$allocator@I@std@@@std@@@std@@QEAA@XZ
    ??0?$_Vb_iter_base@U?$_Wrap_alloc@V?$allocator@I@std@@@std@@@std@@QEAA@AEBV01@@Z
    ??0?$_Vb_iter_base@U?$_Wrap_alloc@V?$allocator@I@std@@@std@@@std@@QEAA@$$QEAV01@@Z
    ??4?$_Vb_iter_base@U?$_Wrap_alloc@V?$allocator@I@std@@@std@@@std@@QEAAAEAV01@$$QEAV01@@Z
    ??0?$_Vb_reference@U?$_Wrap_alloc@V?$allocator@I@std@@@std@@@std@@QEAA@AEBV?$_Vb_iter_base@U?$_Wrap_alloc@V?$allocator@I@std@@@std@@@1@@Z
    ??4?$_Vb_reference@U?$_Wrap_alloc@V?$allocator@I@std@@@std@@@std@@QEAAAEAV01@AEBV01@@Z
    ??4?$_Vb_reference@U?$_Wrap_alloc@V?$allocator@I@std@@@std@@@std@@QEAAAEAV01@_N@Z
    ??B?$_Vb_reference@U?$_Wrap_alloc@V?$allocator@I@std@@@std@@@std@@QEBA_NXZ
    ?_Getptr@?$_Vb_reference@U?$_Wrap_alloc@V?$allocator@I@std@@@std@@@std@@QEBAPEBIXZ
    ?_Mask@?$_Vb_reference@U?$_Wrap_alloc@V?$allocator@I@std@@@std@@@std@@IEBAIXZ
    ??1?$_Vb_reference@U?$_Wrap_alloc@V?$allocator@I@std@@@std@@@std@@QEAA@XZ
    ??$_Prev_iter@PEBD@std@@YAPEBDPEBD@Z
    ??$find@PEBDW4_Meta_type@std@@@std@@YAPEBDPEBDQEBDAEBW4_Meta_type@0@@Z
    ??0?$_Node_str@D@std@@QEAA@W4_Node_flags@1@@Z
    ??0?$_Buf@D@std@@QEAA@XZ
    ??1?$_Buf@D@std@@QEAA@XZ
    ?_Size@?$_Buf@D@std@@QEBAIXZ
    ?_At@?$_Buf@D@std@@QEBADI@Z
    ?_Str@?$_Buf@D@std@@QEBAPEBDXZ
    ?_Insert2@?$_Buf@D@std@@QEAAXD@Z
    ?_Del@?$_Buf@D@std@@QEAADXZ
    ?_Calculate_expansion@?$_Buf@D@std@@AEBAII@Z
    ?_Expand2@?$_Buf@D@std@@AEAAXI@Z
    ??1?$_Node_str@D@std@@UEAA@XZ
    ??$_Compare@PEBDPEBDV?$regex_traits@D@std@@@std@@YAPEBDPEBD000AEBV?$regex_traits@D@0@W4syntax_option_type@regex_constants@0@@Z
    ??0?$_Node_class@DV?$regex_traits@D@std@@@std@@QEAA@W4_Node_type@1@W4_Node_flags@1@@Z
    ??1?$_Node_class@DV?$regex_traits@D@std@@@std@@UEAA@XZ
    ?_Tidy@?$_Node_class@DV?$regex_traits@D@std@@@std@@QEAAXPEAU?$_Sequence@D@2@@Z
    ??0?$_Sequence@D@std@@QEAA@I@Z
    ??1?$_Sequence@D@std@@QEAA@XZ
    ??$_Lookup_coll@PEBDD@std@@YAPEBDPEBD0PEBU?$_Sequence@D@0@@Z
    ??$_Lookup_range@D@std@@YA_NIPEBU?$_Buf@D@0@@Z
    ??$_Find@E@_Bitmap@std@@QEBA_NE@Z
    ??$find@PEBDE@std@@YAPEBDPEBDQEBDAEBE@Z
    ??$_Lookup_equiv@DV?$regex_traits@D@std@@@std@@YA_NEPEBU?$_Sequence@D@0@AEBV?$regex_traits@D@0@@Z
    ??$?0U_Grp_t@?$_Tgt_state_t@PEBD@std@@@?$allocator@U_Container_proxy@std@@@std@@QEAA@AEBV?$allocator@U_Grp_t@?$_Tgt_state_t@PEBD@std@@@1@@Z
    ??$_Destroy_range@V?$allocator@V?$sub_match@PEBD@std@@@std@@@std@@YAXPEAV?$sub_match@PEBD@0@QEAV10@AEAV?$allocator@V?$sub_match@PEBD@std@@@0@@Z
    ??$?0U_Loop_vals_t@std@@@?$allocator@U_Container_proxy@std@@@std@@QEAA@AEBV?$allocator@U_Loop_vals_t@std@@@1@@Z
    ??$?0_N@?$allocator@I@std@@QEAA@AEBV?$allocator@_N@1@@Z
    ??$_Get_size_of_n@$03@std@@YA_K_K@Z
    ??$_Find_unchecked@PEBDW4_Meta_type@std@@@std@@YAPEBDPEBDQEBDAEBW4_Meta_type@0@@Z
    ??$_Seek_wrapped@PEBDPEBD@std@@YAXAEAPEBD$$QEAPEBD@Z
    ??0?$_Cmp_icase@V?$regex_traits@D@std@@@std@@QEAA@AEBV?$regex_traits@D@1@@Z
    ??R?$_Cmp_icase@V?$regex_traits@D@std@@@std@@QEBA_NDD@Z
    ??$_Cmp_chrange@PEBDPEBDU?$_Cmp_icase@V?$regex_traits@D@std@@@std@@@std@@YAPEBDPEBD000U?$_Cmp_icase@V?$regex_traits@D@std@@@0@@Z
    ??0?$_Cmp_collate@V?$regex_traits@D@std@@@std@@QEAA@AEBV?$regex_traits@D@1@@Z
    ??R?$_Cmp_collate@V?$regex_traits@D@std@@@std@@QEBA_NDD@Z
    ??$_Cmp_chrange@PEBDPEBDU?$_Cmp_collate@V?$regex_traits@D@std@@@std@@@std@@YAPEBDPEBD000U?$_Cmp_collate@V?$regex_traits@D@std@@@0@@Z
    ??R?$_Cmp_cs@V?$regex_traits@D@std@@@std@@SA_NDD@Z
    ??$_Cmp_chrange@PEBDPEBDU?$_Cmp_cs@V?$regex_traits@D@std@@@std@@@std@@YAPEBDPEBD000U?$_Cmp_cs@V?$regex_traits@D@std@@@0@@Z
    ??$_Find_unchecked@PEBDE@std@@YAPEBDPEBDQEBDAEBE@Z
    ??$transform_primary@V?$_String_iterator@V?$_String_val@U?$_Simple_types@D@std@@@std@@@std@@@?$_Regex_traits@D@std@@QEBA?AV?$basic_string@DU?$char_traits@D@std@@V?$allocator@D@2@@1@V?$_String_iterator@V?$_String_val@U?$_Simple_types@D@std@@@std@@@1@0@Z
    ??$?8DU?$char_traits@D@std@@V?$allocator@D@1@@std@@YA_NAEBV?$basic_string@DU?$char_traits@D@std@@V?$allocator@D@2@@0@0@Z
    ??$_Destroy_range@V?$allocator@U_Grp_t@?$_Tgt_state_t@PEBD@std@@@std@@@std@@YAXPEAU_Grp_t@?$_Tgt_state_t@PEBD@0@QEAU120@AEAV?$allocator@U_Grp_t@?$_Tgt_state_t@PEBD@std@@@0@@Z
    ??$_Resize@U_Value_init_tag@std@@@?$vector@U_Grp_t@?$_Tgt_state_t@PEBD@std@@V?$allocator@U_Grp_t@?$_Tgt_state_t@PEBD@std@@@3@@std@@AEAAX_KAEBU_Value_init_tag@1@@Z
    ??$?0$$V@?$_Compressed_pair@V?$allocator@U_Grp_t@?$_Tgt_state_t@PEBD@std@@@std@@V?$_Vector_val@U?$_Simple_types@U_Grp_t@?$_Tgt_state_t@PEBD@std@@@std@@@2@$00@std@@QEAA@U_Zero_then_variadic_args_t@1@@Z
    ??$_Destroy_range@V?$allocator@U_Loop_vals_t@std@@@std@@@std@@YAXPEAU_Loop_vals_t@0@QEAU10@AEAV?$allocator@U_Loop_vals_t@std@@@0@@Z
    ??$_Resize@U_Value_init_tag@std@@@?$vector@U_Loop_vals_t@std@@V?$allocator@U_Loop_vals_t@std@@@2@@std@@AEAAX_KAEBU_Value_init_tag@1@@Z
    ??$?0$$V@?$_Compressed_pair@V?$allocator@U_Loop_vals_t@std@@@std@@V?$_Vector_val@U?$_Simple_types@U_Loop_vals_t@std@@@std@@@2@$00@std@@QEAA@U_Zero_then_variadic_args_t@1@@Z
    ??$_Destroy_range@V?$allocator@I@std@@@std@@YAXPEAIQEAIAEAV?$allocator@I@0@@Z
    ??$?0AEBV?$allocator@I@std@@$$V@?$_Compressed_pair@V?$allocator@I@std@@V?$_Vector_val@U?$_Simple_types@I@std@@@2@$00@std@@QEAA@U_One_then_variadic_args_t@1@AEBV?$allocator@I@1@@Z
    ??0?$_Vb_const_iterator@U?$_Wrap_alloc@V?$allocator@I@std@@@std@@@std@@QEAA@PEBIPEBU_Container_base12@1@@Z
    ??F?$_Vb_const_iterator@U?$_Wrap_alloc@V?$allocator@I@std@@@std@@@std@@QEAAAEAV01@XZ
    ??Y?$_Vb_const_iterator@U?$_Wrap_alloc@V?$allocator@I@std@@@std@@@std@@QEAAAEAV01@_J@Z
    ??G?$_Vb_const_iterator@U?$_Wrap_alloc@V?$allocator@I@std@@@std@@@std@@QEBA_JAEBV01@@Z
    ??8?$_Vb_const_iterator@U?$_Wrap_alloc@V?$allocator@I@std@@@std@@@std@@QEBA_NAEBV01@@Z
    ??9?$_Vb_const_iterator@U?$_Wrap_alloc@V?$allocator@I@std@@@std@@@std@@QEBA_NAEBV01@@Z
    ??M?$_Vb_const_iterator@U?$_Wrap_alloc@V?$allocator@I@std@@@std@@@std@@QEBA_NAEBV01@@Z
    ??N?$_Vb_const_iterator@U?$_Wrap_alloc@V?$allocator@I@std@@@std@@@std@@QEBA_NAEBV01@@Z
    ??P?$_Vb_const_iterator@U?$_Wrap_alloc@V?$allocator@I@std@@@std@@@std@@QEBA_NAEBV01@@Z
    ?_Compat@?$_Vb_const_iterator@U?$_Wrap_alloc@V?$allocator@I@std@@@std@@@std@@QEBAXAEBV12@@Z
    ?_Verify_range@std@@YAXAEBV?$_Vb_const_iterator@U?$_Wrap_alloc@V?$allocator@I@std@@@std@@@1@0@Z
    ?_Dec@?$_Vb_const_iterator@U?$_Wrap_alloc@V?$allocator@I@std@@@std@@@std@@QEAAXXZ
    ??1?$_Vb_const_iterator@U?$_Wrap_alloc@V?$allocator@I@std@@@std@@@std@@QEAA@XZ
    ??0?$_Vb_const_iterator@U?$_Wrap_alloc@V?$allocator@I@std@@@std@@@std@@QEAA@AEBV01@@Z
    ??0?$_Vb_const_iterator@U?$_Wrap_alloc@V?$allocator@I@std@@@std@@@std@@QEAA@$$QEAV01@@Z
    ??4?$_Vb_const_iterator@U?$_Wrap_alloc@V?$allocator@I@std@@@std@@@std@@QEAAAEAV01@$$QEAV01@@Z
    ??D?$_Vb_iterator@U?$_Wrap_alloc@V?$allocator@I@std@@@std@@@std@@QEBA?AV?$_Vb_reference@U?$_Wrap_alloc@V?$allocator@I@std@@@std@@@1@XZ
    ??F?$_Vb_iterator@U?$_Wrap_alloc@V?$allocator@I@std@@@std@@@std@@QEAAAEAV01@XZ
    ??Y?$_Vb_iterator@U?$_Wrap_alloc@V?$allocator@I@std@@@std@@@std@@QEAAAEAV01@_J@Z
    ??H?$_Vb_iterator@U?$_Wrap_alloc@V?$allocator@I@std@@@std@@@std@@QEBA?AV01@_J@Z
    ??1?$_Vb_iterator@U?$_Wrap_alloc@V?$allocator@I@std@@@std@@@std@@QEAA@XZ
    ??0?$_Vb_iterator@U?$_Wrap_alloc@V?$allocator@I@std@@@std@@@std@@QEAA@AEBV01@@Z
    ??0?$_Vb_iterator@U?$_Wrap_alloc@V?$allocator@I@std@@@std@@@std@@QEAA@$$QEAV01@@Z
    ??4?$_Vb_iterator@U?$_Wrap_alloc@V?$allocator@I@std@@@std@@@std@@QEAAAEAV01@$$QEAV01@@Z
    ??0?$_Vb_iterator@U?$_Wrap_alloc@V?$allocator@I@std@@@std@@@std@@QEAA@PEBIPEBU_Container_base12@1@@Z
    ??$forward@PEBD@std@@YA$$QEAPEBDAEAPEBD@Z
    ??$_Could_compare_equal_to_value_type@PEBDE@std@@YA_NAEBE@Z
    ??$_Find_vectorized@$$CBDE@std@@YAPEBDQEBD0E@Z
    ??1?$vector@DV?$allocator@D@std@@@std@@QEAA@XZ
    ?data@?$vector@DV?$allocator@D@std@@@std@@QEAAPEADXZ
    ?size@?$vector@DV?$allocator@D@std@@@std@@QEBA_KXZ
    ?max_size@?$vector@DV?$allocator@D@std@@@std@@QEBA_KXZ
    ?_Buy_raw@?$vector@DV?$allocator@D@std@@@std@@AEAAX_K@Z
    ?_Buy_nonzero@?$vector@DV?$allocator@D@std@@@std@@AEAAX_K@Z
    ?_Tidy@?$vector@DV?$allocator@D@std@@@std@@AEAAXXZ
    ?_Xlength@?$vector@DV?$allocator@D@std@@@std@@CAXXZ
    ?_Getal@?$vector@DV?$allocator@D@std@@@std@@AEAAAEAV?$allocator@D@2@XZ
    ?_Getal@?$vector@DV?$allocator@D@std@@@std@@AEBAAEBV?$allocator@D@2@XZ
    ??0?$_Vector_val@U?$_Simple_types@D@std@@@std@@QEAA@XZ
    ?_Get_first@?$_Compressed_pair@V?$allocator@D@std@@V?$_Vector_val@U?$_Simple_types@D@std@@@2@$00@std@@QEAAAEAV?$allocator@D@2@XZ
    ?_Get_first@?$_Compressed_pair@V?$allocator@D@std@@V?$_Vector_val@U?$_Simple_types@D@std@@@2@$00@std@@QEBAAEBV?$allocator@D@2@XZ
    ??$?0V?$_String_iterator@V?$_String_val@U?$_Simple_types@D@std@@@std@@@std@@$0A@@?$vector@DV?$allocator@D@std@@@std@@QEAA@V?$_String_iterator@V?$_String_val@U?$_Simple_types@D@std@@@std@@@1@0AEBV?$allocator@D@1@@Z
    ??$_Resize_reallocate@U_Value_init_tag@std@@@?$vector@U_Grp_t@?$_Tgt_state_t@PEBD@std@@V?$allocator@U_Grp_t@?$_Tgt_state_t@PEBD@std@@@3@@std@@AEAAX_KAEBU_Value_init_tag@1@@Z
    ??$_Uninitialized_value_construct_n@V?$allocator@U_Grp_t@?$_Tgt_state_t@PEBD@std@@@std@@@std@@YAPEAU_Grp_t@?$_Tgt_state_t@PEBD@0@PEAU120@_KAEAV?$allocator@U_Grp_t@?$_Tgt_state_t@PEBD@std@@@0@@Z
    ??$_Resize_reallocate@U_Value_init_tag@std@@@?$vector@U_Loop_vals_t@std@@V?$allocator@U_Loop_vals_t@std@@@2@@std@@AEAAX_KAEBU_Value_init_tag@1@@Z
    ??$_Uninitialized_value_construct_n@V?$allocator@U_Loop_vals_t@std@@@std@@@std@@YAPEAU_Loop_vals_t@0@PEAU10@_KAEAV?$allocator@U_Loop_vals_t@std@@@0@@Z
    ??$forward@AEBV?$allocator@I@std@@@std@@YAAEBV?$allocator@I@0@AEBV10@@Z
    ??$lookup_classname@PEBD@?$_Regex_traits@D@std@@QEBAFPEBD0_N@Z
    ??$swap@PEAV_Node_base@std@@$0A@@std@@YAXAEAPEAV_Node_base@0@0@Z
    ??$distance@PEBD@std@@YA_JPEBD0@Z
    ??$addressof@PEBD@std@@YAPEAPEBDAEAPEBD@Z
    ??$addressof@$$CBV?$vector@U_Grp_t@?$_Tgt_state_t@PEBD@std@@V?$allocator@U_Grp_t@?$_Tgt_state_t@PEBD@std@@@3@@std@@@std@@YAPEBV?$vector@U_Grp_t@?$_Tgt_state_t@PEBD@std@@V?$allocator@U_Grp_t@?$_Tgt_state_t@PEBD@std@@@3@@0@AEBV10@@Z
    ??$_Pocca@V?$allocator@U_Grp_t@?$_Tgt_state_t@PEBD@std@@@std@@@std@@YAXAEAV?$allocator@U_Grp_t@?$_Tgt_state_t@PEBD@std@@@0@AEBV10@@Z
    ??$_Assign_counted_range@PEAU_Grp_t@?$_Tgt_state_t@PEBD@std@@@?$vector@U_Grp_t@?$_Tgt_state_t@PEBD@std@@V?$allocator@U_Grp_t@?$_Tgt_state_t@PEBD@std@@@3@@std@@AEAAXPEAU_Grp_t@?$_Tgt_state_t@PEBD@1@_K@Z
    ??$_Resize@U_Value_init_tag@std@@@?$vector@V?$sub_match@PEBD@std@@V?$allocator@V?$sub_match@PEBD@std@@@2@@std@@AEAAX_KAEBU_Value_init_tag@1@@Z
    ??$fill_n@V?$_Vb_iterator@U?$_Wrap_alloc@V?$allocator@I@std@@@std@@@std@@_K_N@std@@YA?AV?$_Vb_iterator@U?$_Wrap_alloc@V?$allocator@I@std@@@std@@@0@V10@_KAEB_N@Z
    ??$copy@V?$_Vb_iterator@U?$_Wrap_alloc@V?$allocator@I@std@@@std@@@std@@V12@@std@@YA?AV?$_Vb_iterator@U?$_Wrap_alloc@V?$allocator@I@std@@@std@@@0@V10@00@Z
    ??$addressof@$$CBV?$vector@_NV?$allocator@_N@std@@@std@@@std@@YAPEBV?$vector@_NV?$allocator@_N@std@@@0@AEBV10@@Z
    ??$?0AEBV?$allocator@D@std@@$$V@?$_Compressed_pair@V?$allocator@D@std@@V?$_Vector_val@U?$_Simple_types@D@std@@@2@$00@std@@QEAA@U_One_then_variadic_args_t@1@AEBV?$allocator@D@1@@Z
    ??$_Get_unwrapped@AEAV?$_String_iterator@V?$_String_val@U?$_Simple_types@D@std@@@std@@@std@@@std@@YA?A_TAEAV?$_String_iterator@V?$_String_val@U?$_Simple_types@D@std@@@std@@@0@@Z
    ??$distance@PEAD@std@@YA_JPEAD0@Z
    ??$move@AEAPEAD@std@@YA$$QEAPEADAEAPEAD@Z
    ??$_Construct_n@PEADPEAD@?$vector@DV?$allocator@D@std@@@std@@AEAAX_K$$QEAPEAD1@Z
    ??$_Allocate_at_least_helper@V?$allocator@U_Grp_t@?$_Tgt_state_t@PEBD@std@@@std@@@std@@YAPEAU_Grp_t@?$_Tgt_state_t@PEBD@0@AEAV?$allocator@U_Grp_t@?$_Tgt_state_t@PEBD@std@@@0@AEA_K@Z
    ??1_Reallocation_guard@?$vector@U_Grp_t@?$_Tgt_state_t@PEBD@std@@V?$allocator@U_Grp_t@?$_Tgt_state_t@PEBD@std@@@3@@std@@QEAA@XZ
    ??$_Uninitialized_move@PEAU_Grp_t@?$_Tgt_state_t@PEBD@std@@V?$allocator@U_Grp_t@?$_Tgt_state_t@PEBD@std@@@3@@std@@YAPEAU_Grp_t@?$_Tgt_state_t@PEBD@0@QEAU120@0PEAU120@AEAV?$allocator@U_Grp_t@?$_Tgt_state_t@PEBD@std@@@0@@Z
    ??0?$_Uninitialized_backout_al@V?$allocator@U_Grp_t@?$_Tgt_state_t@PEBD@std@@@std@@@std@@QEAA@PEAU_Grp_t@?$_Tgt_state_t@PEBD@1@AEAV?$allocator@U_Grp_t@?$_Tgt_state_t@PEBD@std@@@1@@Z
    ??1?$_Uninitialized_backout_al@V?$allocator@U_Grp_t@?$_Tgt_state_t@PEBD@std@@@std@@@std@@QEAA@XZ
    ?_Release@?$_Uninitialized_backout_al@V?$allocator@U_Grp_t@?$_Tgt_state_t@PEBD@std@@@std@@@std@@QEAAPEAU_Grp_t@?$_Tgt_state_t@PEBD@2@XZ
    ??$_Emplace_back@$$V@?$_Uninitialized_backout_al@V?$allocator@U_Grp_t@?$_Tgt_state_t@PEBD@std@@@std@@@std@@QEAAXXZ
    ??$_Allocate_at_least_helper@V?$allocator@U_Loop_vals_t@std@@@std@@@std@@YAPEAU_Loop_vals_t@0@AEAV?$allocator@U_Loop_vals_t@std@@@0@AEA_K@Z
    ??1_Reallocation_guard@?$vector@U_Loop_vals_t@std@@V?$allocator@U_Loop_vals_t@std@@@2@@std@@QEAA@XZ
    ??$_Uninitialized_move@PEAU_Loop_vals_t@std@@V?$allocator@U_Loop_vals_t@std@@@2@@std@@YAPEAU_Loop_vals_t@0@QEAU10@0PEAU10@AEAV?$allocator@U_Loop_vals_t@std@@@0@@Z
    ??0?$_Uninitialized_backout_al@V?$allocator@U_Loop_vals_t@std@@@std@@@std@@QEAA@PEAU_Loop_vals_t@1@AEAV?$allocator@U_Loop_vals_t@std@@@1@@Z
    ??1?$_Uninitialized_backout_al@V?$allocator@U_Loop_vals_t@std@@@std@@@std@@QEAA@XZ
    ?_Release@?$_Uninitialized_backout_al@V?$allocator@U_Loop_vals_t@std@@@std@@@std@@QEAAPEAU_Loop_vals_t@2@XZ
    ??$_Emplace_back@$$V@?$_Uninitialized_backout_al@V?$allocator@U_Loop_vals_t@std@@@std@@@std@@QEAAXXZ
    ??$_Get@D@_Cl_names@std@@QEBAPEBDXZ
    ??0?$_Cmp_icase@V?$_Regex_traits@D@std@@@std@@QEAA@AEBV?$_Regex_traits@D@1@@Z
    ??R?$_Cmp_icase@V?$_Regex_traits@D@std@@@std@@QEBA_NDD@Z
    ??$equal@PEBDPEBDU?$_Cmp_icase@V?$_Regex_traits@D@std@@@std@@@std@@YA_NQEBD000U?$_Cmp_icase@V?$_Regex_traits@D@std@@@0@@Z
    ??$move@AEAPEAV_Node_base@std@@@std@@YA$$QEAPEAV_Node_base@0@AEAPEAV10@@Z
    ??$move@AEAPEAU_Grp_t@?$_Tgt_state_t@PEBD@std@@@std@@YA$$QEAPEAU_Grp_t@?$_Tgt_state_t@PEBD@0@AEAPEAU120@@Z
    ??$_Uninitialized_copy_n@PEAU_Grp_t@?$_Tgt_state_t@PEBD@std@@V?$allocator@U_Grp_t@?$_Tgt_state_t@PEBD@std@@@3@@std@@YAPEAU_Grp_t@?$_Tgt_state_t@PEBD@0@PEAU120@_K0AEAV?$allocator@U_Grp_t@?$_Tgt_state_t@PEBD@std@@@0@@Z
    ??$_Copy_memmove_n@PEAU_Grp_t@?$_Tgt_state_t@PEBD@std@@PEAU123@@std@@YAPEAU_Grp_t@?$_Tgt_state_t@PEBD@0@PEAU120@_K0@Z
    ??$_Copy_n_unchecked4@PEAU_Grp_t@?$_Tgt_state_t@PEBD@std@@_KPEAU123@@std@@YAPEAU_Grp_t@?$_Tgt_state_t@PEBD@0@PEAU120@_K0@Z
    ??$_Resize_reallocate@U_Value_init_tag@std@@@?$vector@V?$sub_match@PEBD@std@@V?$allocator@V?$sub_match@PEBD@std@@@2@@std@@AEAAX_KAEBU_Value_init_tag@1@@Z
    ??$_Uninitialized_value_construct_n@V?$allocator@V?$sub_match@PEBD@std@@@std@@@std@@YAPEAV?$sub_match@PEBD@0@PEAV10@_KAEAV?$allocator@V?$sub_match@PEBD@std@@@0@@Z
    ??$_Fill_vbool@V?$_Vb_iterator@U?$_Wrap_alloc@V?$allocator@I@std@@@std@@@std@@@std@@YAXV?$_Vb_iterator@U?$_Wrap_alloc@V?$allocator@I@std@@@std@@@0@V10@_N@Z
    ??$_Adl_verify_range@V?$_Vb_iterator@U?$_Wrap_alloc@V?$allocator@I@std@@@std@@@std@@V12@@std@@YAXAEBV?$_Vb_iterator@U?$_Wrap_alloc@V?$allocator@I@std@@@std@@@0@0@Z
    ??$_Get_unwrapped@AEAV?$_Vb_iterator@U?$_Wrap_alloc@V?$allocator@I@std@@@std@@@std@@@std@@YA?A_TAEAV?$_Vb_iterator@U?$_Wrap_alloc@V?$allocator@I@std@@@std@@@0@@Z
    ??$move@AEAV?$_Vb_iterator@U?$_Wrap_alloc@V?$allocator@I@std@@@std@@@std@@@std@@YA$$QEAV?$_Vb_iterator@U?$_Wrap_alloc@V?$allocator@I@std@@@std@@@0@AEAV10@@Z
    ??$_Idl_distance@V?$_Vb_iterator@U?$_Wrap_alloc@V?$allocator@I@std@@@std@@@std@@V12@@std@@YA?A_PAEBV?$_Vb_iterator@U?$_Wrap_alloc@V?$allocator@I@std@@@std@@@0@0@Z
    ??$_Get_unwrapped_n@V?$_Vb_iterator@U?$_Wrap_alloc@V?$allocator@I@std@@@std@@@std@@_J@std@@YA?A_T$$QEAV?$_Vb_iterator@U?$_Wrap_alloc@V?$allocator@I@std@@@std@@@0@_J@Z
    ??$_Copy_unchecked@V?$_Vb_iterator@U?$_Wrap_alloc@V?$allocator@I@std@@@std@@@std@@V12@V12@@std@@YA?AV?$_Vb_iterator@U?$_Wrap_alloc@V?$allocator@I@std@@@std@@@0@V10@00@Z
    ??$_Seek_wrapped@V?$_Vb_iterator@U?$_Wrap_alloc@V?$allocator@I@std@@@std@@@std@@V12@@std@@YAXAEAV?$_Vb_iterator@U?$_Wrap_alloc@V?$allocator@I@std@@@std@@@0@$$QEAV10@@Z
    ??$_Mark@I@_Bitmap@std@@QEAAXI@Z
    ??$make_unique@V_Node_assert@std@@W4_Node_type@2@$0A@@std@@YA?AV?$unique_ptr@V_Node_assert@std@@U?$default_delete@V_Node_assert@std@@@2@@0@$$QEAW4_Node_type@0@@Z
    ??R?$default_delete@V_Node_assert@std@@@std@@QEBAXPEAV_Node_assert@1@@Z
    ??1?$unique_ptr@V_Node_assert@std@@U?$default_delete@V_Node_assert@std@@@2@@std@@QEAA@XZ
    ?get_deleter@?$unique_ptr@V_Node_assert@std@@U?$default_delete@V_Node_assert@std@@@2@@std@@QEAAAEAU?$default_delete@V_Node_assert@std@@@2@XZ
    ?release@?$unique_ptr@V_Node_assert@std@@U?$default_delete@V_Node_assert@std@@@2@@std@@QEAAPEAV_Node_assert@2@XZ
    ?_Get_first@?$_Compressed_pair@U?$default_delete@V_Node_assert@std@@@std@@PEAV_Node_assert@2@$00@std@@QEAAAEAU?$default_delete@V_Node_assert@std@@@2@XZ
    ??$?0U?$default_delete@V_Node_assert@std@@@std@@$0A@@?$unique_ptr@V_Node_assert@std@@U?$default_delete@V_Node_assert@std@@@2@@std@@QEAA@$$QEAV01@@Z
    ??$_Mark@E@_Bitmap@std@@QEAAXE@Z
    ??$_Unfancy_maybe_null@D@std@@YAPEADPEAD@Z
    ??$?0V?$allocator@U_Grp_t@?$_Tgt_state_t@PEBD@std@@@std@@$$V@?$_Compressed_pair@V?$allocator@U_Grp_t@?$_Tgt_state_t@PEBD@std@@@std@@V?$_Vector_val@U?$_Simple_types@U_Grp_t@?$_Tgt_state_t@PEBD@std@@@std@@@2@$00@std@@QEAA@U_One_then_variadic_args_t@1@$$QEAV?$allocator@U_Grp_t@?$_Tgt_state_t@PEBD@std@@@1@@Z
    ??$_Construct_n@AEBQEAU_Grp_t@?$_Tgt_state_t@PEBD@std@@AEBQEAU123@@?$vector@U_Grp_t@?$_Tgt_state_t@PEBD@std@@V?$allocator@U_Grp_t@?$_Tgt_state_t@PEBD@std@@@3@@std@@AEAAX_KAEBQEAU_Grp_t@?$_Tgt_state_t@PEBD@1@1@Z
    ??$_Unfancy_maybe_null@I@std@@YAPEAIPEAI@Z
    ??$addressof@$$CBV?$vector@IV?$allocator@I@std@@@std@@@std@@YAPEBV?$vector@IV?$allocator@I@std@@@0@AEBV10@@Z
    ??$_Pocca@V?$allocator@I@std@@@std@@YAXAEAV?$allocator@I@0@AEBV10@@Z
    ??$_Assign_counted_range@PEAI@?$vector@IV?$allocator@I@std@@@std@@AEAAXPEAI_K@Z
    ??0?$_Vector_const_iterator@V?$_Vector_val@U?$_Simple_types@I@std@@@std@@@std@@QEAA@PEAIPEBU_Container_base12@1@@Z
    ?_Verify_offset@?$_Vector_const_iterator@V?$_Vector_val@U?$_Simple_types@I@std@@@std@@@std@@QEBAX_J@Z
    ??Y?$_Vector_const_iterator@V?$_Vector_val@U?$_Simple_types@I@std@@@std@@@std@@QEAAAEAV01@_J@Z
    ??1?$_Vector_const_iterator@V?$_Vector_val@U?$_Simple_types@I@std@@@std@@@std@@QEAA@XZ
    ??0?$_Vector_const_iterator@V?$_Vector_val@U?$_Simple_types@I@std@@@std@@@std@@QEAA@AEBV01@@Z
    ??0?$_Vector_const_iterator@V?$_Vector_val@U?$_Simple_types@I@std@@@std@@@std@@QEAA@$$QEAV01@@Z
    ??Y?$_Vector_iterator@V?$_Vector_val@U?$_Simple_types@I@std@@@std@@@std@@QEAAAEAV01@_J@Z
    ??H?$_Vector_iterator@V?$_Vector_val@U?$_Simple_types@I@std@@@std@@@std@@QEBA?AV01@_J@Z
    ??1?$_Vector_iterator@V?$_Vector_val@U?$_Simple_types@I@std@@@std@@@std@@QEAA@XZ
    ??0?$_Vector_iterator@V?$_Vector_val@U?$_Simple_types@I@std@@@std@@@std@@QEAA@AEBV01@@Z
    ??0?$_Vector_iterator@V?$_Vector_val@U?$_Simple_types@I@std@@@std@@@std@@QEAA@$$QEAV01@@Z
    ??0?$_Vector_iterator@V?$_Vector_val@U?$_Simple_types@I@std@@@std@@@std@@QEAA@PEAIPEBU_Container_base12@1@@Z
    ??$copy_backward@V?$_Vb_iterator@U?$_Wrap_alloc@V?$allocator@I@std@@@std@@@std@@V12@@std@@YA?AV?$_Vb_iterator@U?$_Wrap_alloc@V?$allocator@I@std@@@std@@@0@V10@00@Z
    ??1?$_Tidy_guard@V?$vector@DV?$allocator@D@std@@@std@@@std@@QEAA@XZ
    ??$forward@PEAD@std@@YA$$QEAPEADAEAPEAD@Z
    ??$_Uninitialized_copy@PEADPEADV?$allocator@D@std@@@std@@YAPEADPEAD00AEAV?$allocator@D@0@@Z
    ??$_Get_unwrapped@AEBQEAU_Grp_t@?$_Tgt_state_t@PEBD@std@@@std@@YA?A_TAEBQEAU_Grp_t@?$_Tgt_state_t@PEBD@0@@Z
    ??$move@AEAU_Grp_t@?$_Tgt_state_t@PEBD@std@@@std@@YA$$QEAU_Grp_t@?$_Tgt_state_t@PEBD@0@AEAU120@@Z
    ??$_Unfancy@U_Grp_t@?$_Tgt_state_t@PEBD@std@@@std@@YAPEAU_Grp_t@?$_Tgt_state_t@PEBD@0@PEAU120@@Z
    ??$_Copy_memmove@PEAU_Grp_t@?$_Tgt_state_t@PEBD@std@@PEAU123@@std@@YAPEAU_Grp_t@?$_Tgt_state_t@PEBD@0@PEAU120@00@Z
    ??$_Emplace_back@U_Grp_t@?$_Tgt_state_t@PEBD@std@@@?$_Uninitialized_backout_al@V?$allocator@U_Grp_t@?$_Tgt_state_t@PEBD@std@@@std@@@std@@QEAAX$$QEAU_Grp_t@?$_Tgt_state_t@PEBD@1@@Z
    ??$construct@U_Grp_t@?$_Tgt_state_t@PEBD@std@@$$V@?$_Default_allocator_traits@V?$allocator@U_Grp_t@?$_Tgt_state_t@PEBD@std@@@std@@@std@@SAXAEAV?$allocator@U_Grp_t@?$_Tgt_state_t@PEBD@std@@@1@QEAU_Grp_t@?$_Tgt_state_t@PEBD@1@@Z
    ??$_Get_unwrapped@AEBQEAU_Loop_vals_t@std@@@std@@YA?A_TAEBQEAU_Loop_vals_t@0@@Z
    ??$move@AEAU_Loop_vals_t@std@@@std@@YA$$QEAU_Loop_vals_t@0@AEAU10@@Z
    ??$_Unfancy@U_Loop_vals_t@std@@@std@@YAPEAU_Loop_vals_t@0@PEAU10@@Z
    ??$_Copy_memmove@PEAU_Loop_vals_t@std@@PEAU12@@std@@YAPEAU_Loop_vals_t@0@PEAU10@00@Z
    ??$_Emplace_back@U_Loop_vals_t@std@@@?$_Uninitialized_backout_al@V?$allocator@U_Loop_vals_t@std@@@std@@@std@@QEAAX$$QEAU_Loop_vals_t@1@@Z
    ??$construct@U_Loop_vals_t@std@@$$V@?$_Default_allocator_traits@V?$allocator@U_Loop_vals_t@std@@@std@@@std@@SAXAEAV?$allocator@U_Loop_vals_t@std@@@1@QEAU_Loop_vals_t@1@@Z
    ??$_Pass_fn@U?$_Cmp_icase@V?$_Regex_traits@D@std@@@std@@@std@@YA?A_PAEAU?$_Cmp_icase@V?$_Regex_traits@D@std@@@0@@Z
    ??$equal@PEBDPEBDU?$_Cmp_icase@V?$_Regex_traits@D@std@@@std@@@std@@YA_NQEBD00U?$_Cmp_icase@V?$_Regex_traits@D@std@@@0@@Z
    ??$_Get_unwrapped@PEAU_Grp_t@?$_Tgt_state_t@PEBD@std@@@std@@YA?A_T$$QEAPEAU_Grp_t@?$_Tgt_state_t@PEBD@0@@Z
    ??$_Emplace_back@AEAU_Grp_t@?$_Tgt_state_t@PEBD@std@@@?$_Uninitialized_backout_al@V?$allocator@U_Grp_t@?$_Tgt_state_t@PEBD@std@@@std@@@std@@QEAAXAEAU_Grp_t@?$_Tgt_state_t@PEBD@1@@Z
    ??$_To_address@PEAU_Grp_t@?$_Tgt_state_t@PEBD@std@@@std@@YA?A_PAEBQEAU_Grp_t@?$_Tgt_state_t@PEBD@0@@Z
    ??$_Copy_memmove_tail@PEAU_Grp_t@?$_Tgt_state_t@PEBD@std@@@std@@YAPEAU_Grp_t@?$_Tgt_state_t@PEBD@0@QEBDQEAU120@_K2@Z
    ??$_Allocate_at_least_helper@V?$allocator@V?$sub_match@PEBD@std@@@std@@@std@@YAPEAV?$sub_match@PEBD@0@AEAV?$allocator@V?$sub_match@PEBD@std@@@0@AEA_K@Z
    ??1_Reallocation_guard@?$vector@V?$sub_match@PEBD@std@@V?$allocator@V?$sub_match@PEBD@std@@@2@@std@@QEAA@XZ
    ??$_Uninitialized_move@PEAV?$sub_match@PEBD@std@@V?$allocator@V?$sub_match@PEBD@std@@@2@@std@@YAPEAV?$sub_match@PEBD@0@QEAV10@0PEAV10@AEAV?$allocator@V?$sub_match@PEBD@std@@@0@@Z
    ??0?$_Uninitialized_backout_al@V?$allocator@V?$sub_match@PEBD@std@@@std@@@std@@QEAA@PEAV?$sub_match@PEBD@1@AEAV?$allocator@V?$sub_match@PEBD@std@@@1@@Z
    ??1?$_Uninitialized_backout_al@V?$allocator@V?$sub_match@PEBD@std@@@std@@@std@@QEAA@XZ
    ?_Release@?$_Uninitialized_backout_al@V?$allocator@V?$sub_match@PEBD@std@@@std@@@std@@QEAAPEAV?$sub_match@PEBD@2@XZ
    ??$_Emplace_back@$$V@?$_Uninitialized_backout_al@V?$allocator@V?$sub_match@PEBD@std@@@std@@@std@@QEAAXXZ
    ??$_Copy_vbool@V?$_Vb_iterator@U?$_Wrap_alloc@V?$allocator@I@std@@@std@@@std@@V12@@std@@YA?AV?$_Vb_iterator@U?$_Wrap_alloc@V?$allocator@I@std@@@std@@@0@V10@00@Z
    ??$forward@V?$_Vb_iterator@U?$_Wrap_alloc@V?$allocator@I@std@@@std@@@std@@@std@@YA$$QEAV?$_Vb_iterator@U?$_Wrap_alloc@V?$allocator@I@std@@@std@@@0@AEAV10@@Z
    ??$forward@W4_Node_type@std@@@std@@YA$$QEAW4_Node_type@0@AEAW410@@Z
    ??$?0U?$default_delete@V_Node_assert@std@@@std@@$0A@@?$unique_ptr@V_Node_assert@std@@U?$default_delete@V_Node_assert@std@@@2@@std@@QEAA@PEAV_Node_assert@1@@Z
    ??$forward@U?$default_delete@V_Node_assert@std@@@std@@@std@@YA$$QEAU?$default_delete@V_Node_assert@std@@@0@AEAU10@@Z
    ??$?0U?$default_delete@V_Node_assert@std@@@std@@PEAV_Node_assert@1@@?$_Compressed_pair@U?$default_delete@V_Node_assert@std@@@std@@PEAV_Node_assert@2@$00@std@@QEAA@U_One_then_variadic_args_t@1@$$QEAU?$default_delete@V_Node_assert@std@@@1@$$QEAPEAV_Node_assert@1@@Z
    ??$forward@V?$allocator@U_Grp_t@?$_Tgt_state_t@PEBD@std@@@std@@@std@@YA$$QEAV?$allocator@U_Grp_t@?$_Tgt_state_t@PEBD@std@@@0@AEAV10@@Z
    ??1?$_Tidy_guard@V?$vector@U_Grp_t@?$_Tgt_state_t@PEBD@std@@V?$allocator@U_Grp_t@?$_Tgt_state_t@PEBD@std@@@3@@std@@@std@@QEAA@XZ
    ??$forward@AEBQEAU_Grp_t@?$_Tgt_state_t@PEBD@std@@@std@@YAAEBQEAU_Grp_t@?$_Tgt_state_t@PEBD@0@AEBQEAU120@@Z
    ??$_Uninitialized_copy@PEAU_Grp_t@?$_Tgt_state_t@PEBD@std@@PEAU123@V?$allocator@U_Grp_t@?$_Tgt_state_t@PEBD@std@@@3@@std@@YAPEAU_Grp_t@?$_Tgt_state_t@PEBD@0@PEAU120@00AEAV?$allocator@U_Grp_t@?$_Tgt_state_t@PEBD@std@@@0@@Z
    ??$move@AEAPEAI@std@@YA$$QEAPEAIAEAPEAI@Z
    ??$_Uninitialized_copy_n@PEAIV?$allocator@I@std@@@std@@YAPEAIPEAI_K0AEAV?$allocator@I@0@@Z
    ??$_Copy_memmove_n@PEAIPEAI@std@@YAPEAIPEAI_K0@Z
    ??$_Copy_n_unchecked4@PEAI_KPEAI@std@@YAPEAIPEAI_K0@Z
    ??$_Get_unwrapped_n@AEAV?$_Vb_iterator@U?$_Wrap_alloc@V?$allocator@I@std@@@std@@@std@@_J@std@@YA?A_TAEAV?$_Vb_iterator@U?$_Wrap_alloc@V?$allocator@I@std@@@std@@@0@_J@Z
    ??$_Copy_backward_unchecked@V?$_Vb_iterator@U?$_Wrap_alloc@V?$allocator@I@std@@@std@@@std@@V12@@std@@YA?AV?$_Vb_iterator@U?$_Wrap_alloc@V?$allocator@I@std@@@std@@@0@V10@00@Z
    ??$exchange@PEAV_Node_assert@std@@$$T@std@@YAPEAV_Node_assert@0@AEAPEAV10@$$QEA$$T@Z
    ??$_Destroy_range@V?$allocator@D@std@@@std@@YAXPEADQEADAEAV?$allocator@D@0@@Z
    ??$addressof@V?$_Vector_val@U?$_Simple_types@I@std@@@std@@@std@@YAPEAV?$_Vector_val@U?$_Simple_types@I@std@@@0@AEAV10@@Z
    ??$_Move_unchecked@PEAIPEAI@std@@YAPEAIPEAI00@Z
    ??$_Resize@I@?$vector@IV?$allocator@I@std@@@std@@AEAAX_KAEBI@Z
    ??$?0V?$allocator@I@std@@$$V@?$_Compressed_pair@V?$allocator@I@std@@V?$_Vector_val@U?$_Simple_types@I@std@@@2@$00@std@@QEAA@U_One_then_variadic_args_t@1@$$QEAV?$allocator@I@1@@Z
    ??$_Construct_n@AEBQEAIAEBQEAI@?$vector@IV?$allocator@I@std@@@std@@AEAAX_KAEBQEAI1@Z
    ??$_Get_unwrapped@PEAD@std@@YA?A_T$$QEAPEAD@Z
    ??$_Copy_memmove@PEADPEAD@std@@YAPEADPEAD00@Z
    ??0?$_Uninitialized_backout_al@V?$allocator@D@std@@@std@@QEAA@PEADAEAV?$allocator@D@1@@Z
    ??1?$_Uninitialized_backout_al@V?$allocator@D@std@@@std@@QEAA@XZ
    ?_Release@?$_Uninitialized_backout_al@V?$allocator@D@std@@@std@@QEAAPEADXZ
    ??$_Emplace_back@AEAD@?$_Uninitialized_backout_al@V?$allocator@D@std@@@std@@QEAAXAEAD@Z
    ??$forward@U_Grp_t@?$_Tgt_state_t@PEBD@std@@@std@@YA$$QEAU_Grp_t@?$_Tgt_state_t@PEBD@0@AEAU120@@Z
    ??$construct@U_Grp_t@?$_Tgt_state_t@PEBD@std@@U123@@?$_Default_allocator_traits@V?$allocator@U_Grp_t@?$_Tgt_state_t@PEBD@std@@@std@@@std@@SAXAEAV?$allocator@U_Grp_t@?$_Tgt_state_t@PEBD@std@@@1@QEAU_Grp_t@?$_Tgt_state_t@PEBD@1@$$QEAU341@@Z
    ??$_To_address@PEAU_Loop_vals_t@std@@@std@@YA?A_PAEBQEAU_Loop_vals_t@0@@Z
    ??$move@AEAPEAU_Loop_vals_t@std@@@std@@YA$$QEAPEAU_Loop_vals_t@0@AEAPEAU10@@Z
    ??$_Copy_memmove_tail@PEAU_Loop_vals_t@std@@@std@@YAPEAU_Loop_vals_t@0@QEBDQEAU10@_K2@Z
    ??$forward@U_Loop_vals_t@std@@@std@@YA$$QEAU_Loop_vals_t@0@AEAU10@@Z
    ??$construct@U_Loop_vals_t@std@@U12@@?$_Default_allocator_traits@V?$allocator@U_Loop_vals_t@std@@@std@@@std@@SAXAEAV?$allocator@U_Loop_vals_t@std@@@1@QEAU_Loop_vals_t@1@$$QEAU31@@Z
    ??$_Get_unwrapped_n@AEBQEBD_J@std@@YA?A_TAEBQEBD_J@Z
    ??$forward@AEAU_Grp_t@?$_Tgt_state_t@PEBD@std@@@std@@YAAEAU_Grp_t@?$_Tgt_state_t@PEBD@0@AEAU120@@Z
    ??$construct@U_Grp_t@?$_Tgt_state_t@PEBD@std@@AEAU123@@?$_Default_allocator_traits@V?$allocator@U_Grp_t@?$_Tgt_state_t@PEBD@std@@@std@@@std@@SAXAEAV?$allocator@U_Grp_t@?$_Tgt_state_t@PEBD@std@@@1@QEAU_Grp_t@?$_Tgt_state_t@PEBD@1@AEAU341@@Z
    ??$_Get_unwrapped@AEBQEAV?$sub_match@PEBD@std@@@std@@YA?A_TAEBQEAV?$sub_match@PEBD@0@@Z
    ??$move@AEAV?$sub_match@PEBD@std@@@std@@YA$$QEAV?$sub_match@PEBD@0@AEAV10@@Z
    ??$_Unfancy@V?$sub_match@PEBD@std@@@std@@YAPEAV?$sub_match@PEBD@0@PEAV10@@Z
    ??$_Copy_memmove@PEAV?$sub_match@PEBD@std@@PEAV12@@std@@YAPEAV?$sub_match@PEBD@0@PEAV10@00@Z
    ??$_Emplace_back@V?$sub_match@PEBD@std@@@?$_Uninitialized_backout_al@V?$allocator@V?$sub_match@PEBD@std@@@std@@@std@@QEAAX$$QEAV?$sub_match@PEBD@1@@Z
    ??$construct@V?$sub_match@PEBD@std@@$$V@?$_Default_allocator_traits@V?$allocator@V?$sub_match@PEBD@std@@@std@@@std@@SAXAEAV?$allocator@V?$sub_match@PEBD@std@@@1@QEAV?$sub_match@PEBD@1@@Z
    ??$_Copy_unchecked@PEBDPEBDPEAD@std@@YAPEADPEBD0PEAD@Z
    ??$?0AEAPEAV_Node_assert@std@@@?$_Compressed_pair@U?$default_delete@V_Node_assert@std@@@std@@PEAV_Node_assert@2@$00@std@@QEAA@U_Zero_then_variadic_args_t@1@AEAPEAV_Node_assert@1@@Z
    ??$forward@PEAV_Node_assert@std@@@std@@YA$$QEAPEAV_Node_assert@0@AEAPEAV10@@Z
    ??$_Get_unwrapped@PEAI@std@@YA?A_T$$QEAPEAI@Z
    ??$_Unfancy@I@std@@YAPEAIPEAI@Z
    ??0?$_Uninitialized_backout_al@V?$allocator@I@std@@@std@@QEAA@PEAIAEAV?$allocator@I@1@@Z
    ??1?$_Uninitialized_backout_al@V?$allocator@I@std@@@std@@QEAA@XZ
    ?_Release@?$_Uninitialized_backout_al@V?$allocator@I@std@@@std@@QEAAPEAIXZ
    ??$_Emplace_back@AEAI@?$_Uninitialized_backout_al@V?$allocator@I@std@@@std@@QEAAXAEAI@Z
    ??$_To_address@PEAI@std@@YA?A_PAEBQEAI@Z
    ??$_Copy_memmove_tail@PEAI@std@@YAPEAIQEBDQEAI_K2@Z
    ??$_Copy_memmove@PEAIPEAI@std@@YAPEAIPEAI00@Z
    ??$move@AEAI@std@@YA$$QEAIAEAI@Z
    ??$_Resize_reallocate@I@?$vector@IV?$allocator@I@std@@@std@@AEAAX_KAEBI@Z
    ??$_Uninitialized_fill_n@V?$allocator@I@std@@@std@@YAPEAIPEAI_KAEBIAEAV?$allocator@I@0@@Z
    ??$forward@V?$allocator@I@std@@@std@@YA$$QEAV?$allocator@I@0@AEAV10@@Z
    ??1?$_Tidy_guard@V?$vector@IV?$allocator@I@std@@@std@@@std@@QEAA@XZ
    ??$forward@AEBQEAI@std@@YAAEBQEAIAEBQEAI@Z
    ??$_Uninitialized_copy@PEAIPEAIV?$allocator@I@std@@@std@@YAPEAIPEAI00AEAV?$allocator@I@0@@Z
    ??$transform_primary@PEBD@?$_Regex_traits@D@std@@QEBA?AV?$basic_string@DU?$char_traits@D@std@@V?$allocator@D@2@@1@PEBD0@Z
    ??$transform_primary@PEAD@?$_Regex_traits@D@std@@QEBA?AV?$basic_string@DU?$char_traits@D@std@@V?$allocator@D@2@@1@PEAD0@Z
    ??$addressof@PEAU?$_Sequence@D@std@@@std@@YAPEAPEAU?$_Sequence@D@0@AEAPEAU10@@Z
    ??$_Copy_memmove_tail@PEAD@std@@YAPEADQEBDQEAD_K2@Z
    ??$forward@AEAD@std@@YAAEADAEAD@Z
    ??$construct@DAEAD@?$_Default_allocator_traits@V?$allocator@D@std@@@std@@SAXAEAV?$allocator@D@1@QEADAEAD@Z
    ??$_To_address@PEAV?$sub_match@PEBD@std@@@std@@YA?A_PAEBQEAV?$sub_match@PEBD@0@@Z
    ??$move@AEAPEAV?$sub_match@PEBD@std@@@std@@YA$$QEAPEAV?$sub_match@PEBD@0@AEAPEAV10@@Z
    ??$_Copy_memmove_tail@PEAV?$sub_match@PEBD@std@@@std@@YAPEAV?$sub_match@PEBD@0@QEBDQEAV10@_K2@Z
    ??$forward@V?$sub_match@PEBD@std@@@std@@YA$$QEAV?$sub_match@PEBD@0@AEAV10@@Z
    ??$construct@V?$sub_match@PEBD@std@@V12@@?$_Default_allocator_traits@V?$allocator@V?$sub_match@PEBD@std@@@std@@@std@@SAXAEAV?$allocator@V?$sub_match@PEBD@std@@@1@QEAV?$sub_match@PEBD@1@$$QEAV31@@Z
    ??$_Copy_memmove@PEBDPEAD@std@@YAPEADPEBD0PEAD@Z
    ??$forward@AEAPEAV_Node_assert@std@@@std@@YAAEAPEAV_Node_assert@0@AEAPEAV10@@Z
    ??$forward@AEAI@std@@YAAEAIAEAI@Z
    ??$construct@IAEAI@?$_Default_allocator_traits@V?$allocator@I@std@@@std@@SAXAEAV?$allocator@I@1@QEAIAEAI@Z
    ??$_Allocate_at_least_helper@V?$allocator@I@std@@@std@@YAPEAIAEAV?$allocator@I@0@AEA_K@Z
    ??1_Reallocation_guard@?$vector@IV?$allocator@I@std@@@std@@QEAA@XZ
    ??$_Uninitialized_move@PEAIV?$allocator@I@std@@@std@@YAPEAIQEAI0PEAIAEAV?$allocator@I@0@@Z
    ??$_Is_all_bits_zero@I@std@@YA_NAEBI@Z
    ??$_Fill_zero_memset@PEAI@std@@YAXPEAI_K@Z
    ??$_Emplace_back@AEBI@?$_Uninitialized_backout_al@V?$allocator@I@std@@@std@@QEAAXAEBI@Z
    ??$?0PEBD$0A@@?$vector@DV?$allocator@D@std@@@std@@QEAA@PEBD0AEBV?$allocator@D@1@@Z
    ??$?0PEAD$0A@@?$vector@DV?$allocator@D@std@@@std@@QEAA@PEAD0AEBV?$allocator@D@1@@Z
    ??$_Insert2@PEBD@?$_Buf@D@std@@QEAAXPEBD0@Z
    ??$_Get_size_of_n@$0BI@@std@@YA_K_K@Z
    ??$_Get_unwrapped@AEBQEAI@std@@YA?A_TAEBQEAI@Z
    ??$_Emplace_back@I@?$_Uninitialized_backout_al@V?$allocator@I@std@@@std@@QEAAX$$QEAI@Z
    ??$forward@AEBI@std@@YAAEBIAEBI@Z
    ??$construct@IAEBI@?$_Default_allocator_traits@V?$allocator@I@std@@@std@@SAXAEAV?$allocator@I@1@QEAIAEBI@Z
    ??$move@AEAPEBD@std@@YA$$QEAPEBDAEAPEBD@Z
    ??$_Construct_n@PEBDPEBD@?$vector@DV?$allocator@D@std@@@std@@AEAAX_K$$QEAPEBD1@Z
    ??$forward@I@std@@YA$$QEAIAEAI@Z
    ??$construct@II@?$_Default_allocator_traits@V?$allocator@I@std@@@std@@SAXAEAV?$allocator@I@1@QEAI$$QEAI@Z
    ??$_Uninitialized_copy@PEBDPEBDV?$allocator@D@std@@@std@@YAPEADPEBD0PEADAEAV?$allocator@D@0@@Z
    ??$_Get_unwrapped@PEBD@std@@YA?A_T$$QEAPEBD@Z
    ??$_Emplace_back@AEBD@?$_Uninitialized_backout_al@V?$allocator@D@std@@@std@@QEAAXAEBD@Z
    ??$forward@AEBD@std@@YAAEBDAEBD@Z
    ??$construct@DAEBD@?$_Default_allocator_traits@V?$allocator@D@std@@@std@@SAXAEAV?$allocator@D@1@QEADAEBD@Z
    ??_7exception@std@@6B@
    ??_C@_0BC@EOODALEL@Unknown?5exception@
    ??_7bad_alloc@std@@6B@
    ??_7bad_array_new_length@std@@6B@
    ??_C@_0BF@KINCDENJ@bad?5array?5new?5length@
    ??_R0?AVexception@std@@@8
    _CT??_R0?AVexception@std@@@8??0exception@std@@QEAA@AEBV01@@Z24
    _TI3?AVbad_array_new_length@std@@
    _CTA3?AVbad_array_new_length@std@@
    ??_R0?AVbad_array_new_length@std@@@8
    _CT??_R0?AVbad_array_new_length@std@@@8??0bad_array_new_length@std@@QEAA@AEBV01@@Z24
    ??_R0?AVbad_alloc@std@@@8
    _CT??_R0?AVbad_alloc@std@@@8??0bad_alloc@std@@QEAA@AEBV01@@Z24
    ??_C@_0BB@FCMFBGOM@invalid?5argument@
    ??_C@_02DKCKIIND@?$CFs@
    ??_C@_0GC@KLECFGLI@C?3?2Program?5Files?2Microsoft?5Visu@
    ??_C@_0BJ@LFDBABJJ@ITERATOR?5LIST?5CORRUPTED?$CB@
    ??_C@_0BA@JFNIOLAK@string?5too?5long@
    ??_7bad_cast@std@@6B@
    ??_C@_08EPJLHIJG@bad?5cast@
    _TI2?AVbad_cast@std@@
    _CTA2?AVbad_cast@std@@
    ??_R0?AVbad_cast@std@@@8
    _CT??_R0?AVbad_cast@std@@@8??0bad_cast@std@@QEAA@AEBV01@@Z24
    ??_C@_0GC@IAMDGGLO@C?3?2Program?5Files?2Microsoft?5Visu@
    ??_7?$collate@D@std@@6B@
    ?_Is_word_table@?1??_Is_word@std@@YA_NE@Z@4QB_NB
    ??_7_Node_base@std@@6B@
    ??_7_Root_node@std@@6B@
    ??_7_Node_end_group@std@@6B@
    ??_7_Node_assert@std@@6B@
    ??_7_Node_capture@std@@6B@
    ??_7_Node_back@std@@6B@
    ??_7_Node_endif@std@@6B@
    ??_7_Node_if@std@@6B@
    ??_7_Node_end_rep@std@@6B@
    ??_7_Node_rep@std@@6B@
    ??_7?$basic_stringbuf@DU?$char_traits@D@std@@V?$allocator@D@2@@std@@6B@
    ??_7?$basic_ostringstream@DU?$char_traits@D@std@@V?$allocator@D@2@@std@@6B@
    ??_8?$basic_ostringstream@DU?$char_traits@D@std@@V?$allocator@D@2@@std@@7B@
    ??_C@_0BJ@HAJGEHKO@transposed?5pointer?5range@
    ??_C@_0GD@GOKHNLI@C?3?2Program?5Files?2Microsoft?5Visu@
    ?_Psave@?$_Facetptr@V?$ctype@D@std@@@std@@2PEBVfacet@locale@2@EB
    ??_C@_1BK@MHIKGOKE@?$AA?3?$AAA?$AAM?$AA?3?$AAa?$AAm?$AA?3?$AAP?$AAM?$AA?3?$AAp?$AAm@
    ??_C@_0BO@LFGPDMIB@string?5subscript?5out?5of?5range@
    ??_C@_0GC@FCIPFKFB@C?3?2Program?5Files?2Microsoft?5Visu@
    ??_C@_0DG@KGHKKGBC@null?5pointer?5cannot?5point?5to?5a?5@
    ??_C@_0DI@FIGNHEDK@string?5iterators?5in?5range?5are?5f@
    ??_C@_0CB@KDGGCAAF@string?5iterator?5range?5transpose@
    ?_Psave@?$_Facetptr@V?$collate@D@std@@@std@@2PEBVfacet@locale@2@EB
    ?_Meta_map@?1??_Trans@?$_Parser@PEBDDV?$regex_traits@D@std@@@std@@AEAAXXZ@4QBDB
    ??_7?$_Node_str@D@std@@6B@
    ??_7?$_Node_class@DV?$regex_traits@D@std@@@std@@6B@
    ??_C@_0BO@PFKOHNJC@vector?5subscript?5out?5of?5range@
    ??_C@_0GB@KEIPDMDC@C?3?2Program?5Files?2Microsoft?5Visu@
    ??_C@_0EJ@NPIAEPMO@string?5iterators?5incompatible?5?$CI@
    ??_C@_0BI@CFPLBAOH@invalid?5string?5position@
    ??_C@_0CE@FFEOOBMH@vector?$DMbool?$DO?5subscript?5out?5of?5r@
    ??_C@_0CE@JKEHHNKH@regex?5buffer?5subscript?5out?5of?5r@
    ??_C@_0GA@OMGHNHOG@C?3?2Program?5Files?2Microsoft?5Visu@
    ??_C@_0DL@EIIPGNKA@cannot?5dereference?5value?9initia@
    ??_C@_0CK@FLJLFEAD@vector?$DMbool?$DO?5iterator?5not?5deref@
    ??_C@_0CK@HHMCPIJ@vector?$DMbool?$DO?5erase?5iterator?5out@
    ?_Names@?1???$lookup_classname@PEBD@?$_Regex_traits@D@std@@QEBAFPEBD0_N@Z@4QBU_Cl_names@2@B
    ??_C@_05IIMHCHIO@alnum@
    ??_C@_1M@KLMEPMCM@?$AAa?$AAl?$AAn?$AAu?$AAm@
    ??_C@_05IAEKHIAN@alpha@
    ??_C@_1M@DHGLHBMI@?$AAa?$AAl?$AAp?$AAh?$AAa@
    ??_C@_05BABJKOGB@blank@
    ??_C@_1M@EJAAJBPE@?$AAb?$AAl?$AAa?$AAn?$AAk@
    ??_C@_05JMDPEFNK@cntrl@
    ??_C@_1M@LMIMILA@?$AAc?$AAn?$AAt?$AAr?$AAl@
    ??_C@_01LPLHEDKD@d@
    ??_C@_13GKPPEALH@?$AAd@
    ??_C@_05ODNOIFML@digit@
    ??_C@_1M@JDAEIBKG@?$AAd?$AAi?$AAg?$AAi?$AAt@
    ??_C@_05KCJBMLII@graph@
    ??_C@_1M@MDKNJLLK@?$AAg?$AAr?$AAa?$AAp?$AAh@
    ??_C@_05IPJEPLHL@lower@
    ??_C@_1M@LGAECJJD@?$AAl?$AAo?$AAw?$AAe?$AAr@
    ??_C@_05IJDJACGD@print@
    ??_C@_1M@ELNLAPLA@?$AAp?$AAr?$AAi?$AAn?$AAt@
    ??_C@_05KOBGHFJJ@punct@
    ??_C@_1M@BPFMAOAO@?$AAp?$AAu?$AAn?$AAc?$AAt@
    ??_C@_05OLNILLAB@space@
    ??_C@_1M@LPGODFOM@?$AAs?$AAp?$AAa?$AAc?$AAe@
    ??_C@_01LKDEMHDF@s@
    ??_C@_13KHDBCPJB@?$AAs@
    ??_C@_05NECKJAMC@upper@
    ??_C@_1M@PLNFCNIC@?$AAu?$AAp?$AAp?$AAe?$AAr@
    ??_C@_01NOFIACDB@w@
    ??_C@_13CIFDLIMG@?$AAw@
    ??_C@_06BAPHGFFK@xdigit@
    ??_C@_1O@OAFMJDHN@?$AAx?$AAd?$AAi?$AAg?$AAi?$AAt@
    ??_C@_0CL@KDONHBJH@vector?$DMbool?$DO?5insert?5iterator?5ou@
    ??_C@_0BA@FOIKENOD@vector?5too?5long@
    ??_C@_0CE@IAABIELH@vector?$DMbool?$DO?5iterators?5incompat@
    ??_C@_0DE@MGKMKIAE@cannot?5seek?5value?9initialized?5v@
    ??_C@_0CP@MNPGILOJ@cannot?5seek?5vector?$DMbool?$DO?5iterat@
    ??_C@_0CM@DKKJDFLM@cannot?5seek?5vector?$DMbool?$DO?5iterat@
    ??_C@_0CE@EAMOGAIE@vector?5erase?5iterator?5outside?5r@
    ??_C@_0BG@EOMJEIFA@vector?$DMbool?$DO?5too?5long@
    ??_C@_0CH@KPIOHKJL@vector?$DMbool?$DO?5iterator?5range?5tra@
    ??_C@_0CO@LHPFLLJB@cannot?5seek?5value?9initialized?5v@
    ??_C@_0CI@OOHCOPKB@cannot?5seek?5invalidated?5vector?5@
    ??_C@_0CJ@DIFMEJBE@cannot?5seek?5vector?5iterator?5bef@
    ??_C@_0CG@JDIOCKHH@cannot?5seek?5vector?5iterator?5aft@
    ??_C@_0DJ@BJBAPOC@cannot?5decrement?5value?9initiali@
    ??_C@_0CN@IOEDPCGA@cannot?5decrement?5vector?$DMbool?$DO?5b@
    ??_R4?$basic_stringbuf@DU?$char_traits@D@std@@V?$allocator@D@2@@std@@6B@
    ??_R0?AV?$basic_stringbuf@DU?$char_traits@D@std@@V?$allocator@D@2@@std@@@8
    ??_R3?$basic_stringbuf@DU?$char_traits@D@std@@V?$allocator@D@2@@std@@8
    ??_R2?$basic_stringbuf@DU?$char_traits@D@std@@V?$allocator@D@2@@std@@8
    ??_R1A@?0A@EA@?$basic_stringbuf@DU?$char_traits@D@std@@V?$allocator@D@2@@std@@8
    ??_R1A@?0A@EA@?$basic_streambuf@DU?$char_traits@D@std@@@std@@8
    ??_R0?AV?$basic_streambuf@DU?$char_traits@D@std@@@std@@@8
    ??_R3?$basic_streambuf@DU?$char_traits@D@std@@@std@@8
    ??_R2?$basic_streambuf@DU?$char_traits@D@std@@@std@@8
    ??_R4?$basic_ostringstream@DU?$char_traits@D@std@@V?$allocator@D@2@@std@@6B@
    ??_R0?AV?$basic_ostringstream@DU?$char_traits@D@std@@V?$allocator@D@2@@std@@@8
    ??_R3?$basic_ostringstream@DU?$char_traits@D@std@@V?$allocator@D@2@@std@@8
    ??_R2?$basic_ostringstream@DU?$char_traits@D@std@@V?$allocator@D@2@@std@@8
    ??_R1A@?0A@EA@?$basic_ostringstream@DU?$char_traits@D@std@@V?$allocator@D@2@@std@@8
    ??_R1A@?0A@EA@?$basic_ostream@DU?$char_traits@D@std@@@std@@8
    ??_R0?AV?$basic_ostream@DU?$char_traits@D@std@@@std@@@8
    ??_R3?$basic_ostream@DU?$char_traits@D@std@@@std@@8
    ??_R2?$basic_ostream@DU?$char_traits@D@std@@@std@@8
    ??_R1A@A@3FA@?$basic_ios@DU?$char_traits@D@std@@@std@@8
    ??_R0?AV?$basic_ios@DU?$char_traits@D@std@@@std@@@8
    ??_R3?$basic_ios@DU?$char_traits@D@std@@@std@@8
    ??_R2?$basic_ios@DU?$char_traits@D@std@@@std@@8
    ??_R1A@?0A@EA@?$basic_ios@DU?$char_traits@D@std@@@std@@8
    ??_R1A@?0A@EA@ios_base@std@@8
    ??_R0?AVios_base@std@@@8
    ??_R3ios_base@std@@8
    ??_R2ios_base@std@@8
    ??_R17?0A@EA@?$_Iosb@H@std@@8
    ??_R0?AV?$_Iosb@H@std@@@8
    ??_R3?$_Iosb@H@std@@8
    ??_R2?$_Iosb@H@std@@8
    ??_R1A@?0A@EA@?$_Iosb@H@std@@8
    ??_R1A@A@3EA@ios_base@std@@8
    ??_R17A@3EA@?$_Iosb@H@std@@8
    ??_R4exception@std@@6B@
    ??_R3exception@std@@8
    ??_R2exception@std@@8
    ??_R1A@?0A@EA@exception@std@@8
    ??_R4bad_array_new_length@std@@6B@
    ??_R3bad_array_new_length@std@@8
    ??_R2bad_array_new_length@std@@8
    ??_R1A@?0A@EA@bad_array_new_length@std@@8
    ??_R1A@?0A@EA@bad_alloc@std@@8
    ??_R3bad_alloc@std@@8
    ??_R2bad_alloc@std@@8
    ??_R4bad_alloc@std@@6B@
    ??_R4bad_cast@std@@6B@
    ??_R3bad_cast@std@@8
    ??_R2bad_cast@std@@8
    ??_R1A@?0A@EA@bad_cast@std@@8
    ??_R1A@?0A@EA@facet@locale@std@@8
    ??_R0?AVfacet@locale@std@@@8
    ??_R3facet@locale@std@@8
    ??_R2facet@locale@std@@8
    ??_R1A@?0A@EA@_Facet_base@std@@8
    ??_R0?AV_Facet_base@std@@@8
    ??_R3_Facet_base@std@@8
    ??_R2_Facet_base@std@@8
    ??_R17?0A@EA@_Crt_new_delete@std@@8
    ??_R0?AU_Crt_new_delete@std@@@8
    ??_R3_Crt_new_delete@std@@8
    ??_R2_Crt_new_delete@std@@8
    ??_R1A@?0A@EA@_Crt_new_delete@std@@8
    ??_R4?$collate@D@std@@6B@
    ??_R0?AV?$collate@D@std@@@8
    ??_R3?$collate@D@std@@8
    ??_R2?$collate@D@std@@8
    ??_R1A@?0A@EA@?$collate@D@std@@8
    ??_R4_Node_base@std@@6B@
    ??_R0?AV_Node_base@std@@@8
    ??_R3_Node_base@std@@8
    ??_R2_Node_base@std@@8
    ??_R1A@?0A@EA@_Node_base@std@@8
    ??_R4_Root_node@std@@6B@
    ??_R0?AV_Root_node@std@@@8
    ??_R3_Root_node@std@@8
    ??_R2_Root_node@std@@8
    ??_R1A@?0A@EA@_Root_node@std@@8
    ??_R4_Node_end_group@std@@6B@
    ??_R0?AV_Node_end_group@std@@@8
    ??_R3_Node_end_group@std@@8
    ??_R2_Node_end_group@std@@8
    ??_R1A@?0A@EA@_Node_end_group@std@@8
    ??_R4_Node_assert@std@@6B@
    ??_R0?AV_Node_assert@std@@@8
    ??_R3_Node_assert@std@@8
    ??_R2_Node_assert@std@@8
    ??_R1A@?0A@EA@_Node_assert@std@@8
    ??_R4_Node_capture@std@@6B@
    ??_R0?AV_Node_capture@std@@@8
    ??_R3_Node_capture@std@@8
    ??_R2_Node_capture@std@@8
    ??_R1A@?0A@EA@_Node_capture@std@@8
    ??_R4_Node_back@std@@6B@
    ??_R0?AV_Node_back@std@@@8
    ??_R3_Node_back@std@@8
    ??_R2_Node_back@std@@8
    ??_R1A@?0A@EA@_Node_back@std@@8
    ??_R4_Node_endif@std@@6B@
    ??_R0?AV_Node_endif@std@@@8
    ??_R3_Node_endif@std@@8
    ??_R2_Node_endif@std@@8
    ??_R1A@?0A@EA@_Node_endif@std@@8
    ??_R4_Node_if@std@@6B@
    ??_R0?AV_Node_if@std@@@8
    ??_R3_Node_if@std@@8
    ??_R2_Node_if@std@@8
    ??_R1A@?0A@EA@_Node_if@std@@8
    ??_R4_Node_rep@std@@6B@
    ??_R0?AV_Node_rep@std@@@8
    ??_R3_Node_rep@std@@8
    ??_R2_Node_rep@std@@8
    ??_R1A@?0A@EA@_Node_rep@std@@8
    ??_R4_Node_end_rep@std@@6B@
    ??_R0?AV_Node_end_rep@std@@@8
    ??_R3_Node_end_rep@std@@8
    ??_R2_Node_end_rep@std@@8
    ??_R1A@?0A@EA@_Node_end_rep@std@@8
    ??_R4?$_Node_class@DV?$regex_traits@D@std@@@std@@6B@
    ??_R0?AV?$_Node_class@DV?$regex_traits@D@std@@@std@@@8
    ??_R3?$_Node_class@DV?$regex_traits@D@std@@@std@@8
    ??_R2?$_Node_class@DV?$regex_traits@D@std@@@std@@8
    ??_R1A@?0A@EA@?$_Node_class@DV?$regex_traits@D@std@@@std@@8
    ??_R4?$_Node_str@D@std@@6B@
    ??_R0?AV?$_Node_str@D@std@@@8
    ??_R3?$_Node_str@D@std@@8
    ??_R2?$_Node_str@D@std@@8
    ??_R1A@?0A@EA@?$_Node_str@D@std@@8
